
/media/psf/Home/Work/glibc/lib/libpthread.so.0:     file format elf64-x86-64


Disassembly of section .init:

00000000000052b0 <_init>:
    52b0:	48 83 ec 08          	sub    $0x8,%rsp
    52b4:	e8 87 05 00 00       	callq  5840 <__pthread_initialize_minimal>
    52b9:	e8 02 05 00 00       	callq  57c0 <frame_dummy>
    52be:	e8 8d c1 00 00       	callq  11450 <__do_global_ctors_aux>
    52c3:	48 83 c4 08          	add    $0x8,%rsp
    52c7:	c3                   	retq   

Disassembly of section .plt:

00000000000052d0 <__clone@plt-0x10>:
    52d0:	ff 35 1a 2d 21 00    	pushq  0x212d1a(%rip)        # 217ff0 <_GLOBAL_OFFSET_TABLE_+0x8>
    52d6:	ff 25 1c 2d 21 00    	jmpq   *0x212d1c(%rip)        # 217ff8 <_GLOBAL_OFFSET_TABLE_+0x10>
    52dc:	0f 1f 40 00          	nopl   0x0(%rax)

00000000000052e0 <__clone@plt>:
    52e0:	ff 25 1a 2d 21 00    	jmpq   *0x212d1a(%rip)        # 218000 <_GLOBAL_OFFSET_TABLE_+0x18>
    52e6:	68 00 00 00 00       	pushq  $0x0
    52eb:	e9 e0 ff ff ff       	jmpq   52d0 <_init+0x20>

00000000000052f0 <free@plt>:
    52f0:	ff 25 12 2d 21 00    	jmpq   *0x212d12(%rip)        # 218008 <_GLOBAL_OFFSET_TABLE_+0x20>
    52f6:	68 01 00 00 00       	pushq  $0x1
    52fb:	e9 d0 ff ff ff       	jmpq   52d0 <_init+0x20>

0000000000005300 <abort@plt>:
    5300:	ff 25 0a 2d 21 00    	jmpq   *0x212d0a(%rip)        # 218010 <_GLOBAL_OFFSET_TABLE_+0x28>
    5306:	68 02 00 00 00       	pushq  $0x2
    530b:	e9 c0 ff ff ff       	jmpq   52d0 <_init+0x20>

0000000000005310 <unlink@plt>:
    5310:	ff 25 02 2d 21 00    	jmpq   *0x212d02(%rip)        # 218018 <_GLOBAL_OFFSET_TABLE_+0x30>
    5316:	68 03 00 00 00       	pushq  $0x3
    531b:	e9 b0 ff ff ff       	jmpq   52d0 <_init+0x20>

0000000000005320 <_exit@plt>:
    5320:	ff 25 fa 2c 21 00    	jmpq   *0x212cfa(%rip)        # 218020 <_GLOBAL_OFFSET_TABLE_+0x38>
    5326:	68 04 00 00 00       	pushq  $0x4
    532b:	e9 a0 ff ff ff       	jmpq   52d0 <_init+0x20>

0000000000005330 <__sched_getscheduler@plt>:
    5330:	ff 25 f2 2c 21 00    	jmpq   *0x212cf2(%rip)        # 218028 <_GLOBAL_OFFSET_TABLE_+0x40>
    5336:	68 05 00 00 00       	pushq  $0x5
    533b:	e9 90 ff ff ff       	jmpq   52d0 <_init+0x20>

0000000000005340 <__libc_dlclose@plt>:
    5340:	ff 25 ea 2c 21 00    	jmpq   *0x212cea(%rip)        # 218030 <_GLOBAL_OFFSET_TABLE_+0x48>
    5346:	68 06 00 00 00       	pushq  $0x6
    534b:	e9 80 ff ff ff       	jmpq   52d0 <_init+0x20>

0000000000005350 <__libc_fatal@plt>:
    5350:	ff 25 e2 2c 21 00    	jmpq   *0x212ce2(%rip)        # 218038 <_GLOBAL_OFFSET_TABLE_+0x50>
    5356:	68 07 00 00 00       	pushq  $0x7
    535b:	e9 70 ff ff ff       	jmpq   52d0 <_init+0x20>

0000000000005360 <tfind@plt>:
    5360:	ff 25 da 2c 21 00    	jmpq   *0x212cda(%rip)        # 218040 <_GLOBAL_OFFSET_TABLE_+0x58>
    5366:	68 08 00 00 00       	pushq  $0x8
    536b:	e9 60 ff ff ff       	jmpq   52d0 <_init+0x20>

0000000000005370 <__statfs@plt>:
    5370:	ff 25 d2 2c 21 00    	jmpq   *0x212cd2(%rip)        # 218048 <_GLOBAL_OFFSET_TABLE_+0x60>
    5376:	68 09 00 00 00       	pushq  $0x9
    537b:	e9 50 ff ff ff       	jmpq   52d0 <_init+0x20>

0000000000005380 <fclose@plt>:
    5380:	ff 25 ca 2c 21 00    	jmpq   *0x212cca(%rip)        # 218050 <_GLOBAL_OFFSET_TABLE_+0x68>
    5386:	68 0a 00 00 00       	pushq  $0xa
    538b:	e9 40 ff ff ff       	jmpq   52d0 <_init+0x20>

0000000000005390 <strlen@plt>:
    5390:	ff 25 c2 2c 21 00    	jmpq   *0x212cc2(%rip)        # 218058 <_GLOBAL_OFFSET_TABLE_+0x70>
    5396:	68 0b 00 00 00       	pushq  $0xb
    539b:	e9 30 ff ff ff       	jmpq   52d0 <_init+0x20>

00000000000053a0 <__libc_system@plt>:
    53a0:	ff 25 ba 2c 21 00    	jmpq   *0x212cba(%rip)        # 218060 <_GLOBAL_OFFSET_TABLE_+0x78>
    53a6:	68 0c 00 00 00       	pushq  $0xc
    53ab:	e9 20 ff ff ff       	jmpq   52d0 <_init+0x20>

00000000000053b0 <getuid@plt>:
    53b0:	ff 25 b2 2c 21 00    	jmpq   *0x212cb2(%rip)        # 218068 <_GLOBAL_OFFSET_TABLE_+0x80>
    53b6:	68 0d 00 00 00       	pushq  $0xd
    53bb:	e9 10 ff ff ff       	jmpq   52d0 <_init+0x20>

00000000000053c0 <mmap@plt>:
    53c0:	ff 25 aa 2c 21 00    	jmpq   *0x212caa(%rip)        # 218070 <_GLOBAL_OFFSET_TABLE_+0x88>
    53c6:	68 0e 00 00 00       	pushq  $0xe
    53cb:	e9 00 ff ff ff       	jmpq   52d0 <_init+0x20>

00000000000053d0 <__gettimeofday@plt>:
    53d0:	ff 25 a2 2c 21 00    	jmpq   *0x212ca2(%rip)        # 218078 <_GLOBAL_OFFSET_TABLE_+0x90>
    53d6:	68 0f 00 00 00       	pushq  $0xf
    53db:	e9 f0 fe ff ff       	jmpq   52d0 <_init+0x20>

00000000000053e0 <__assert_fail@plt>:
    53e0:	ff 25 9a 2c 21 00    	jmpq   *0x212c9a(%rip)        # 218080 <_GLOBAL_OFFSET_TABLE_+0x98>
    53e6:	68 10 00 00 00       	pushq  $0x10
    53eb:	e9 e0 fe ff ff       	jmpq   52d0 <_init+0x20>

00000000000053f0 <memset@plt>:
    53f0:	ff 25 92 2c 21 00    	jmpq   *0x212c92(%rip)        # 218088 <_GLOBAL_OFFSET_TABLE_+0xa0>
    53f6:	68 11 00 00 00       	pushq  $0x11
    53fb:	e9 d0 fe ff ff       	jmpq   52d0 <_init+0x20>

0000000000005400 <__libc_fork@plt>:
    5400:	ff 25 8a 2c 21 00    	jmpq   *0x212c8a(%rip)        # 218090 <_GLOBAL_OFFSET_TABLE_+0xa8>
    5406:	68 12 00 00 00       	pushq  $0x12
    540b:	e9 c0 fe ff ff       	jmpq   52d0 <_init+0x20>

0000000000005410 <tdelete@plt>:
    5410:	ff 25 82 2c 21 00    	jmpq   *0x212c82(%rip)        # 218098 <_GLOBAL_OFFSET_TABLE_+0xb0>
    5416:	68 13 00 00 00       	pushq  $0x13
    541b:	e9 b0 fe ff ff       	jmpq   52d0 <_init+0x20>

0000000000005420 <__register_atfork@plt>:
    5420:	ff 25 7a 2c 21 00    	jmpq   *0x212c7a(%rip)        # 2180a0 <_GLOBAL_OFFSET_TABLE_+0xb8>
    5426:	68 14 00 00 00       	pushq  $0x14
    542b:	e9 a0 fe ff ff       	jmpq   52d0 <_init+0x20>

0000000000005430 <sched_yield@plt>:
    5430:	ff 25 72 2c 21 00    	jmpq   *0x212c72(%rip)        # 2180a8 <_GLOBAL_OFFSET_TABLE_+0xc0>
    5436:	68 15 00 00 00       	pushq  $0x15
    543b:	e9 90 fe ff ff       	jmpq   52d0 <_init+0x20>

0000000000005440 <_dl_deallocate_tls@plt>:
    5440:	ff 25 6a 2c 21 00    	jmpq   *0x212c6a(%rip)        # 2180b0 <_GLOBAL_OFFSET_TABLE_+0xc8>
    5446:	68 16 00 00 00       	pushq  $0x16
    544b:	e9 80 fe ff ff       	jmpq   52d0 <_init+0x20>

0000000000005450 <__tls_get_addr@plt>:
    5450:	ff 25 62 2c 21 00    	jmpq   *0x212c62(%rip)        # 2180b8 <_GLOBAL_OFFSET_TABLE_+0xd0>
    5456:	68 17 00 00 00       	pushq  $0x17
    545b:	e9 70 fe ff ff       	jmpq   52d0 <_init+0x20>

0000000000005460 <__sched_getparam@plt>:
    5460:	ff 25 5a 2c 21 00    	jmpq   *0x212c5a(%rip)        # 2180c0 <_GLOBAL_OFFSET_TABLE_+0xd8>
    5466:	68 18 00 00 00       	pushq  $0x18
    546b:	e9 60 fe ff ff       	jmpq   52d0 <_init+0x20>

0000000000005470 <_setjmp@plt>:
    5470:	ff 25 52 2c 21 00    	jmpq   *0x212c52(%rip)        # 2180c8 <_GLOBAL_OFFSET_TABLE_+0xe0>
    5476:	68 19 00 00 00       	pushq  $0x19
    547b:	e9 50 fe ff ff       	jmpq   52d0 <_init+0x20>

0000000000005480 <calloc@plt>:
    5480:	ff 25 4a 2c 21 00    	jmpq   *0x212c4a(%rip)        # 2180d0 <_GLOBAL_OFFSET_TABLE_+0xe8>
    5486:	68 1a 00 00 00       	pushq  $0x1a
    548b:	e9 40 fe ff ff       	jmpq   52d0 <_init+0x20>

0000000000005490 <__getdelim@plt>:
    5490:	ff 25 42 2c 21 00    	jmpq   *0x212c42(%rip)        # 2180d8 <_GLOBAL_OFFSET_TABLE_+0xf0>
    5496:	68 1b 00 00 00       	pushq  $0x1b
    549b:	e9 30 fe ff ff       	jmpq   52d0 <_init+0x20>

00000000000054a0 <__getmntent_r@plt>:
    54a0:	ff 25 3a 2c 21 00    	jmpq   *0x212c3a(%rip)        # 2180e0 <_GLOBAL_OFFSET_TABLE_+0xf8>
    54a6:	68 1c 00 00 00       	pushq  $0x1c
    54ab:	e9 20 fe ff ff       	jmpq   52d0 <_init+0x20>

00000000000054b0 <__fxstat64@plt>:
    54b0:	ff 25 32 2c 21 00    	jmpq   *0x212c32(%rip)        # 2180e8 <_GLOBAL_OFFSET_TABLE_+0x100>
    54b6:	68 1d 00 00 00       	pushq  $0x1d
    54bb:	e9 10 fe ff ff       	jmpq   52d0 <_init+0x20>

00000000000054c0 <strcmp@plt>:
    54c0:	ff 25 2a 2c 21 00    	jmpq   *0x212c2a(%rip)        # 2180f0 <_GLOBAL_OFFSET_TABLE_+0x108>
    54c6:	68 1e 00 00 00       	pushq  $0x1e
    54cb:	e9 00 fe ff ff       	jmpq   52d0 <_init+0x20>

00000000000054d0 <__libc_thread_freeres@plt>:
    54d0:	ff 25 22 2c 21 00    	jmpq   *0x212c22(%rip)        # 2180f8 <_GLOBAL_OFFSET_TABLE_+0x110>
    54d6:	68 1f 00 00 00       	pushq  $0x1f
    54db:	e9 f0 fd ff ff       	jmpq   52d0 <_init+0x20>

00000000000054e0 <__endmntent@plt>:
    54e0:	ff 25 1a 2c 21 00    	jmpq   *0x212c1a(%rip)        # 218100 <_GLOBAL_OFFSET_TABLE_+0x118>
    54e6:	68 20 00 00 00       	pushq  $0x20
    54eb:	e9 e0 fd ff ff       	jmpq   52d0 <_init+0x20>

00000000000054f0 <memcpy@plt>:
    54f0:	ff 25 12 2c 21 00    	jmpq   *0x212c12(%rip)        # 218108 <_GLOBAL_OFFSET_TABLE_+0x120>
    54f6:	68 21 00 00 00       	pushq  $0x21
    54fb:	e9 d0 fd ff ff       	jmpq   52d0 <_init+0x20>

0000000000005500 <prctl@plt>:
    5500:	ff 25 0a 2c 21 00    	jmpq   *0x212c0a(%rip)        # 218110 <_GLOBAL_OFFSET_TABLE_+0x128>
    5506:	68 22 00 00 00       	pushq  $0x22
    550b:	e9 c0 fd ff ff       	jmpq   52d0 <_init+0x20>

0000000000005510 <__libc_current_sigrtmax_private@plt>:
    5510:	ff 25 02 2c 21 00    	jmpq   *0x212c02(%rip)        # 218118 <_GLOBAL_OFFSET_TABLE_+0x130>
    5516:	68 23 00 00 00       	pushq  $0x23
    551b:	e9 b0 fd ff ff       	jmpq   52d0 <_init+0x20>

0000000000005520 <__sched_setscheduler@plt>:
    5520:	ff 25 fa 2b 21 00    	jmpq   *0x212bfa(%rip)        # 218120 <_GLOBAL_OFFSET_TABLE_+0x138>
    5526:	68 24 00 00 00       	pushq  $0x24
    552b:	e9 a0 fd ff ff       	jmpq   52d0 <_init+0x20>

0000000000005530 <__libc_dlopen_mode@plt>:
    5530:	ff 25 f2 2b 21 00    	jmpq   *0x212bf2(%rip)        # 218128 <_GLOBAL_OFFSET_TABLE_+0x140>
    5536:	68 25 00 00 00       	pushq  $0x25
    553b:	e9 90 fd ff ff       	jmpq   52d0 <_init+0x20>

0000000000005540 <__getpagesize@plt>:
    5540:	ff 25 ea 2b 21 00    	jmpq   *0x212bea(%rip)        # 218130 <_GLOBAL_OFFSET_TABLE_+0x148>
    5546:	68 26 00 00 00       	pushq  $0x26
    554b:	e9 80 fd ff ff       	jmpq   52d0 <_init+0x20>

0000000000005550 <malloc@plt>:
    5550:	ff 25 e2 2b 21 00    	jmpq   *0x212be2(%rip)        # 218138 <_GLOBAL_OFFSET_TABLE_+0x150>
    5556:	68 27 00 00 00       	pushq  $0x27
    555b:	e9 70 fd ff ff       	jmpq   52d0 <_init+0x20>

0000000000005560 <sched_get_priority_min@plt>:
    5560:	ff 25 da 2b 21 00    	jmpq   *0x212bda(%rip)        # 218140 <_GLOBAL_OFFSET_TABLE_+0x158>
    5566:	68 28 00 00 00       	pushq  $0x28
    556b:	e9 60 fd ff ff       	jmpq   52d0 <_init+0x20>

0000000000005570 <_dl_make_stack_executable@plt>:
    5570:	ff 25 d2 2b 21 00    	jmpq   *0x212bd2(%rip)        # 218148 <_GLOBAL_OFFSET_TABLE_+0x160>
    5576:	68 29 00 00 00       	pushq  $0x29
    557b:	e9 50 fd ff ff       	jmpq   52d0 <_init+0x20>

0000000000005580 <__libc_pthread_init@plt>:
    5580:	ff 25 ca 2b 21 00    	jmpq   *0x212bca(%rip)        # 218150 <_GLOBAL_OFFSET_TABLE_+0x168>
    5586:	68 2a 00 00 00       	pushq  $0x2a
    558b:	e9 40 fd ff ff       	jmpq   52d0 <_init+0x20>

0000000000005590 <__ctype_init@plt>:
    5590:	ff 25 c2 2b 21 00    	jmpq   *0x212bc2(%rip)        # 218158 <_GLOBAL_OFFSET_TABLE_+0x170>
    5596:	68 2b 00 00 00       	pushq  $0x2b
    559b:	e9 30 fd ff ff       	jmpq   52d0 <_init+0x20>

00000000000055a0 <sscanf@plt>:
    55a0:	ff 25 ba 2b 21 00    	jmpq   *0x212bba(%rip)        # 218160 <_GLOBAL_OFFSET_TABLE_+0x178>
    55a6:	68 2c 00 00 00       	pushq  $0x2c
    55ab:	e9 20 fd ff ff       	jmpq   52d0 <_init+0x20>

00000000000055b0 <realloc@plt>:
    55b0:	ff 25 b2 2b 21 00    	jmpq   *0x212bb2(%rip)        # 218168 <_GLOBAL_OFFSET_TABLE_+0x180>
    55b6:	68 2d 00 00 00       	pushq  $0x2d
    55bb:	e9 10 fd ff ff       	jmpq   52d0 <_init+0x20>

00000000000055c0 <__libc_dlsym@plt>:
    55c0:	ff 25 aa 2b 21 00    	jmpq   *0x212baa(%rip)        # 218170 <_GLOBAL_OFFSET_TABLE_+0x188>
    55c6:	68 2e 00 00 00       	pushq  $0x2e
    55cb:	e9 00 fd ff ff       	jmpq   52d0 <_init+0x20>

00000000000055d0 <tsearch@plt>:
    55d0:	ff 25 a2 2b 21 00    	jmpq   *0x212ba2(%rip)        # 218178 <_GLOBAL_OFFSET_TABLE_+0x190>
    55d6:	68 2f 00 00 00       	pushq  $0x2f
    55db:	e9 f0 fc ff ff       	jmpq   52d0 <_init+0x20>

00000000000055e0 <munmap@plt>:
    55e0:	ff 25 9a 2b 21 00    	jmpq   *0x212b9a(%rip)        # 218180 <_GLOBAL_OFFSET_TABLE_+0x198>
    55e6:	68 30 00 00 00       	pushq  $0x30
    55eb:	e9 e0 fc ff ff       	jmpq   52d0 <_init+0x20>

00000000000055f0 <mempcpy@plt>:
    55f0:	ff 25 92 2b 21 00    	jmpq   *0x212b92(%rip)        # 218188 <_GLOBAL_OFFSET_TABLE_+0x1a0>
    55f6:	68 31 00 00 00       	pushq  $0x31
    55fb:	e9 d0 fc ff ff       	jmpq   52d0 <_init+0x20>

0000000000005600 <__libc_current_sigrtmin_private@plt>:
    5600:	ff 25 8a 2b 21 00    	jmpq   *0x212b8a(%rip)        # 218190 <_GLOBAL_OFFSET_TABLE_+0x1a8>
    5606:	68 32 00 00 00       	pushq  $0x32
    560b:	e9 c0 fc ff ff       	jmpq   52d0 <_init+0x20>

0000000000005610 <twalk@plt>:
    5610:	ff 25 82 2b 21 00    	jmpq   *0x212b82(%rip)        # 218198 <_GLOBAL_OFFSET_TABLE_+0x1b0>
    5616:	68 33 00 00 00       	pushq  $0x33
    561b:	e9 b0 fc ff ff       	jmpq   52d0 <_init+0x20>

0000000000005620 <__madvise@plt>:
    5620:	ff 25 7a 2b 21 00    	jmpq   *0x212b7a(%rip)        # 2181a0 <_GLOBAL_OFFSET_TABLE_+0x1b8>
    5626:	68 34 00 00 00       	pushq  $0x34
    562b:	e9 a0 fc ff ff       	jmpq   52d0 <_init+0x20>

0000000000005630 <__libc_dl_error_tsd@plt>:
    5630:	ff 25 72 2b 21 00    	jmpq   *0x212b72(%rip)        # 2181a8 <_GLOBAL_OFFSET_TABLE_+0x1c0>
    5636:	68 35 00 00 00       	pushq  $0x35
    563b:	e9 90 fc ff ff       	jmpq   52d0 <_init+0x20>

0000000000005640 <mprotect@plt>:
    5640:	ff 25 6a 2b 21 00    	jmpq   *0x212b6a(%rip)        # 2181b0 <_GLOBAL_OFFSET_TABLE_+0x1c8>
    5646:	68 36 00 00 00       	pushq  $0x36
    564b:	e9 80 fc ff ff       	jmpq   52d0 <_init+0x20>

0000000000005650 <fopen@plt>:
    5650:	ff 25 62 2b 21 00    	jmpq   *0x212b62(%rip)        # 2181b8 <_GLOBAL_OFFSET_TABLE_+0x1d0>
    5656:	68 37 00 00 00       	pushq  $0x37
    565b:	e9 70 fc ff ff       	jmpq   52d0 <_init+0x20>

0000000000005660 <_dl_allocate_tls@plt>:
    5660:	ff 25 5a 2b 21 00    	jmpq   *0x212b5a(%rip)        # 2181c0 <_GLOBAL_OFFSET_TABLE_+0x1d8>
    5666:	68 38 00 00 00       	pushq  $0x38
    566b:	e9 60 fc ff ff       	jmpq   52d0 <_init+0x20>

0000000000005670 <__setmntent@plt>:
    5670:	ff 25 52 2b 21 00    	jmpq   *0x212b52(%rip)        # 2181c8 <_GLOBAL_OFFSET_TABLE_+0x1e0>
    5676:	68 39 00 00 00       	pushq  $0x39
    567b:	e9 50 fc ff ff       	jmpq   52d0 <_init+0x20>

0000000000005680 <sched_setparam@plt>:
    5680:	ff 25 4a 2b 21 00    	jmpq   *0x212b4a(%rip)        # 2181d0 <_GLOBAL_OFFSET_TABLE_+0x1e8>
    5686:	68 3a 00 00 00       	pushq  $0x3a
    568b:	e9 40 fc ff ff       	jmpq   52d0 <_init+0x20>

0000000000005690 <_dl_get_tls_static_info@plt>:
    5690:	ff 25 42 2b 21 00    	jmpq   *0x212b42(%rip)        # 2181d8 <_GLOBAL_OFFSET_TABLE_+0x1f0>
    5696:	68 3b 00 00 00       	pushq  $0x3b
    569b:	e9 30 fc ff ff       	jmpq   52d0 <_init+0x20>

00000000000056a0 <sprintf@plt>:
    56a0:	ff 25 3a 2b 21 00    	jmpq   *0x212b3a(%rip)        # 2181e0 <_GLOBAL_OFFSET_TABLE_+0x1f8>
    56a6:	68 3c 00 00 00       	pushq  $0x3c
    56ab:	e9 20 fc ff ff       	jmpq   52d0 <_init+0x20>

00000000000056b0 <link@plt>:
    56b0:	ff 25 32 2b 21 00    	jmpq   *0x212b32(%rip)        # 2181e8 <_GLOBAL_OFFSET_TABLE_+0x200>
    56b6:	68 3d 00 00 00       	pushq  $0x3d
    56bb:	e9 10 fc ff ff       	jmpq   52d0 <_init+0x20>

00000000000056c0 <exit@plt>:
    56c0:	ff 25 2a 2b 21 00    	jmpq   *0x212b2a(%rip)        # 2181f0 <_GLOBAL_OFFSET_TABLE_+0x208>
    56c6:	68 3e 00 00 00       	pushq  $0x3e
    56cb:	e9 00 fc ff ff       	jmpq   52d0 <_init+0x20>

00000000000056d0 <sched_get_priority_max@plt>:
    56d0:	ff 25 22 2b 21 00    	jmpq   *0x212b22(%rip)        # 2181f8 <_GLOBAL_OFFSET_TABLE_+0x210>
    56d6:	68 3f 00 00 00       	pushq  $0x3f
    56db:	e9 f0 fb ff ff       	jmpq   52d0 <_init+0x20>

00000000000056e0 <getrlimit@plt>:
    56e0:	ff 25 1a 2b 21 00    	jmpq   *0x212b1a(%rip)        # 218200 <_GLOBAL_OFFSET_TABLE_+0x218>
    56e6:	68 40 00 00 00       	pushq  $0x40
    56eb:	e9 e0 fb ff ff       	jmpq   52d0 <_init+0x20>

00000000000056f0 <_dl_allocate_tls_init@plt>:
    56f0:	ff 25 12 2b 21 00    	jmpq   *0x212b12(%rip)        # 218208 <_GLOBAL_OFFSET_TABLE_+0x220>
    56f6:	68 41 00 00 00       	pushq  $0x41
    56fb:	e9 d0 fb ff ff       	jmpq   52d0 <_init+0x20>

0000000000005700 <__libc_allocate_rtsig_private@plt>:
    5700:	ff 25 0a 2b 21 00    	jmpq   *0x212b0a(%rip)        # 218210 <_GLOBAL_OFFSET_TABLE_+0x228>
    5706:	68 42 00 00 00       	pushq  $0x42
    570b:	e9 c0 fb ff ff       	jmpq   52d0 <_init+0x20>

0000000000005710 <__libc_longjmp@plt>:
    5710:	ff 25 02 2b 21 00    	jmpq   *0x212b02(%rip)        # 218218 <_GLOBAL_OFFSET_TABLE_+0x230>
    5716:	68 43 00 00 00       	pushq  $0x43
    571b:	e9 b0 fb ff ff       	jmpq   52d0 <_init+0x20>

0000000000005720 <__cxa_finalize@plt>:
    5720:	ff 25 fa 2a 21 00    	jmpq   *0x212afa(%rip)        # 218220 <_GLOBAL_OFFSET_TABLE_+0x238>
    5726:	68 44 00 00 00       	pushq  $0x44
    572b:	e9 a0 fb ff ff       	jmpq   52d0 <_init+0x20>

0000000000005730 <mktemp@plt>:
    5730:	ff 25 f2 2a 21 00    	jmpq   *0x212af2(%rip)        # 218228 <_GLOBAL_OFFSET_TABLE_+0x240>
    5736:	68 45 00 00 00       	pushq  $0x45
    573b:	e9 90 fb ff ff       	jmpq   52d0 <_init+0x20>

Disassembly of section .text:

0000000000005740 <__do_global_dtors_aux>:
    5740:	55                   	push   %rbp
    5741:	80 3d 38 2b 21 00 00 	cmpb   $0x0,0x212b38(%rip)        # 218280 <completed.6341>
    5748:	48 89 e5             	mov    %rsp,%rbp
    574b:	41 54                	push   %r12
    574d:	53                   	push   %rbx
    574e:	75 62                	jne    57b2 <__do_global_dtors_aux+0x72>
    5750:	48 83 3d 78 28 21 00 	cmpq   $0x0,0x212878(%rip)        # 217fd0 <_DYNAMIC+0x240>
    5757:	00 
    5758:	74 0c                	je     5766 <__do_global_dtors_aux+0x26>
    575a:	48 8b 3d cf 2a 21 00 	mov    0x212acf(%rip),%rdi        # 218230 <__dso_handle>
    5761:	e8 ba ff ff ff       	callq  5720 <__cxa_finalize@plt>
    5766:	48 8d 1d 5b 24 21 00 	lea    0x21245b(%rip),%rbx        # 217bc8 <__DTOR_END__>
    576d:	4c 8d 25 4c 24 21 00 	lea    0x21244c(%rip),%r12        # 217bc0 <__DTOR_LIST__>
    5774:	48 8b 05 0d 2b 21 00 	mov    0x212b0d(%rip),%rax        # 218288 <dtor_idx.6343>
    577b:	4c 29 e3             	sub    %r12,%rbx
    577e:	48 c1 fb 03          	sar    $0x3,%rbx
    5782:	48 83 eb 01          	sub    $0x1,%rbx
    5786:	48 39 d8             	cmp    %rbx,%rax
    5789:	73 20                	jae    57ab <__do_global_dtors_aux+0x6b>
    578b:	0f 1f 44 00 00       	nopl   0x0(%rax,%rax,1)
    5790:	48 83 c0 01          	add    $0x1,%rax
    5794:	48 89 05 ed 2a 21 00 	mov    %rax,0x212aed(%rip)        # 218288 <dtor_idx.6343>
    579b:	41 ff 14 c4          	callq  *(%r12,%rax,8)
    579f:	48 8b 05 e2 2a 21 00 	mov    0x212ae2(%rip),%rax        # 218288 <dtor_idx.6343>
    57a6:	48 39 d8             	cmp    %rbx,%rax
    57a9:	72 e5                	jb     5790 <__do_global_dtors_aux+0x50>
    57ab:	c6 05 ce 2a 21 00 01 	movb   $0x1,0x212ace(%rip)        # 218280 <completed.6341>
    57b2:	5b                   	pop    %rbx
    57b3:	41 5c                	pop    %r12
    57b5:	c9                   	leaveq 
    57b6:	c3                   	retq   
    57b7:	66 0f 1f 84 00 00 00 	nopw   0x0(%rax,%rax,1)
    57be:	00 00 

00000000000057c0 <frame_dummy>:
    57c0:	55                   	push   %rbp
    57c1:	48 83 3d 07 24 21 00 	cmpq   $0x0,0x212407(%rip)        # 217bd0 <__JCR_END__>
    57c8:	00 
    57c9:	48 89 e5             	mov    %rsp,%rbp
    57cc:	74 1a                	je     57e8 <frame_dummy+0x28>
    57ce:	48 8b 05 eb 27 21 00 	mov    0x2127eb(%rip),%rax        # 217fc0 <_DYNAMIC+0x230>
    57d5:	48 85 c0             	test   %rax,%rax
    57d8:	74 0e                	je     57e8 <frame_dummy+0x28>
    57da:	48 8d 3d ef 23 21 00 	lea    0x2123ef(%rip),%rdi        # 217bd0 <__JCR_END__>
    57e1:	c9                   	leaveq 
    57e2:	ff e0                	jmpq   *%rax
    57e4:	0f 1f 40 00          	nopl   0x0(%rax)
    57e8:	c9                   	leaveq 
    57e9:	c3                   	retq   
    57ea:	90                   	nop
    57eb:	90                   	nop
    57ec:	90                   	nop
    57ed:	90                   	nop
    57ee:	90                   	nop
    57ef:	90                   	nop

00000000000057f0 <__nptl_set_robust>:
    57f0:	55                   	push   %rbp
    57f1:	be 18 00 00 00       	mov    $0x18,%esi
    57f6:	48 81 c7 e0 02 00 00 	add    $0x2e0,%rdi
    57fd:	b8 11 01 00 00       	mov    $0x111,%eax
    5802:	48 89 e5             	mov    %rsp,%rbp
    5805:	0f 05                	syscall 
    5807:	c9                   	leaveq 
    5808:	c3                   	retq   
    5809:	0f 1f 80 00 00 00 00 	nopl   0x0(%rax)

0000000000005810 <__pthread_get_minstack>:
    5810:	48 8b 05 91 27 21 00 	mov    0x212791(%rip),%rax        # 217fa8 <_DYNAMIC+0x218>
    5817:	55                   	push   %rbp
    5818:	48 89 e5             	mov    %rsp,%rbp
    581b:	48 8b 40 18          	mov    0x18(%rax),%rax
    581f:	48 03 05 1a 6b 21 00 	add    0x216b1a(%rip),%rax        # 21c340 <__static_tls_size>
    5826:	48 05 00 40 00 00    	add    $0x4000,%rax
    582c:	48 03 47 10          	add    0x10(%rdi),%rax
    5830:	c9                   	leaveq 
    5831:	c3                   	retq   
    5832:	66 66 66 66 66 2e 0f 	data32 data32 data32 data32 nopw %cs:0x0(%rax,%rax,1)
    5839:	1f 84 00 00 00 00 00 

0000000000005840 <__pthread_initialize_minimal>:
    5840:	55                   	push   %rbp
    5841:	b8 da 00 00 00       	mov    $0xda,%eax
    5846:	64 4c 8b 0c 25 10 00 	mov    %fs:0x10,%r9
    584d:	00 00 
    584f:	48 89 e5             	mov    %rsp,%rbp
    5852:	41 55                	push   %r13
    5854:	49 8d b9 d0 02 00 00 	lea    0x2d0(%r9),%rdi
    585b:	41 54                	push   %r12
    585d:	53                   	push   %rbx
    585e:	48 81 ec c8 00 00 00 	sub    $0xc8,%rsp
    5865:	0f 05                	syscall 
    5867:	41 89 81 d0 02 00 00 	mov    %eax,0x2d0(%r9)
    586e:	41 89 81 d4 02 00 00 	mov    %eax,0x2d4(%r9)
    5875:	49 8d 81 10 03 00 00 	lea    0x310(%r9),%rax
    587c:	64 48 89 04 25 10 05 	mov    %rax,%fs:0x510
    5883:	00 00 
    5885:	64 c6 04 25 12 06 00 	movb   $0x1,%fs:0x612
    588c:	00 01 
    588e:	48 8b 1d 33 27 21 00 	mov    0x212733(%rip),%rbx        # 217fc8 <_DYNAMIC+0x238>
    5895:	48 8b 83 68 09 00 00 	mov    0x968(%rbx),%rax
    589c:	64 48 89 04 25 20 06 	mov    %rax,%fs:0x620
    58a3:	00 00 
    58a5:	49 8d b9 e0 02 00 00 	lea    0x2e0(%r9),%rdi
    58ac:	49 c7 81 e8 02 00 00 	movq   $0xffffffffffffffe0,0x2e8(%r9)
    58b3:	e0 ff ff ff 
    58b7:	be 18 00 00 00       	mov    $0x18,%esi
    58bc:	b8 11 01 00 00       	mov    $0x111,%eax
    58c1:	49 89 b9 d8 02 00 00 	mov    %rdi,0x2d8(%r9)
    58c8:	49 89 b9 e0 02 00 00 	mov    %rdi,0x2e0(%r9)
    58cf:	0f 05                	syscall 
    58d1:	3d 00 f0 ff ff       	cmp    $0xfffff000,%eax
    58d6:	76 0a                	jbe    58e2 <__pthread_initialize_minimal+0xa2>
    58d8:	c7 05 56 6a 21 00 ff 	movl   $0xffffffff,0x216a56(%rip)        # 21c338 <__set_robust_list_avail>
    58df:	ff ff ff 
    58e2:	c7 45 dc 00 00 00 00 	movl   $0x0,-0x24(%rbp)
    58e9:	ba 01 00 00 00       	mov    $0x1,%edx
    58ee:	be 81 00 00 00       	mov    $0x81,%esi
    58f3:	48 8d 7d dc          	lea    -0x24(%rbp),%rdi
    58f7:	b8 ca 00 00 00       	mov    $0xca,%eax
    58fc:	0f 05                	syscall 
    58fe:	3d 00 f0 ff ff       	cmp    $0xfffff000,%eax
    5903:	89 45 dc             	mov    %eax,-0x24(%rbp)
    5906:	77 0c                	ja     5914 <__pthread_initialize_minimal+0xd4>
    5908:	64 c7 04 25 48 00 00 	movl   $0x80,%fs:0x48
    590f:	00 80 00 00 00 
    5914:	64 8b 04 25 48 00 00 	mov    %fs:0x48,%eax
    591b:	00 
    591c:	85 c0                	test   %eax,%eax
    591e:	74 42                	je     5962 <__pthread_initialize_minimal+0x122>
    5920:	c7 45 dc 00 00 00 00 	movl   $0x0,-0x24(%rbp)
    5927:	45 31 c0             	xor    %r8d,%r8d
    592a:	45 31 d2             	xor    %r10d,%r10d
    592d:	ba 01 00 00 00       	mov    $0x1,%edx
    5932:	be 89 01 00 00       	mov    $0x189,%esi
    5937:	48 8d 7d dc          	lea    -0x24(%rbp),%rdi
    593b:	b8 ca 00 00 00       	mov    $0xca,%eax
    5940:	0f 05                	syscall 
    5942:	3d 00 f0 ff ff       	cmp    $0xfffff000,%eax
    5947:	89 45 dc             	mov    %eax,-0x24(%rbp)
    594a:	0f 86 89 02 00 00    	jbe    5bd9 <__pthread_initialize_minimal+0x399>
    5950:	83 f8 da             	cmp    $0xffffffda,%eax
    5953:	74 0d                	je     5962 <__pthread_initialize_minimal+0x122>
    5955:	48 8b 05 7c 26 21 00 	mov    0x21267c(%rip),%rax        # 217fd8 <_DYNAMIC+0x248>
    595c:	c7 00 01 00 00 00    	movl   $0x1,(%rax)
    5962:	48 8b 05 37 26 21 00 	mov    0x212637(%rip),%rax        # 217fa0 <_DYNAMIC+0x210>
    5969:	48 8b 00             	mov    (%rax),%rax
    596c:	64 48 89 04 25 98 06 	mov    %rax,%fs:0x698
    5973:	00 00 
    5975:	48 8d 05 24 69 21 00 	lea    0x216924(%rip),%rax        # 21c2a0 <__GI___stack_user>
    597c:	48 8d 15 1d 69 21 00 	lea    0x21691d(%rip),%rdx        # 21c2a0 <__GI___stack_user>
    5983:	48 89 05 16 69 21 00 	mov    %rax,0x216916(%rip)        # 21c2a0 <__GI___stack_user>
    598a:	49 8d 81 c0 02 00 00 	lea    0x2c0(%r9),%rax
    5991:	49 89 91 c0 02 00 00 	mov    %rdx,0x2c0(%r9)
    5998:	49 89 91 c8 02 00 00 	mov    %rdx,0x2c8(%r9)
    599f:	48 89 05 02 69 21 00 	mov    %rax,0x216902(%rip)        # 21c2a8 <__GI___stack_user+0x8>
    59a6:	48 89 05 f3 68 21 00 	mov    %rax,0x2168f3(%rip)        # 21c2a0 <__GI___stack_user>
    59ad:	0f b6 05 dc 28 21 00 	movzbl 0x2128dc(%rip),%eax        # 218290 <__nptl_initial_report_events>
    59b4:	64 88 04 25 11 06 00 	mov    %al,%fs:0x611
    59bb:	00 
    59bc:	4c 8d ad 20 ff ff ff 	lea    -0xe0(%rbp),%r13
    59c3:	48 8d 05 36 02 00 00 	lea    0x236(%rip),%rax        # 5c00 <sigcancel_handler>
    59ca:	b9 10 00 00 00       	mov    $0x10,%ecx
    59cf:	31 d2                	xor    %edx,%edx
    59d1:	c7 45 a8 04 00 00 00 	movl   $0x4,-0x58(%rbp)
    59d8:	4d 8d 65 08          	lea    0x8(%r13),%r12
    59dc:	48 89 85 20 ff ff ff 	mov    %rax,-0xe0(%rbp)
    59e3:	31 c0                	xor    %eax,%eax
    59e5:	4c 89 ee             	mov    %r13,%rsi
    59e8:	4c 89 e7             	mov    %r12,%rdi
    59eb:	f3 48 ab             	rep stos %rax,%es:(%rdi)
    59ee:	bf 20 00 00 00       	mov    $0x20,%edi
    59f3:	e8 48 9d 00 00       	callq  f740 <__libc_sigaction>
    59f8:	48 8d 15 91 02 00 00 	lea    0x291(%rip),%rdx        # 5c90 <sighandler_setxid>
    59ff:	4c 89 ee             	mov    %r13,%rsi
    5a02:	bf 21 00 00 00       	mov    $0x21,%edi
    5a07:	c7 45 a8 04 00 00 10 	movl   $0x10000004,-0x58(%rbp)
    5a0e:	48 89 95 20 ff ff ff 	mov    %rdx,-0xe0(%rbp)
    5a15:	31 d2                	xor    %edx,%edx
    5a17:	e8 24 9d 00 00       	callq  f740 <__libc_sigaction>
    5a1c:	48 b8 00 00 00 80 01 	movabs $0x180000000,%rax
    5a23:	00 00 00 
    5a26:	41 ba 08 00 00 00    	mov    $0x8,%r10d
    5a2c:	48 09 85 28 ff ff ff 	or     %rax,-0xd8(%rbp)
    5a33:	31 d2                	xor    %edx,%edx
    5a35:	4c 89 e6             	mov    %r12,%rsi
    5a38:	bf 01 00 00 00       	mov    $0x1,%edi
    5a3d:	b8 0e 00 00 00       	mov    $0xe,%eax
    5a42:	0f 05                	syscall 
    5a44:	48 8d 3d f5 68 21 00 	lea    0x2168f5(%rip),%rdi        # 21c340 <__static_tls_size>
    5a4b:	48 8d 75 d0          	lea    -0x30(%rbp),%rsi
    5a4f:	e8 3c fc ff ff       	callq  5690 <_dl_get_tls_static_info@plt>
    5a54:	48 8b 4d d0          	mov    -0x30(%rbp),%rcx
    5a58:	48 83 f9 0f          	cmp    $0xf,%rcx
    5a5c:	48 8d 41 ff          	lea    -0x1(%rcx),%rax
    5a60:	77 12                	ja     5a74 <__pthread_initialize_minimal+0x234>
    5a62:	48 c7 45 d0 10 00 00 	movq   $0x10,-0x30(%rbp)
    5a69:	00 
    5a6a:	b8 0f 00 00 00       	mov    $0xf,%eax
    5a6f:	b9 10 00 00 00       	mov    $0x10,%ecx
    5a74:	48 89 05 b5 68 21 00 	mov    %rax,0x2168b5(%rip)        # 21c330 <__static_tls_align_m1>
    5a7b:	48 8b 05 be 68 21 00 	mov    0x2168be(%rip),%rax        # 21c340 <__static_tls_size>
    5a82:	31 d2                	xor    %edx,%edx
    5a84:	48 8d 75 c0          	lea    -0x40(%rbp),%rsi
    5a88:	bf 03 00 00 00       	mov    $0x3,%edi
    5a8d:	48 8d 44 01 ff       	lea    -0x1(%rcx,%rax,1),%rax
    5a92:	48 f7 f1             	div    %rcx
    5a95:	48 0f af c1          	imul   %rcx,%rax
    5a99:	48 89 05 a0 68 21 00 	mov    %rax,0x2168a0(%rip)        # 21c340 <__static_tls_size>
    5aa0:	e8 3b fc ff ff       	callq  56e0 <getrlimit@plt>
    5aa5:	85 c0                	test   %eax,%eax
    5aa7:	75 1f                	jne    5ac8 <__pthread_initialize_minimal+0x288>
    5aa9:	48 8b 45 c0          	mov    -0x40(%rbp),%rax
    5aad:	48 83 f8 ff          	cmp    $0xffffffffffffffff,%rax
    5ab1:	74 15                	je     5ac8 <__pthread_initialize_minimal+0x288>
    5ab3:	48 3d ff 3f 00 00    	cmp    $0x3fff,%rax
    5ab9:	ba 00 40 00 00       	mov    $0x4000,%edx
    5abe:	48 0f 46 c2          	cmovbe %rdx,%rax
    5ac2:	eb 09                	jmp    5acd <__pthread_initialize_minimal+0x28d>
    5ac4:	0f 1f 40 00          	nopl   0x0(%rax)
    5ac8:	b8 00 00 20 00       	mov    $0x200000,%eax
    5acd:	48 8b 15 d4 24 21 00 	mov    0x2124d4(%rip),%rdx        # 217fa8 <_DYNAMIC+0x218>
    5ad4:	48 8b 4a 18          	mov    0x18(%rdx),%rcx
    5ad8:	48 89 ca             	mov    %rcx,%rdx
    5adb:	48 03 15 5e 68 21 00 	add    0x21685e(%rip),%rdx        # 21c340 <__static_tls_size>
    5ae2:	48 81 c2 00 08 00 00 	add    $0x800,%rdx
    5ae9:	48 39 c2             	cmp    %rax,%rdx
    5aec:	48 0f 46 d0          	cmovbe %rax,%rdx
    5af0:	48 8d 44 0a ff       	lea    -0x1(%rdx,%rcx,1),%rax
    5af5:	48 f7 d9             	neg    %rcx
    5af8:	48 21 c8             	and    %rcx,%rax
    5afb:	48 89 45 c0          	mov    %rax,-0x40(%rbp)
    5aff:	48 89 05 4a 68 21 00 	mov    %rax,0x21684a(%rip)        # 21c350 <__default_stacksize>
    5b06:	e8 25 fb ff ff       	callq  5630 <__libc_dl_error_tsd@plt>
    5b0b:	49 89 c4             	mov    %rax,%r12
    5b0e:	ff 93 90 09 00 00    	callq  *0x990(%rbx)
    5b14:	48 8b 00             	mov    (%rax),%rax
    5b17:	48 8d 15 b2 50 00 00 	lea    0x50b2(%rip),%rdx        # abd0 <__pthread_mutex_unlock>
    5b1e:	48 89 93 08 0f 00 00 	mov    %rdx,0xf08(%rbx)
    5b25:	49 89 04 24          	mov    %rax,(%r12)
    5b29:	48 8b 05 88 24 21 00 	mov    0x212488(%rip),%rax        # 217fb8 <_DYNAMIC+0x228>
    5b30:	44 8b a3 0c 09 00 00 	mov    0x90c(%rbx),%r12d
    5b37:	c7 83 0c 09 00 00 00 	movl   $0x0,0x90c(%rbx)
    5b3e:	00 00 00 
    5b41:	48 89 83 90 09 00 00 	mov    %rax,0x990(%rbx)
    5b48:	48 8d 05 31 3a 00 00 	lea    0x3a31(%rip),%rax        # 9580 <__pthread_mutex_lock>
    5b4f:	45 85 e4             	test   %r12d,%r12d
    5b52:	48 89 83 00 0f 00 00 	mov    %rax,0xf00(%rbx)
    5b59:	74 1b                	je     5b76 <__pthread_initialize_minimal+0x336>
    5b5b:	4c 8d ab 08 09 00 00 	lea    0x908(%rbx),%r13
    5b62:	66 0f 1f 44 00 00    	nopw   0x0(%rax,%rax,1)
    5b68:	4c 89 ef             	mov    %r13,%rdi
    5b6b:	e8 10 3a 00 00       	callq  9580 <__pthread_mutex_lock>
    5b70:	41 83 ec 01          	sub    $0x1,%r12d
    5b74:	75 f2                	jne    5b68 <__pthread_initialize_minimal+0x328>
    5b76:	48 8d 05 f3 0d 00 00 	lea    0xdf3(%rip),%rax        # 6970 <__make_stacks_executable>
    5b7d:	48 8d 15 9c 0c 00 00 	lea    0xc9c(%rip),%rdx        # 6820 <__pthread_init_static_tls>
    5b84:	48 8d 35 95 03 00 00 	lea    0x395(%rip),%rsi        # 5f20 <__reclaim_stacks>
    5b8b:	48 8d 3d ee 67 21 00 	lea    0x2167ee(%rip),%rdi        # 21c380 <__fork_generation>
    5b92:	48 89 83 10 0f 00 00 	mov    %rax,0xf10(%rbx)
    5b99:	48 8d 05 a0 07 00 00 	lea    0x7a0(%rip),%rax        # 6340 <__wait_lookup_done>
    5ba0:	48 89 93 60 0f 00 00 	mov    %rdx,0xf60(%rbx)
    5ba7:	48 8d 15 32 20 21 00 	lea    0x212032(%rip),%rdx        # 217be0 <pthread_functions>
    5bae:	48 89 83 68 0f 00 00 	mov    %rax,0xf68(%rbx)
    5bb5:	e8 c6 f9 ff ff       	callq  5580 <__libc_pthread_init@plt>
    5bba:	c7 05 98 67 21 00 01 	movl   $0x1,0x216798(%rip)        # 21c35c <__is_smp>
    5bc1:	00 00 00 
    5bc4:	48 89 05 9d 67 21 00 	mov    %rax,0x21679d(%rip)        # 21c368 <__libc_multiple_threads_ptr>
    5bcb:	48 81 c4 c8 00 00 00 	add    $0xc8,%rsp
    5bd2:	5b                   	pop    %rbx
    5bd3:	41 5c                	pop    %r12
    5bd5:	41 5d                	pop    %r13
    5bd7:	c9                   	leaveq 
    5bd8:	c3                   	retq   
    5bd9:	48 8d 0d 80 b9 00 00 	lea    0xb980(%rip),%rcx        # 11560 <__PRETTY_FUNCTION__.10016>
    5be0:	48 8d 35 19 b9 00 00 	lea    0xb919(%rip),%rsi        # 11500 <_fini+0x24>
    5be7:	48 8d 3d 2a b9 00 00 	lea    0xb92a(%rip),%rdi        # 11518 <nptl_version+0xc>
    5bee:	ba 5d 01 00 00       	mov    $0x15d,%edx
    5bf3:	e8 e8 f7 ff ff       	callq  53e0 <__assert_fail@plt>
    5bf8:	0f 1f 84 00 00 00 00 	nopl   0x0(%rax,%rax,1)
    5bff:	00 

0000000000005c00 <sigcancel_handler>:
    5c00:	55                   	push   %rbp
    5c01:	48 89 e5             	mov    %rsp,%rbp
    5c04:	64 8b 04 25 d4 02 00 	mov    %fs:0x2d4,%eax
    5c0b:	00 
    5c0c:	83 ff 20             	cmp    $0x20,%edi
    5c0f:	74 07                	je     5c18 <sigcancel_handler+0x18>
    5c11:	c9                   	leaveq 
    5c12:	c3                   	retq   
    5c13:	0f 1f 44 00 00       	nopl   0x0(%rax,%rax,1)
    5c18:	89 c2                	mov    %eax,%edx
    5c1a:	c1 fa 1f             	sar    $0x1f,%edx
    5c1d:	31 d0                	xor    %edx,%eax
    5c1f:	29 d0                	sub    %edx,%eax
    5c21:	39 46 10             	cmp    %eax,0x10(%rsi)
    5c24:	75 eb                	jne    5c11 <sigcancel_handler+0x11>
    5c26:	83 7e 08 fa          	cmpl   $0xfffffffa,0x8(%rsi)
    5c2a:	75 e5                	jne    5c11 <sigcancel_handler+0x11>
    5c2c:	64 8b 14 25 08 03 00 	mov    %fs:0x308,%edx
    5c33:	00 
    5c34:	eb 0c                	jmp    5c42 <sigcancel_handler+0x42>
    5c36:	66 2e 0f 1f 84 00 00 	nopw   %cs:0x0(%rax,%rax,1)
    5c3d:	00 00 00 
    5c40:	89 c2                	mov    %eax,%edx
    5c42:	89 d1                	mov    %edx,%ecx
    5c44:	83 c9 0c             	or     $0xc,%ecx
    5c47:	39 ca                	cmp    %ecx,%edx
    5c49:	74 c6                	je     5c11 <sigcancel_handler+0x11>
    5c4b:	f6 c2 10             	test   $0x10,%dl
    5c4e:	75 c1                	jne    5c11 <sigcancel_handler+0x11>
    5c50:	89 d0                	mov    %edx,%eax
    5c52:	f0 64 0f b1 0c 25 08 	lock cmpxchg %ecx,%fs:0x308
    5c59:	03 00 00 
    5c5c:	39 c2                	cmp    %eax,%edx
    5c5e:	75 e0                	jne    5c40 <sigcancel_handler+0x40>
    5c60:	64 48 c7 04 25 30 06 	movq   $0xffffffffffffffff,%fs:0x630
    5c67:	00 00 ff ff ff ff 
    5c6d:	83 e1 02             	and    $0x2,%ecx
    5c70:	74 9f                	je     5c11 <sigcancel_handler+0x11>
    5c72:	f0 64 83 0c 25 08 03 	lock orl $0x10,%fs:0x308
    5c79:	00 00 10 
    5c7c:	64 48 8b 3c 25 00 03 	mov    %fs:0x300,%rdi
    5c83:	00 00 
    5c85:	e8 b6 83 00 00       	callq  e040 <__pthread_unwind>
    5c8a:	66 0f 1f 44 00 00    	nopw   0x0(%rax,%rax,1)

0000000000005c90 <sighandler_setxid>:
    5c90:	55                   	push   %rbp
    5c91:	48 89 e5             	mov    %rsp,%rbp
    5c94:	64 8b 04 25 d4 02 00 	mov    %fs:0x2d4,%eax
    5c9b:	00 
    5c9c:	83 ff 21             	cmp    $0x21,%edi
    5c9f:	74 07                	je     5ca8 <sighandler_setxid+0x18>
    5ca1:	c9                   	leaveq 
    5ca2:	c3                   	retq   
    5ca3:	0f 1f 44 00 00       	nopl   0x0(%rax,%rax,1)
    5ca8:	89 c2                	mov    %eax,%edx
    5caa:	c1 fa 1f             	sar    $0x1f,%edx
    5cad:	31 d0                	xor    %edx,%eax
    5caf:	29 d0                	sub    %edx,%eax
    5cb1:	39 46 10             	cmp    %eax,0x10(%rsi)
    5cb4:	75 eb                	jne    5ca1 <sighandler_setxid+0x11>
    5cb6:	83 7e 08 fa          	cmpl   $0xfffffffa,0x8(%rsi)
    5cba:	75 e5                	jne    5ca1 <sighandler_setxid+0x11>
    5cbc:	48 8b 05 65 66 21 00 	mov    0x216665(%rip),%rax        # 21c328 <__xidcmd>
    5cc3:	48 8b 70 10          	mov    0x10(%rax),%rsi
    5cc7:	48 8b 78 08          	mov    0x8(%rax),%rdi
    5ccb:	48 8b 50 18          	mov    0x18(%rax),%rdx
    5ccf:	8b 00                	mov    (%rax),%eax
    5cd1:	0f 05                	syscall 
    5cd3:	64 48 8b 3c 25 10 00 	mov    %fs:0x10,%rdi
    5cda:	00 00 
    5cdc:	0f 1f 40 00          	nopl   0x0(%rax)
    5ce0:	64 8b 14 25 08 03 00 	mov    %fs:0x308,%edx
    5ce7:	00 
    5ce8:	89 d1                	mov    %edx,%ecx
    5cea:	89 d0                	mov    %edx,%eax
    5cec:	83 e1 bf             	and    $0xffffffbf,%ecx
    5cef:	f0 64 0f b1 0c 25 08 	lock cmpxchg %ecx,%fs:0x308
    5cf6:	03 00 00 
    5cf9:	39 c2                	cmp    %eax,%edx
    5cfb:	75 e3                	jne    5ce0 <sighandler_setxid+0x50>
    5cfd:	c7 87 1c 06 00 00 01 	movl   $0x1,0x61c(%rdi)
    5d04:	00 00 00 
    5d07:	ba 01 00 00 00       	mov    $0x1,%edx
    5d0c:	48 81 c7 1c 06 00 00 	add    $0x61c,%rdi
    5d13:	64 8b 34 25 48 00 00 	mov    %fs:0x48,%esi
    5d1a:	00 
    5d1b:	41 b8 ca 00 00 00    	mov    $0xca,%r8d
    5d21:	83 ce 01             	or     $0x1,%esi
    5d24:	44 89 c0             	mov    %r8d,%eax
    5d27:	0f 05                	syscall 
    5d29:	48 8b 05 f8 65 21 00 	mov    0x2165f8(%rip),%rax        # 21c328 <__xidcmd>
    5d30:	ba ff ff ff ff       	mov    $0xffffffff,%edx
    5d35:	48 83 c0 20          	add    $0x20,%rax
    5d39:	f0 0f c1 10          	lock xadd %edx,(%rax)
    5d3d:	83 fa 01             	cmp    $0x1,%edx
    5d40:	0f 85 5b ff ff ff    	jne    5ca1 <sighandler_setxid+0x11>
    5d46:	48 8b 3d db 65 21 00 	mov    0x2165db(%rip),%rdi        # 21c328 <__xidcmd>
    5d4d:	48 83 c7 20          	add    $0x20,%rdi
    5d51:	64 8b 34 25 48 00 00 	mov    %fs:0x48,%esi
    5d58:	00 
    5d59:	83 ce 01             	or     $0x1,%esi
    5d5c:	44 89 c0             	mov    %r8d,%eax
    5d5f:	0f 05                	syscall 
    5d61:	c9                   	leaveq 
    5d62:	c3                   	retq   
    5d63:	90                   	nop
    5d64:	90                   	nop
    5d65:	90                   	nop
    5d66:	90                   	nop
    5d67:	90                   	nop
    5d68:	90                   	nop
    5d69:	90                   	nop
    5d6a:	90                   	nop
    5d6b:	90                   	nop
    5d6c:	90                   	nop
    5d6d:	90                   	nop
    5d6e:	90                   	nop
    5d6f:	90                   	nop

0000000000005d70 <__GI___nptl_create_event>:
    5d70:	55                   	push   %rbp
    5d71:	48 89 e5             	mov    %rsp,%rbp
    5d74:	c9                   	leaveq 
    5d75:	c3                   	retq   
    5d76:	66 2e 0f 1f 84 00 00 	nopw   %cs:0x0(%rax,%rax,1)
    5d7d:	00 00 00 

0000000000005d80 <__GI___nptl_death_event>:
    5d80:	55                   	push   %rbp
    5d81:	48 89 e5             	mov    %rsp,%rbp
    5d84:	c9                   	leaveq 
    5d85:	c3                   	retq   
    5d86:	90                   	nop
    5d87:	90                   	nop
    5d88:	90                   	nop
    5d89:	90                   	nop
    5d8a:	90                   	nop
    5d8b:	90                   	nop
    5d8c:	90                   	nop
    5d8d:	90                   	nop
    5d8e:	90                   	nop
    5d8f:	90                   	nop

0000000000005d90 <__nptl_main>:
    5d90:	55                   	push   %rbp
    5d91:	ba 1d 01 00 00       	mov    $0x11d,%edx
    5d96:	48 8d 35 03 b8 00 00 	lea    0xb803(%rip),%rsi        # 115a0 <banner>
    5d9d:	bf 01 00 00 00       	mov    $0x1,%edi
    5da2:	b8 01 00 00 00       	mov    $0x1,%eax
    5da7:	48 89 e5             	mov    %rsp,%rbp
    5daa:	0f 05                	syscall 
    5dac:	40 30 ff             	xor    %dil,%dil
    5daf:	e8 6c f5 ff ff       	callq  5320 <_exit@plt>
    5db4:	90                   	nop
    5db5:	90                   	nop
    5db6:	90                   	nop
    5db7:	90                   	nop
    5db8:	90                   	nop
    5db9:	90                   	nop
    5dba:	90                   	nop
    5dbb:	90                   	nop
    5dbc:	90                   	nop
    5dbd:	90                   	nop
    5dbe:	90                   	nop
    5dbf:	90                   	nop

0000000000005dc0 <__find_thread_by_id>:
    5dc0:	55                   	push   %rbp
    5dc1:	89 fa                	mov    %edi,%edx
    5dc3:	be 01 00 00 00       	mov    $0x1,%esi
    5dc8:	31 c0                	xor    %eax,%eax
    5dca:	48 89 e5             	mov    %rsp,%rbp
    5dcd:	f0 0f b1 35 db 64 21 	lock cmpxchg %esi,0x2164db(%rip)        # 21c2b0 <stack_cache_lock>
    5dd4:	00 
    5dd5:	0f 85 7f 1e 00 00    	jne    7c5a <_L_lock_10>
    5ddb:	48 8b 05 5e 24 21 00 	mov    0x21245e(%rip),%rax        # 218240 <stack_used>
    5de2:	48 8d 0d 57 24 21 00 	lea    0x212457(%rip),%rcx        # 218240 <stack_used>
    5de9:	48 39 c8             	cmp    %rcx,%rax
    5dec:	75 0a                	jne    5df8 <__find_thread_by_id+0x38>
    5dee:	eb 30                	jmp    5e20 <__find_thread_by_id+0x60>
    5df0:	48 8b 00             	mov    (%rax),%rax
    5df3:	48 39 c8             	cmp    %rcx,%rax
    5df6:	74 28                	je     5e20 <__find_thread_by_id+0x60>
    5df8:	48 8d b0 40 fd ff ff 	lea    -0x2c0(%rax),%rsi
    5dff:	39 96 d0 02 00 00    	cmp    %edx,0x2d0(%rsi)
    5e05:	75 e9                	jne    5df0 <__find_thread_by_id+0x30>
    5e07:	f0 ff 0d a2 64 21 00 	lock decl 0x2164a2(%rip)        # 21c2b0 <stack_cache_lock>
    5e0e:	0f 85 65 1e 00 00    	jne    7c79 <_L_unlock_30>
    5e14:	48 89 f0             	mov    %rsi,%rax
    5e17:	c9                   	leaveq 
    5e18:	c3                   	retq   
    5e19:	0f 1f 80 00 00 00 00 	nopl   0x0(%rax)
    5e20:	48 8b 05 79 64 21 00 	mov    0x216479(%rip),%rax        # 21c2a0 <__GI___stack_user>
    5e27:	48 8d 0d 72 64 21 00 	lea    0x216472(%rip),%rcx        # 21c2a0 <__GI___stack_user>
    5e2e:	48 39 c8             	cmp    %rcx,%rax
    5e31:	75 15                	jne    5e48 <__find_thread_by_id+0x88>
    5e33:	0f 1f 44 00 00       	nopl   0x0(%rax,%rax,1)
    5e38:	31 f6                	xor    %esi,%esi
    5e3a:	eb cb                	jmp    5e07 <__find_thread_by_id+0x47>
    5e3c:	0f 1f 40 00          	nopl   0x0(%rax)
    5e40:	48 8b 00             	mov    (%rax),%rax
    5e43:	48 39 c8             	cmp    %rcx,%rax
    5e46:	74 f0                	je     5e38 <__find_thread_by_id+0x78>
    5e48:	48 8d b0 40 fd ff ff 	lea    -0x2c0(%rax),%rsi
    5e4f:	39 96 d0 02 00 00    	cmp    %edx,0x2d0(%rsi)
    5e55:	75 e9                	jne    5e40 <__find_thread_by_id+0x80>
    5e57:	eb ae                	jmp    5e07 <__find_thread_by_id+0x47>
    5e59:	0f 1f 80 00 00 00 00 	nopl   0x0(%rax)

0000000000005e60 <__find_in_stack_list>:
    5e60:	55                   	push   %rbp
    5e61:	48 89 fa             	mov    %rdi,%rdx
    5e64:	be 01 00 00 00       	mov    $0x1,%esi
    5e69:	31 c0                	xor    %eax,%eax
    5e6b:	48 89 e5             	mov    %rsp,%rbp
    5e6e:	f0 0f b1 35 3a 64 21 	lock cmpxchg %esi,0x21643a(%rip)        # 21c2b0 <stack_cache_lock>
    5e75:	00 
    5e76:	0f 85 1c 1e 00 00    	jne    7c98 <_L_lock_71>
    5e7c:	48 8b 05 bd 23 21 00 	mov    0x2123bd(%rip),%rax        # 218240 <stack_used>
    5e83:	48 8d 35 b6 23 21 00 	lea    0x2123b6(%rip),%rsi        # 218240 <stack_used>
    5e8a:	48 39 f0             	cmp    %rsi,%rax
    5e8d:	75 11                	jne    5ea0 <__find_in_stack_list+0x40>
    5e8f:	eb 3f                	jmp    5ed0 <__find_in_stack_list+0x70>
    5e91:	0f 1f 80 00 00 00 00 	nopl   0x0(%rax)
    5e98:	48 8b 00             	mov    (%rax),%rax
    5e9b:	48 39 f0             	cmp    %rsi,%rax
    5e9e:	74 30                	je     5ed0 <__find_in_stack_list+0x70>
    5ea0:	48 8d 88 40 fd ff ff 	lea    -0x2c0(%rax),%rcx
    5ea7:	48 39 ca             	cmp    %rcx,%rdx
    5eaa:	75 ec                	jne    5e98 <__find_in_stack_list+0x38>
    5eac:	48 85 d2             	test   %rdx,%rdx
    5eaf:	74 1f                	je     5ed0 <__find_in_stack_list+0x70>
    5eb1:	48 89 d6             	mov    %rdx,%rsi
    5eb4:	f0 ff 0d f5 63 21 00 	lock decl 0x2163f5(%rip)        # 21c2b0 <stack_cache_lock>
    5ebb:	0f 85 f6 1d 00 00    	jne    7cb7 <_L_unlock_97>
    5ec1:	48 89 f0             	mov    %rsi,%rax
    5ec4:	c9                   	leaveq 
    5ec5:	c3                   	retq   
    5ec6:	66 2e 0f 1f 84 00 00 	nopw   %cs:0x0(%rax,%rax,1)
    5ecd:	00 00 00 
    5ed0:	48 8b 05 c9 63 21 00 	mov    0x2163c9(%rip),%rax        # 21c2a0 <__GI___stack_user>
    5ed7:	48 8d 3d c2 63 21 00 	lea    0x2163c2(%rip),%rdi        # 21c2a0 <__GI___stack_user>
    5ede:	48 39 f8             	cmp    %rdi,%rax
    5ee1:	74 31                	je     5f14 <__find_in_stack_list+0xb4>
    5ee3:	48 8d 88 40 fd ff ff 	lea    -0x2c0(%rax),%rcx
    5eea:	48 89 d6             	mov    %rdx,%rsi
    5eed:	48 39 d1             	cmp    %rdx,%rcx
    5ef0:	74 c2                	je     5eb4 <__find_in_stack_list+0x54>
    5ef2:	48 8b 00             	mov    (%rax),%rax
    5ef5:	48 39 f8             	cmp    %rdi,%rax
    5ef8:	74 1a                	je     5f14 <__find_in_stack_list+0xb4>
    5efa:	66 0f 1f 44 00 00    	nopw   0x0(%rax,%rax,1)
    5f00:	48 8d 88 40 fd ff ff 	lea    -0x2c0(%rax),%rcx
    5f07:	48 39 d1             	cmp    %rdx,%rcx
    5f0a:	74 a5                	je     5eb1 <__find_in_stack_list+0x51>
    5f0c:	48 8b 00             	mov    (%rax),%rax
    5f0f:	48 39 f8             	cmp    %rdi,%rax
    5f12:	75 ec                	jne    5f00 <__find_in_stack_list+0xa0>
    5f14:	31 f6                	xor    %esi,%esi
    5f16:	eb 9c                	jmp    5eb4 <__find_in_stack_list+0x54>
    5f18:	0f 1f 84 00 00 00 00 	nopl   0x0(%rax,%rax,1)
    5f1f:	00 

0000000000005f20 <__reclaim_stacks>:
    5f20:	55                   	push   %rbp
    5f21:	48 8b 05 a8 63 21 00 	mov    0x2163a8(%rip),%rax        # 21c2d0 <in_flight_stack>
    5f28:	64 4c 8b 1c 25 10 00 	mov    %fs:0x10,%r11
    5f2f:	00 00 
    5f31:	48 89 e5             	mov    %rsp,%rbp
    5f34:	41 54                	push   %r12
    5f36:	48 85 c0             	test   %rax,%rax
    5f39:	53                   	push   %rbx
    5f3a:	74 5b                	je     5f97 <__reclaim_stacks+0x77>
    5f3c:	48 89 c2             	mov    %rax,%rdx
    5f3f:	48 83 e2 fe          	and    $0xfffffffffffffffe,%rdx
    5f43:	a8 01                	test   $0x1,%al
    5f45:	74 3e                	je     5f85 <__reclaim_stacks+0x65>
    5f47:	4c 8b 15 f2 22 21 00 	mov    0x2122f2(%rip),%r10        # 218240 <stack_used>
    5f4e:	48 8d 1d eb 22 21 00 	lea    0x2122eb(%rip),%rbx        # 218240 <stack_used>
    5f55:	49 8b 42 08          	mov    0x8(%r10),%rax
    5f59:	48 39 d8             	cmp    %rbx,%rax
    5f5c:	0f 84 1b 02 00 00    	je     617d <__reclaim_stacks+0x25d>
    5f62:	48 39 c2             	cmp    %rax,%rdx
    5f65:	0f 85 48 02 00 00    	jne    61b3 <__reclaim_stacks+0x293>
    5f6b:	4c 89 12             	mov    %r10,(%rdx)
    5f6e:	48 89 5a 08          	mov    %rbx,0x8(%rdx)
    5f72:	49 89 d2             	mov    %rdx,%r10
    5f75:	48 89 15 c4 22 21 00 	mov    %rdx,0x2122c4(%rip)        # 218240 <stack_used>
    5f7c:	4c 8d 25 cd 22 21 00 	lea    0x2122cd(%rip),%r12        # 218250 <stack_cache>
    5f83:	eb 27                	jmp    5fac <__reclaim_stacks+0x8c>
    5f85:	48 8b 02             	mov    (%rdx),%rax
    5f88:	48 8b 4a 08          	mov    0x8(%rdx),%rcx
    5f8c:	48 89 48 08          	mov    %rcx,0x8(%rax)
    5f90:	48 8b 52 08          	mov    0x8(%rdx),%rdx
    5f94:	48 89 02             	mov    %rax,(%rdx)
    5f97:	4c 8b 15 a2 22 21 00 	mov    0x2122a2(%rip),%r10        # 218240 <stack_used>
    5f9e:	48 8d 1d 9b 22 21 00 	lea    0x21229b(%rip),%rbx        # 218240 <stack_used>
    5fa5:	4c 8d 25 a4 22 21 00 	lea    0x2122a4(%rip),%r12        # 218250 <stack_cache>
    5fac:	49 39 da             	cmp    %rbx,%r10
    5faf:	48 89 de             	mov    %rbx,%rsi
    5fb2:	0f 84 af 00 00 00    	je     6067 <__reclaim_stacks+0x147>
    5fb8:	31 c0                	xor    %eax,%eax
    5fba:	41 b9 40 00 00 00    	mov    $0x40,%r9d
    5fc0:	eb 12                	jmp    5fd4 <__reclaim_stacks+0xb4>
    5fc2:	66 0f 1f 44 00 00    	nopw   0x0(%rax,%rax,1)
    5fc8:	4d 8b 12             	mov    (%r10),%r10
    5fcb:	49 39 da             	cmp    %rbx,%r10
    5fce:	0f 84 90 00 00 00    	je     6064 <__reclaim_stacks+0x144>
    5fd4:	4d 8d 82 40 fd ff ff 	lea    -0x2c0(%r10),%r8
    5fdb:	4d 39 c3             	cmp    %r8,%r11
    5fde:	74 e8                	je     5fc8 <__reclaim_stacks+0xa8>
    5fe0:	41 8b 93 d4 02 00 00 	mov    0x2d4(%r11),%edx
    5fe7:	41 c7 80 d0 02 00 00 	movl   $0x0,0x2d0(%r8)
    5fee:	00 00 00 00 
    5ff2:	41 89 90 d4 02 00 00 	mov    %edx,0x2d4(%r8)
    5ff9:	49 8b 90 98 06 00 00 	mov    0x698(%r8),%rdx
    6000:	48 01 15 c1 62 21 00 	add    %rdx,0x2162c1(%rip)        # 21c2c8 <stack_cache_actsize>
    6007:	41 80 b8 10 06 00 00 	cmpb   $0x0,0x610(%r8)
    600e:	00 
    600f:	74 b7                	je     5fc8 <__reclaim_stacks+0xa8>
    6011:	49 8d 52 50          	lea    0x50(%r10),%rdx
    6015:	4c 89 c9             	mov    %r9,%rcx
    6018:	41 c6 80 10 06 00 00 	movb   $0x0,0x610(%r8)
    601f:	00 
    6020:	48 89 d7             	mov    %rdx,%rdi
    6023:	ba 01 00 00 00       	mov    $0x1,%edx
    6028:	f3 48 ab             	rep stos %rax,%es:(%rdi)
    602b:	0f 1f 44 00 00       	nopl   0x0(%rax,%rax,1)
    6030:	49 8b b4 d0 10 05 00 	mov    0x510(%r8,%rdx,8),%rsi
    6037:	00 
    6038:	48 85 f6             	test   %rsi,%rsi
    603b:	74 11                	je     604e <__reclaim_stacks+0x12e>
    603d:	48 89 f7             	mov    %rsi,%rdi
    6040:	4c 89 c9             	mov    %r9,%rcx
    6043:	f3 48 ab             	rep stos %rax,%es:(%rdi)
    6046:	41 c6 80 10 06 00 00 	movb   $0x1,0x610(%r8)
    604d:	01 
    604e:	48 83 c2 01          	add    $0x1,%rdx
    6052:	48 83 fa 20          	cmp    $0x20,%rdx
    6056:	75 d8                	jne    6030 <__reclaim_stacks+0x110>
    6058:	4d 8b 12             	mov    (%r10),%r10
    605b:	49 39 da             	cmp    %rbx,%r10
    605e:	0f 85 70 ff ff ff    	jne    5fd4 <__reclaim_stacks+0xb4>
    6064:	48 8b 33             	mov    (%rbx),%rsi
    6067:	48 8b 0d e2 21 21 00 	mov    0x2121e2(%rip),%rcx        # 218250 <stack_cache>
    606e:	4c 39 e1             	cmp    %r12,%rcx
    6071:	48 89 c8             	mov    %rcx,%rax
    6074:	74 1c                	je     6092 <__reclaim_stacks+0x172>
    6076:	66 2e 0f 1f 84 00 00 	nopw   %cs:0x0(%rax,%rax,1)
    607d:	00 00 00 
    6080:	41 8b 93 d4 02 00 00 	mov    0x2d4(%r11),%edx
    6087:	89 50 14             	mov    %edx,0x14(%rax)
    608a:	48 8b 00             	mov    (%rax),%rax
    608d:	4c 39 e0             	cmp    %r12,%rax
    6090:	75 ee                	jne    6080 <__reclaim_stacks+0x160>
    6092:	48 39 de             	cmp    %rbx,%rsi
    6095:	74 2e                	je     60c5 <__reclaim_stacks+0x1a5>
    6097:	48 8d 05 b2 21 21 00 	lea    0x2121b2(%rip),%rax        # 218250 <stack_cache>
    609e:	48 89 46 08          	mov    %rax,0x8(%rsi)
    60a2:	48 8b 05 9f 21 21 00 	mov    0x21219f(%rip),%rax        # 218248 <stack_used+0x8>
    60a9:	48 89 08             	mov    %rcx,(%rax)
    60ac:	48 8b 15 9d 21 21 00 	mov    0x21219d(%rip),%rdx        # 218250 <stack_cache>
    60b3:	48 89 42 08          	mov    %rax,0x8(%rdx)
    60b7:	48 8b 05 82 21 21 00 	mov    0x212182(%rip),%rax        # 218240 <stack_used>
    60be:	48 89 05 8b 21 21 00 	mov    %rax,0x21218b(%rip)        # 218250 <stack_cache>
    60c5:	49 8d 83 c0 02 00 00 	lea    0x2c0(%r11),%rax
    60cc:	48 89 05 fd 61 21 00 	mov    %rax,0x2161fd(%rip)        # 21c2d0 <in_flight_stack>
    60d3:	49 8b 93 c0 02 00 00 	mov    0x2c0(%r11),%rdx
    60da:	49 8b 8b c8 02 00 00 	mov    0x2c8(%r11),%rcx
    60e1:	48 89 4a 08          	mov    %rcx,0x8(%rdx)
    60e5:	49 8b 8b c8 02 00 00 	mov    0x2c8(%r11),%rcx
    60ec:	48 89 11             	mov    %rdx,(%rcx)
    60ef:	48 8d 15 4a 21 21 00 	lea    0x21214a(%rip),%rdx        # 218240 <stack_used>
    60f6:	48 c7 05 cf 61 21 00 	movq   $0x0,0x2161cf(%rip)        # 21c2d0 <in_flight_stack>
    60fd:	00 00 00 00 
    6101:	48 89 15 40 21 21 00 	mov    %rdx,0x212140(%rip)        # 218248 <stack_used+0x8>
    6108:	48 89 15 31 21 21 00 	mov    %rdx,0x212131(%rip)        # 218240 <stack_used>
    610f:	48 8d 15 8a 61 21 00 	lea    0x21618a(%rip),%rdx        # 21c2a0 <__GI___stack_user>
    6116:	48 89 15 8b 61 21 00 	mov    %rdx,0x21618b(%rip)        # 21c2a8 <__GI___stack_user+0x8>
    611d:	48 89 15 7c 61 21 00 	mov    %rdx,0x21617c(%rip)        # 21c2a0 <__GI___stack_user>
    6124:	31 d2                	xor    %edx,%edx
    6126:	64 8a 14 25 12 06 00 	mov    %fs:0x612,%dl
    612d:	00 
    612e:	84 d2                	test   %dl,%dl
    6130:	0f 85 9c 00 00 00    	jne    61d2 <__reclaim_stacks+0x2b2>
    6136:	48 8d 15 03 21 21 00 	lea    0x212103(%rip),%rdx        # 218240 <stack_used>
    613d:	49 89 93 c0 02 00 00 	mov    %rdx,0x2c0(%r11)
    6144:	49 89 93 c8 02 00 00 	mov    %rdx,0x2c8(%r11)
    614b:	48 89 05 f6 20 21 00 	mov    %rax,0x2120f6(%rip)        # 218248 <stack_used+0x8>
    6152:	48 89 05 e7 20 21 00 	mov    %rax,0x2120e7(%rip)        # 218240 <stack_used>
    6159:	5b                   	pop    %rbx
    615a:	c7 05 d4 20 21 00 01 	movl   $0x1,0x2120d4(%rip)        # 218238 <__nptl_nthreads>
    6161:	00 00 00 
    6164:	48 c7 05 61 61 21 00 	movq   $0x0,0x216161(%rip)        # 21c2d0 <in_flight_stack>
    616b:	00 00 00 00 
    616f:	c7 05 37 61 21 00 00 	movl   $0x0,0x216137(%rip)        # 21c2b0 <stack_cache_lock>
    6176:	00 00 00 
    6179:	41 5c                	pop    %r12
    617b:	c9                   	leaveq 
    617c:	c3                   	retq   
    617d:	48 8b 05 cc 20 21 00 	mov    0x2120cc(%rip),%rax        # 218250 <stack_cache>
    6184:	4c 8d 25 c5 20 21 00 	lea    0x2120c5(%rip),%r12        # 218250 <stack_cache>
    618b:	48 8b 48 08          	mov    0x8(%rax),%rcx
    618f:	4c 39 e1             	cmp    %r12,%rcx
    6192:	0f 84 14 fe ff ff    	je     5fac <__reclaim_stacks+0x8c>
    6198:	48 39 ca             	cmp    %rcx,%rdx
    619b:	75 16                	jne    61b3 <__reclaim_stacks+0x293>
    619d:	48 89 02             	mov    %rax,(%rdx)
    61a0:	4c 89 62 08          	mov    %r12,0x8(%rdx)
    61a4:	48 89 15 a5 20 21 00 	mov    %rdx,0x2120a5(%rip)        # 218250 <stack_cache>
    61ab:	4c 8b 13             	mov    (%rbx),%r10
    61ae:	e9 f9 fd ff ff       	jmpq   5fac <__reclaim_stacks+0x8c>
    61b3:	48 8d 0d ac b5 00 00 	lea    0xb5ac(%rip),%rcx        # 11766 <__PRETTY_FUNCTION__.11806>
    61ba:	48 8d 35 fd b4 00 00 	lea    0xb4fd(%rip),%rsi        # 116be <banner+0x11e>
    61c1:	48 8d 3d 06 b5 00 00 	lea    0xb506(%rip),%rdi        # 116ce <banner+0x12e>
    61c8:	ba 3d 03 00 00       	mov    $0x33d,%edx
    61cd:	e8 0e f2 ff ff       	callq  53e0 <__assert_fail@plt>
    61d2:	48 8d 15 c7 60 21 00 	lea    0x2160c7(%rip),%rdx        # 21c2a0 <__GI___stack_user>
    61d9:	49 89 93 c0 02 00 00 	mov    %rdx,0x2c0(%r11)
    61e0:	49 89 93 c8 02 00 00 	mov    %rdx,0x2c8(%r11)
    61e7:	48 89 05 ba 60 21 00 	mov    %rax,0x2160ba(%rip)        # 21c2a8 <__GI___stack_user+0x8>
    61ee:	48 89 05 ab 60 21 00 	mov    %rax,0x2160ab(%rip)        # 21c2a0 <__GI___stack_user>
    61f5:	e9 5f ff ff ff       	jmpq   6159 <__reclaim_stacks+0x239>
    61fa:	66 0f 1f 44 00 00    	nopw   0x0(%rax,%rax,1)

0000000000006200 <__nptl_deallocate_tsd>:
    6200:	55                   	push   %rbp
    6201:	31 c0                	xor    %eax,%eax
    6203:	48 89 e5             	mov    %rsp,%rbp
    6206:	41 57                	push   %r15
    6208:	41 56                	push   %r14
    620a:	41 55                	push   %r13
    620c:	41 54                	push   %r12
    620e:	53                   	push   %rbx
    620f:	48 83 ec 18          	sub    $0x18,%rsp
    6213:	64 8a 04 25 10 06 00 	mov    %fs:0x610,%al
    621a:	00 
    621b:	84 c0                	test   %al,%al
    621d:	0f 84 08 01 00 00    	je     632b <__nptl_deallocate_tsd+0x12b>
    6223:	4c 8d 3d 76 20 21 00 	lea    0x212076(%rip),%r15        # 2182a0 <__GI___pthread_keys>
    622a:	48 c7 45 c8 00 00 00 	movq   $0x0,-0x38(%rbp)
    6231:	00 
    6232:	64 c6 04 25 10 06 00 	movb   $0x0,%fs:0x610
    6239:	00 00 
    623b:	45 31 f6             	xor    %r14d,%r14d
    623e:	66 90                	xchg   %ax,%ax
    6240:	64 4e 8b 2c f5 10 05 	mov    %fs:0x510(,%r14,8),%r13
    6247:	00 00 
    6249:	4d 85 ed             	test   %r13,%r13
    624c:	74 5a                	je     62a8 <__nptl_deallocate_tsd+0xa8>
    624e:	4d 89 f4             	mov    %r14,%r12
    6251:	31 db                	xor    %ebx,%ebx
    6253:	49 c1 e4 09          	shl    $0x9,%r12
    6257:	4d 01 fc             	add    %r15,%r12
    625a:	eb 15                	jmp    6271 <__nptl_deallocate_tsd+0x71>
    625c:	0f 1f 40 00          	nopl   0x0(%rax)
    6260:	48 83 c3 10          	add    $0x10,%rbx
    6264:	49 83 c4 10          	add    $0x10,%r12
    6268:	48 81 fb 00 02 00 00 	cmp    $0x200,%rbx
    626f:	74 37                	je     62a8 <__nptl_deallocate_tsd+0xa8>
    6271:	49 8b 7c 1d 08       	mov    0x8(%r13,%rbx,1),%rdi
    6276:	48 85 ff             	test   %rdi,%rdi
    6279:	74 e5                	je     6260 <__nptl_deallocate_tsd+0x60>
    627b:	49 8b 04 24          	mov    (%r12),%rax
    627f:	49 39 44 1d 00       	cmp    %rax,0x0(%r13,%rbx,1)
    6284:	49 c7 44 1d 08 00 00 	movq   $0x0,0x8(%r13,%rbx,1)
    628b:	00 00 
    628d:	75 d1                	jne    6260 <__nptl_deallocate_tsd+0x60>
    628f:	49 8b 44 24 08       	mov    0x8(%r12),%rax
    6294:	48 85 c0             	test   %rax,%rax
    6297:	74 c7                	je     6260 <__nptl_deallocate_tsd+0x60>
    6299:	ff d0                	callq  *%rax
    629b:	0f 1f 44 00 00       	nopl   0x0(%rax,%rax,1)
    62a0:	eb be                	jmp    6260 <__nptl_deallocate_tsd+0x60>
    62a2:	66 0f 1f 44 00 00    	nopw   0x0(%rax,%rax,1)
    62a8:	49 83 c6 01          	add    $0x1,%r14
    62ac:	49 83 fe 20          	cmp    $0x20,%r14
    62b0:	75 8e                	jne    6240 <__nptl_deallocate_tsd+0x40>
    62b2:	31 c0                	xor    %eax,%eax
    62b4:	64 8a 04 25 10 06 00 	mov    %fs:0x610,%al
    62bb:	00 
    62bc:	84 c0                	test   %al,%al
    62be:	74 2d                	je     62ed <__nptl_deallocate_tsd+0xed>
    62c0:	48 83 45 c8 01       	addq   $0x1,-0x38(%rbp)
    62c5:	48 83 7d c8 04       	cmpq   $0x4,-0x38(%rbp)
    62ca:	0f 85 62 ff ff ff    	jne    6232 <__nptl_deallocate_tsd+0x32>
    62d0:	64 48 8b 14 25 10 00 	mov    %fs:0x10,%rdx
    62d7:	00 00 
    62d9:	48 81 c2 10 03 00 00 	add    $0x310,%rdx
    62e0:	b9 40 00 00 00       	mov    $0x40,%ecx
    62e5:	31 c0                	xor    %eax,%eax
    62e7:	48 89 d7             	mov    %rdx,%rdi
    62ea:	f3 48 ab             	rep stos %rax,%es:(%rdi)
    62ed:	bb 01 00 00 00       	mov    $0x1,%ebx
    62f2:	66 0f 1f 44 00 00    	nopw   0x0(%rax,%rax,1)
    62f8:	64 48 8b 3c dd 10 05 	mov    %fs:0x510(,%rbx,8),%rdi
    62ff:	00 00 
    6301:	48 85 ff             	test   %rdi,%rdi
    6304:	74 12                	je     6318 <__nptl_deallocate_tsd+0x118>
    6306:	e8 e5 ef ff ff       	callq  52f0 <free@plt>
    630b:	64 48 c7 04 dd 10 05 	movq   $0x0,%fs:0x510(,%rbx,8)
    6312:	00 00 00 00 00 00 
    6318:	48 83 c3 01          	add    $0x1,%rbx
    631c:	48 83 fb 20          	cmp    $0x20,%rbx
    6320:	75 d6                	jne    62f8 <__nptl_deallocate_tsd+0xf8>
    6322:	64 c6 04 25 10 06 00 	movb   $0x0,%fs:0x610
    6329:	00 00 
    632b:	48 83 c4 18          	add    $0x18,%rsp
    632f:	5b                   	pop    %rbx
    6330:	41 5c                	pop    %r12
    6332:	41 5d                	pop    %r13
    6334:	41 5e                	pop    %r14
    6336:	41 5f                	pop    %r15
    6338:	c9                   	leaveq 
    6339:	c3                   	retq   
    633a:	66 0f 1f 44 00 00    	nopw   0x0(%rax,%rax,1)

0000000000006340 <__wait_lookup_done>:
    6340:	55                   	push   %rbp
    6341:	be 01 00 00 00       	mov    $0x1,%esi
    6346:	31 c0                	xor    %eax,%eax
    6348:	48 89 e5             	mov    %rsp,%rbp
    634b:	41 57                	push   %r15
    634d:	41 56                	push   %r14
    634f:	41 55                	push   %r13
    6351:	41 54                	push   %r12
    6353:	53                   	push   %rbx
    6354:	f0 0f b1 35 54 5f 21 	lock cmpxchg %esi,0x215f54(%rip)        # 21c2b0 <stack_cache_lock>
    635b:	00 
    635c:	0f 85 74 19 00 00    	jne    7cd6 <_L_lock_468>
    6362:	4c 8b 05 d7 1e 21 00 	mov    0x211ed7(%rip),%r8        # 218240 <stack_used>
    6369:	4c 8d 25 d0 1e 21 00 	lea    0x211ed0(%rip),%r12        # 218240 <stack_used>
    6370:	64 48 8b 1c 25 10 00 	mov    %fs:0x10,%rbx
    6377:	00 00 
    6379:	4d 39 e0             	cmp    %r12,%r8
    637c:	74 72                	je     63f0 <__wait_lookup_done+0xb0>
    637e:	41 be 01 00 00 00    	mov    $0x1,%r14d
    6384:	41 bf 02 00 00 00    	mov    $0x2,%r15d
    638a:	41 bd ca 00 00 00    	mov    $0xca,%r13d
    6390:	eb 0e                	jmp    63a0 <__wait_lookup_done+0x60>
    6392:	66 0f 1f 44 00 00    	nopw   0x0(%rax,%rax,1)
    6398:	4d 8b 00             	mov    (%r8),%r8
    639b:	4d 39 e0             	cmp    %r12,%r8
    639e:	74 50                	je     63f0 <__wait_lookup_done+0xb0>
    63a0:	4d 8d 88 40 fd ff ff 	lea    -0x2c0(%r8),%r9
    63a7:	4c 39 cb             	cmp    %r9,%rbx
    63aa:	74 ec                	je     6398 <__wait_lookup_done+0x58>
    63ac:	41 8b 90 5c fd ff ff 	mov    -0x2a4(%r8),%edx
    63b3:	85 d2                	test   %edx,%edx
    63b5:	74 e1                	je     6398 <__wait_lookup_done+0x58>
    63b7:	49 8d 79 1c          	lea    0x1c(%r9),%rdi
    63bb:	44 89 f0             	mov    %r14d,%eax
    63be:	f0 44 0f b1 3f       	lock cmpxchg %r15d,(%rdi)
    63c3:	75 d3                	jne    6398 <__wait_lookup_done+0x58>
    63c5:	0f 1f 00             	nopl   (%rax)
    63c8:	45 31 d2             	xor    %r10d,%r10d
    63cb:	ba 02 00 00 00       	mov    $0x2,%edx
    63d0:	64 8b 34 25 48 00 00 	mov    %fs:0x48,%esi
    63d7:	00 
    63d8:	44 89 e8             	mov    %r13d,%eax
    63db:	0f 05                	syscall 
    63dd:	41 83 79 1c 02       	cmpl   $0x2,0x1c(%r9)
    63e2:	74 e4                	je     63c8 <__wait_lookup_done+0x88>
    63e4:	4d 8b 00             	mov    (%r8),%r8
    63e7:	4d 39 e0             	cmp    %r12,%r8
    63ea:	75 b4                	jne    63a0 <__wait_lookup_done+0x60>
    63ec:	0f 1f 40 00          	nopl   0x0(%rax)
    63f0:	4c 8b 05 a9 5e 21 00 	mov    0x215ea9(%rip),%r8        # 21c2a0 <__GI___stack_user>
    63f7:	4c 8d 25 a2 5e 21 00 	lea    0x215ea2(%rip),%r12        # 21c2a0 <__GI___stack_user>
    63fe:	4d 39 e0             	cmp    %r12,%r8
    6401:	74 75                	je     6478 <__wait_lookup_done+0x138>
    6403:	41 be 01 00 00 00    	mov    $0x1,%r14d
    6409:	41 bf 02 00 00 00    	mov    $0x2,%r15d
    640f:	41 bd ca 00 00 00    	mov    $0xca,%r13d
    6415:	eb 11                	jmp    6428 <__wait_lookup_done+0xe8>
    6417:	66 0f 1f 84 00 00 00 	nopw   0x0(%rax,%rax,1)
    641e:	00 00 
    6420:	4d 8b 00             	mov    (%r8),%r8
    6423:	4d 39 e0             	cmp    %r12,%r8
    6426:	74 50                	je     6478 <__wait_lookup_done+0x138>
    6428:	4d 8d 88 40 fd ff ff 	lea    -0x2c0(%r8),%r9
    642f:	4c 39 cb             	cmp    %r9,%rbx
    6432:	74 ec                	je     6420 <__wait_lookup_done+0xe0>
    6434:	41 8b 80 5c fd ff ff 	mov    -0x2a4(%r8),%eax
    643b:	85 c0                	test   %eax,%eax
    643d:	74 e1                	je     6420 <__wait_lookup_done+0xe0>
    643f:	49 8d 79 1c          	lea    0x1c(%r9),%rdi
    6443:	44 89 f0             	mov    %r14d,%eax
    6446:	f0 44 0f b1 3f       	lock cmpxchg %r15d,(%rdi)
    644b:	75 d3                	jne    6420 <__wait_lookup_done+0xe0>
    644d:	0f 1f 00             	nopl   (%rax)
    6450:	45 31 d2             	xor    %r10d,%r10d
    6453:	ba 02 00 00 00       	mov    $0x2,%edx
    6458:	64 8b 34 25 48 00 00 	mov    %fs:0x48,%esi
    645f:	00 
    6460:	44 89 e8             	mov    %r13d,%eax
    6463:	0f 05                	syscall 
    6465:	41 83 79 1c 02       	cmpl   $0x2,0x1c(%r9)
    646a:	74 e4                	je     6450 <__wait_lookup_done+0x110>
    646c:	4d 8b 00             	mov    (%r8),%r8
    646f:	4d 39 e0             	cmp    %r12,%r8
    6472:	75 b4                	jne    6428 <__wait_lookup_done+0xe8>
    6474:	0f 1f 40 00          	nopl   0x0(%rax)
    6478:	f0 ff 0d 31 5e 21 00 	lock decl 0x215e31(%rip)        # 21c2b0 <stack_cache_lock>
    647f:	0f 85 70 18 00 00    	jne    7cf5 <_L_unlock_562>
    6485:	5b                   	pop    %rbx
    6486:	41 5c                	pop    %r12
    6488:	41 5d                	pop    %r13
    648a:	41 5e                	pop    %r14
    648c:	41 5f                	pop    %r15
    648e:	c9                   	leaveq 
    648f:	c3                   	retq   

0000000000006490 <setxid_mark_thread>:
    6490:	55                   	push   %rbp
    6491:	83 be 1c 06 00 00 ff 	cmpl   $0xffffffff,0x61c(%rsi)
    6498:	49 89 f0             	mov    %rsi,%r8
    649b:	48 89 e5             	mov    %rsp,%rbp
    649e:	74 60                	je     6500 <setxid_mark_thread+0x70>
    64a0:	49 8d 90 08 03 00 00 	lea    0x308(%r8),%rdx
    64a7:	41 c7 80 1c 06 00 00 	movl   $0x0,0x61c(%r8)
    64ae:	00 00 00 00 
    64b2:	66 0f 1f 44 00 00    	nopw   0x0(%rax,%rax,1)
    64b8:	41 8b 80 08 03 00 00 	mov    0x308(%r8),%eax
    64bf:	a8 10                	test   $0x10,%al
    64c1:	75 0d                	jne    64d0 <setxid_mark_thread+0x40>
    64c3:	89 c1                	mov    %eax,%ecx
    64c5:	83 c9 40             	or     $0x40,%ecx
    64c8:	f0 0f b1 0a          	lock cmpxchg %ecx,(%rdx)
    64cc:	75 ea                	jne    64b8 <setxid_mark_thread+0x28>
    64ce:	c9                   	leaveq 
    64cf:	c3                   	retq   
    64d0:	a8 40                	test   $0x40,%al
    64d2:	75 fa                	jne    64ce <setxid_mark_thread+0x3e>
    64d4:	41 c7 80 1c 06 00 00 	movl   $0x1,0x61c(%r8)
    64db:	01 00 00 00 
    64df:	ba 01 00 00 00       	mov    $0x1,%edx
    64e4:	64 8b 34 25 48 00 00 	mov    %fs:0x48,%esi
    64eb:	00 
    64ec:	b8 ca 00 00 00       	mov    $0xca,%eax
    64f1:	49 8d b8 1c 06 00 00 	lea    0x61c(%r8),%rdi
    64f8:	83 ce 01             	or     $0x1,%esi
    64fb:	0f 05                	syscall 
    64fd:	c9                   	leaveq 
    64fe:	c3                   	retq   
    64ff:	90                   	nop
    6500:	48 8d be 1c 06 00 00 	lea    0x61c(%rsi),%rdi
    6507:	b8 ff ff ff ff       	mov    $0xffffffff,%eax
    650c:	ba fe ff ff ff       	mov    $0xfffffffe,%edx
    6511:	f0 0f b1 17          	lock cmpxchg %edx,(%rdi)
    6515:	75 89                	jne    64a0 <setxid_mark_thread+0x10>
    6517:	41 b9 ca 00 00 00    	mov    $0xca,%r9d
    651d:	0f 1f 00             	nopl   (%rax)
    6520:	45 31 d2             	xor    %r10d,%r10d
    6523:	ba fe ff ff ff       	mov    $0xfffffffe,%edx
    6528:	64 8b 34 25 48 00 00 	mov    %fs:0x48,%esi
    652f:	00 
    6530:	44 89 c8             	mov    %r9d,%eax
    6533:	0f 05                	syscall 
    6535:	41 39 90 1c 06 00 00 	cmp    %edx,0x61c(%r8)
    653c:	74 e2                	je     6520 <setxid_mark_thread+0x90>
    653e:	e9 5d ff ff ff       	jmpq   64a0 <setxid_mark_thread+0x10>
    6543:	66 66 66 66 2e 0f 1f 	data32 data32 data32 nopw %cs:0x0(%rax,%rax,1)
    654a:	84 00 00 00 00 00 

0000000000006550 <__nptl_setxid>:
    6550:	55                   	push   %rbp
    6551:	be 01 00 00 00       	mov    $0x1,%esi
    6556:	31 c0                	xor    %eax,%eax
    6558:	48 89 e5             	mov    %rsp,%rbp
    655b:	41 57                	push   %r15
    655d:	41 56                	push   %r14
    655f:	41 55                	push   %r13
    6561:	41 54                	push   %r12
    6563:	53                   	push   %rbx
    6564:	48 89 fb             	mov    %rdi,%rbx
    6567:	f0 0f b1 35 41 5d 21 	lock cmpxchg %esi,0x215d41(%rip)        # 21c2b0 <stack_cache_lock>
    656e:	00 
    656f:	0f 85 9f 17 00 00    	jne    7d14 <_L_lock_660>
    6575:	4c 8b 2d c4 1c 21 00 	mov    0x211cc4(%rip),%r13        # 218240 <stack_used>
    657c:	4c 8d 35 bd 1c 21 00 	lea    0x211cbd(%rip),%r14        # 218240 <stack_used>
    6583:	48 89 1d 9e 5d 21 00 	mov    %rbx,0x215d9e(%rip)        # 21c328 <__xidcmd>
    658a:	64 4c 8b 24 25 10 00 	mov    %fs:0x10,%r12
    6591:	00 00 
    6593:	c7 43 20 00 00 00 00 	movl   $0x0,0x20(%rbx)
    659a:	4d 39 f5             	cmp    %r14,%r13
    659d:	74 1e                	je     65bd <__nptl_setxid+0x6d>
    659f:	90                   	nop
    65a0:	49 8d b5 40 fd ff ff 	lea    -0x2c0(%r13),%rsi
    65a7:	49 39 f4             	cmp    %rsi,%r12
    65aa:	74 08                	je     65b4 <__nptl_setxid+0x64>
    65ac:	48 89 df             	mov    %rbx,%rdi
    65af:	e8 dc fe ff ff       	callq  6490 <setxid_mark_thread>
    65b4:	4d 8b 6d 00          	mov    0x0(%r13),%r13
    65b8:	4d 39 f5             	cmp    %r14,%r13
    65bb:	75 e3                	jne    65a0 <__nptl_setxid+0x50>
    65bd:	4c 8b 2d dc 5c 21 00 	mov    0x215cdc(%rip),%r13        # 21c2a0 <__GI___stack_user>
    65c4:	4c 8d 3d d5 5c 21 00 	lea    0x215cd5(%rip),%r15        # 21c2a0 <__GI___stack_user>
    65cb:	4d 39 fd             	cmp    %r15,%r13
    65ce:	74 1d                	je     65ed <__nptl_setxid+0x9d>
    65d0:	49 8d b5 40 fd ff ff 	lea    -0x2c0(%r13),%rsi
    65d7:	49 39 f4             	cmp    %rsi,%r12
    65da:	74 08                	je     65e4 <__nptl_setxid+0x94>
    65dc:	48 89 df             	mov    %rbx,%rdi
    65df:	e8 ac fe ff ff       	callq  6490 <setxid_mark_thread>
    65e4:	4d 8b 6d 00          	mov    0x0(%r13),%r13
    65e8:	4d 39 fd             	cmp    %r15,%r13
    65eb:	75 e3                	jne    65d0 <__nptl_setxid+0x80>
    65ed:	4c 8d 6b 20          	lea    0x20(%rbx),%r13
    65f1:	0f 1f 80 00 00 00 00 	nopl   0x0(%rax)
    65f8:	4c 8b 0d 41 1c 21 00 	mov    0x211c41(%rip),%r9        # 218240 <stack_used>
    65ff:	45 31 c0             	xor    %r8d,%r8d
    6602:	4d 39 f1             	cmp    %r14,%r9
    6605:	75 42                	jne    6649 <__nptl_setxid+0xf9>
    6607:	eb 5f                	jmp    6668 <__nptl_setxid+0x118>
    6609:	0f 1f 80 00 00 00 00 	nopl   0x0(%rax)
    6610:	48 63 b0 d0 02 00 00 	movslq 0x2d0(%rax),%rsi
    6617:	64 8b 3c 25 d4 02 00 	mov    %fs:0x2d4,%edi
    661e:	00 
    661f:	ba 21 00 00 00       	mov    $0x21,%edx
    6624:	48 63 ff             	movslq %edi,%rdi
    6627:	b8 ea 00 00 00       	mov    $0xea,%eax
    662c:	0f 05                	syscall 
    662e:	3d 00 f0 ff ff       	cmp    $0xfffff000,%eax
    6633:	77 29                	ja     665e <__nptl_setxid+0x10e>
    6635:	f0 ff 43 20          	lock incl 0x20(%rbx)
    6639:	b8 01 00 00 00       	mov    $0x1,%eax
    663e:	41 01 c0             	add    %eax,%r8d
    6641:	4d 8b 09             	mov    (%r9),%r9
    6644:	4d 39 f1             	cmp    %r14,%r9
    6647:	74 1f                	je     6668 <__nptl_setxid+0x118>
    6649:	49 8d 81 40 fd ff ff 	lea    -0x2c0(%r9),%rax
    6650:	49 39 c4             	cmp    %rax,%r12
    6653:	74 ec                	je     6641 <__nptl_setxid+0xf1>
    6655:	f6 80 08 03 00 00 40 	testb  $0x40,0x308(%rax)
    665c:	75 b2                	jne    6610 <__nptl_setxid+0xc0>
    665e:	31 c0                	xor    %eax,%eax
    6660:	eb dc                	jmp    663e <__nptl_setxid+0xee>
    6662:	66 0f 1f 44 00 00    	nopw   0x0(%rax,%rax,1)
    6668:	4c 8b 0d 31 5c 21 00 	mov    0x215c31(%rip),%r9        # 21c2a0 <__GI___stack_user>
    666f:	4d 39 f9             	cmp    %r15,%r9
    6672:	75 45                	jne    66b9 <__nptl_setxid+0x169>
    6674:	eb 77                	jmp    66ed <__nptl_setxid+0x19d>
    6676:	66 2e 0f 1f 84 00 00 	nopw   %cs:0x0(%rax,%rax,1)
    667d:	00 00 00 
    6680:	48 63 b0 d0 02 00 00 	movslq 0x2d0(%rax),%rsi
    6687:	64 8b 3c 25 d4 02 00 	mov    %fs:0x2d4,%edi
    668e:	00 
    668f:	ba 21 00 00 00       	mov    $0x21,%edx
    6694:	48 63 ff             	movslq %edi,%rdi
    6697:	b8 ea 00 00 00       	mov    $0xea,%eax
    669c:	0f 05                	syscall 
    669e:	3d 00 f0 ff ff       	cmp    $0xfffff000,%eax
    66a3:	77 29                	ja     66ce <__nptl_setxid+0x17e>
    66a5:	f0 ff 43 20          	lock incl 0x20(%rbx)
    66a9:	b8 01 00 00 00       	mov    $0x1,%eax
    66ae:	41 01 c0             	add    %eax,%r8d
    66b1:	4d 8b 09             	mov    (%r9),%r9
    66b4:	4d 39 f9             	cmp    %r15,%r9
    66b7:	74 34                	je     66ed <__nptl_setxid+0x19d>
    66b9:	49 8d 81 40 fd ff ff 	lea    -0x2c0(%r9),%rax
    66c0:	49 39 c4             	cmp    %rax,%r12
    66c3:	74 ec                	je     66b1 <__nptl_setxid+0x161>
    66c5:	f6 80 08 03 00 00 40 	testb  $0x40,0x308(%rax)
    66cc:	75 b2                	jne    6680 <__nptl_setxid+0x130>
    66ce:	31 c0                	xor    %eax,%eax
    66d0:	eb dc                	jmp    66ae <__nptl_setxid+0x15e>
    66d2:	66 0f 1f 44 00 00    	nopw   0x0(%rax,%rax,1)
    66d8:	45 31 d2             	xor    %r10d,%r10d
    66db:	64 8b 34 25 48 00 00 	mov    %fs:0x48,%esi
    66e2:	00 
    66e3:	b8 ca 00 00 00       	mov    $0xca,%eax
    66e8:	4c 89 ef             	mov    %r13,%rdi
    66eb:	0f 05                	syscall 
    66ed:	8b 53 20             	mov    0x20(%rbx),%edx
    66f0:	85 d2                	test   %edx,%edx
    66f2:	75 e4                	jne    66d8 <__nptl_setxid+0x188>
    66f4:	45 85 c0             	test   %r8d,%r8d
    66f7:	0f 85 fb fe ff ff    	jne    65f8 <__nptl_setxid+0xa8>
    66fd:	4c 8b 05 3c 1b 21 00 	mov    0x211b3c(%rip),%r8        # 218240 <stack_used>
    6704:	4d 39 f0             	cmp    %r14,%r8
    6707:	74 5a                	je     6763 <__nptl_setxid+0x213>
    6709:	41 b9 ca 00 00 00    	mov    $0xca,%r9d
    670f:	90                   	nop
    6710:	49 8d b8 40 fd ff ff 	lea    -0x2c0(%r8),%rdi
    6717:	49 39 fc             	cmp    %rdi,%r12
    671a:	74 3f                	je     675b <__nptl_setxid+0x20b>
    671c:	49 8d 50 48          	lea    0x48(%r8),%rdx
    6720:	8b 87 08 03 00 00    	mov    0x308(%rdi),%eax
    6726:	a8 40                	test   $0x40,%al
    6728:	74 31                	je     675b <__nptl_setxid+0x20b>
    672a:	89 c1                	mov    %eax,%ecx
    672c:	83 e1 bf             	and    $0xffffffbf,%ecx
    672f:	f0 0f b1 0a          	lock cmpxchg %ecx,(%rdx)
    6733:	75 eb                	jne    6720 <__nptl_setxid+0x1d0>
    6735:	c7 87 1c 06 00 00 01 	movl   $0x1,0x61c(%rdi)
    673c:	00 00 00 
    673f:	ba 01 00 00 00       	mov    $0x1,%edx
    6744:	64 8b 34 25 48 00 00 	mov    %fs:0x48,%esi
    674b:	00 
    674c:	48 81 c7 1c 06 00 00 	add    $0x61c,%rdi
    6753:	83 ce 01             	or     $0x1,%esi
    6756:	44 89 c8             	mov    %r9d,%eax
    6759:	0f 05                	syscall 
    675b:	4d 8b 00             	mov    (%r8),%r8
    675e:	4d 39 f0             	cmp    %r14,%r8
    6761:	75 ad                	jne    6710 <__nptl_setxid+0x1c0>
    6763:	4c 8b 05 36 5b 21 00 	mov    0x215b36(%rip),%r8        # 21c2a0 <__GI___stack_user>
    676a:	4d 39 f8             	cmp    %r15,%r8
    676d:	74 64                	je     67d3 <__nptl_setxid+0x283>
    676f:	41 b9 ca 00 00 00    	mov    $0xca,%r9d
    6775:	0f 1f 00             	nopl   (%rax)
    6778:	49 8d b8 40 fd ff ff 	lea    -0x2c0(%r8),%rdi
    677f:	49 39 fc             	cmp    %rdi,%r12
    6782:	74 47                	je     67cb <__nptl_setxid+0x27b>
    6784:	49 8d 50 48          	lea    0x48(%r8),%rdx
    6788:	0f 1f 84 00 00 00 00 	nopl   0x0(%rax,%rax,1)
    678f:	00 
    6790:	8b 87 08 03 00 00    	mov    0x308(%rdi),%eax
    6796:	a8 40                	test   $0x40,%al
    6798:	74 31                	je     67cb <__nptl_setxid+0x27b>
    679a:	89 c1                	mov    %eax,%ecx
    679c:	83 e1 bf             	and    $0xffffffbf,%ecx
    679f:	f0 0f b1 0a          	lock cmpxchg %ecx,(%rdx)
    67a3:	75 eb                	jne    6790 <__nptl_setxid+0x240>
    67a5:	c7 87 1c 06 00 00 01 	movl   $0x1,0x61c(%rdi)
    67ac:	00 00 00 
    67af:	ba 01 00 00 00       	mov    $0x1,%edx
    67b4:	64 8b 34 25 48 00 00 	mov    %fs:0x48,%esi
    67bb:	00 
    67bc:	48 81 c7 1c 06 00 00 	add    $0x61c,%rdi
    67c3:	83 ce 01             	or     $0x1,%esi
    67c6:	44 89 c8             	mov    %r9d,%eax
    67c9:	0f 05                	syscall 
    67cb:	4d 8b 00             	mov    (%r8),%r8
    67ce:	4d 39 f8             	cmp    %r15,%r8
    67d1:	75 a5                	jne    6778 <__nptl_setxid+0x228>
    67d3:	48 8b 73 10          	mov    0x10(%rbx),%rsi
    67d7:	48 8b 7b 08          	mov    0x8(%rbx),%rdi
    67db:	48 8b 53 18          	mov    0x18(%rbx),%rdx
    67df:	8b 03                	mov    (%rbx),%eax
    67e1:	0f 05                	syscall 
    67e3:	3d 00 f0 ff ff       	cmp    $0xfffff000,%eax
    67e8:	89 c2                	mov    %eax,%edx
    67ea:	77 1a                	ja     6806 <__nptl_setxid+0x2b6>
    67ec:	f0 ff 0d bd 5a 21 00 	lock decl 0x215abd(%rip)        # 21c2b0 <stack_cache_lock>
    67f3:	0f 85 3a 15 00 00    	jne    7d33 <_L_unlock_903>
    67f9:	5b                   	pop    %rbx
    67fa:	41 5c                	pop    %r12
    67fc:	41 5d                	pop    %r13
    67fe:	41 5e                	pop    %r14
    6800:	89 d0                	mov    %edx,%eax
    6802:	41 5f                	pop    %r15
    6804:	c9                   	leaveq 
    6805:	c3                   	retq   
    6806:	48 8b 05 73 17 21 00 	mov    0x211773(%rip),%rax        # 217f80 <_DYNAMIC+0x1f0>
    680d:	f7 da                	neg    %edx
    680f:	64 89 10             	mov    %edx,%fs:(%rax)
    6812:	83 ca ff             	or     $0xffffffff,%edx
    6815:	eb d5                	jmp    67ec <__nptl_setxid+0x29c>
    6817:	66 0f 1f 84 00 00 00 	nopw   0x0(%rax,%rax,1)
    681e:	00 00 

0000000000006820 <__pthread_init_static_tls>:
    6820:	55                   	push   %rbp
    6821:	be 01 00 00 00       	mov    $0x1,%esi
    6826:	31 c0                	xor    %eax,%eax
    6828:	48 89 e5             	mov    %rsp,%rbp
    682b:	41 56                	push   %r14
    682d:	41 55                	push   %r13
    682f:	41 54                	push   %r12
    6831:	53                   	push   %rbx
    6832:	48 89 fb             	mov    %rdi,%rbx
    6835:	f0 0f b1 35 73 5a 21 	lock cmpxchg %esi,0x215a73(%rip)        # 21c2b0 <stack_cache_lock>
    683c:	00 
    683d:	0f 85 0f 15 00 00    	jne    7d52 <_L_lock_937>
    6843:	4c 8b 25 f6 19 21 00 	mov    0x2119f6(%rip),%r12        # 218240 <stack_used>
    684a:	4c 8d 35 ef 19 21 00 	lea    0x2119ef(%rip),%r14        # 218240 <stack_used>
    6851:	4d 39 f4             	cmp    %r14,%r12
    6854:	74 75                	je     68cb <__pthread_init_static_tls+0xab>
    6856:	66 2e 0f 1f 84 00 00 	nopw   %cs:0x0(%rax,%rax,1)
    685d:	00 00 00 
    6860:	4c 89 e0             	mov    %r12,%rax
    6863:	48 2b 83 40 04 00 00 	sub    0x440(%rbx),%rax
    686a:	49 8b 94 24 48 fd ff 	mov    -0x2b8(%r12),%rdx
    6871:	ff 
    6872:	48 8d b8 40 fd ff ff 	lea    -0x2c0(%rax),%rdi
    6879:	48 8b 83 48 04 00 00 	mov    0x448(%rbx),%rax
    6880:	48 c1 e0 04          	shl    $0x4,%rax
    6884:	48 89 3c 10          	mov    %rdi,(%rax,%rdx,1)
    6888:	48 8b 83 48 04 00 00 	mov    0x448(%rbx),%rax
    688f:	48 c1 e0 04          	shl    $0x4,%rax
    6893:	c6 44 10 08 01       	movb   $0x1,0x8(%rax,%rdx,1)
    6898:	48 8b 93 20 04 00 00 	mov    0x420(%rbx),%rdx
    689f:	4c 8b ab 28 04 00 00 	mov    0x428(%rbx),%r13
    68a6:	48 8b b3 18 04 00 00 	mov    0x418(%rbx),%rsi
    68ad:	49 29 d5             	sub    %rdx,%r13
    68b0:	e8 3b ed ff ff       	callq  55f0 <mempcpy@plt>
    68b5:	31 f6                	xor    %esi,%esi
    68b7:	4c 89 ea             	mov    %r13,%rdx
    68ba:	48 89 c7             	mov    %rax,%rdi
    68bd:	e8 2e eb ff ff       	callq  53f0 <memset@plt>
    68c2:	4d 8b 24 24          	mov    (%r12),%r12
    68c6:	4d 39 f4             	cmp    %r14,%r12
    68c9:	75 95                	jne    6860 <__pthread_init_static_tls+0x40>
    68cb:	4c 8b 25 ce 59 21 00 	mov    0x2159ce(%rip),%r12        # 21c2a0 <__GI___stack_user>
    68d2:	4c 8d 35 c7 59 21 00 	lea    0x2159c7(%rip),%r14        # 21c2a0 <__GI___stack_user>
    68d9:	4d 39 f4             	cmp    %r14,%r12
    68dc:	74 6d                	je     694b <__pthread_init_static_tls+0x12b>
    68de:	66 90                	xchg   %ax,%ax
    68e0:	4c 89 e0             	mov    %r12,%rax
    68e3:	48 2b 83 40 04 00 00 	sub    0x440(%rbx),%rax
    68ea:	49 8b 94 24 48 fd ff 	mov    -0x2b8(%r12),%rdx
    68f1:	ff 
    68f2:	48 8d b8 40 fd ff ff 	lea    -0x2c0(%rax),%rdi
    68f9:	48 8b 83 48 04 00 00 	mov    0x448(%rbx),%rax
    6900:	48 c1 e0 04          	shl    $0x4,%rax
    6904:	48 89 3c 10          	mov    %rdi,(%rax,%rdx,1)
    6908:	48 8b 83 48 04 00 00 	mov    0x448(%rbx),%rax
    690f:	48 c1 e0 04          	shl    $0x4,%rax
    6913:	c6 44 10 08 01       	movb   $0x1,0x8(%rax,%rdx,1)
    6918:	48 8b 93 20 04 00 00 	mov    0x420(%rbx),%rdx
    691f:	4c 8b ab 28 04 00 00 	mov    0x428(%rbx),%r13
    6926:	48 8b b3 18 04 00 00 	mov    0x418(%rbx),%rsi
    692d:	49 29 d5             	sub    %rdx,%r13
    6930:	e8 bb ec ff ff       	callq  55f0 <mempcpy@plt>
    6935:	31 f6                	xor    %esi,%esi
    6937:	4c 89 ea             	mov    %r13,%rdx
    693a:	48 89 c7             	mov    %rax,%rdi
    693d:	e8 ae ea ff ff       	callq  53f0 <memset@plt>
    6942:	4d 8b 24 24          	mov    (%r12),%r12
    6946:	4d 39 f4             	cmp    %r14,%r12
    6949:	75 95                	jne    68e0 <__pthread_init_static_tls+0xc0>
    694b:	f0 ff 0d 5e 59 21 00 	lock decl 0x21595e(%rip)        # 21c2b0 <stack_cache_lock>
    6952:	0f 85 19 14 00 00    	jne    7d71 <_L_unlock_1002>
    6958:	5b                   	pop    %rbx
    6959:	41 5c                	pop    %r12
    695b:	41 5d                	pop    %r13
    695d:	41 5e                	pop    %r14
    695f:	c9                   	leaveq 
    6960:	c3                   	retq   
    6961:	66 66 66 66 66 66 2e 	data32 data32 data32 data32 data32 nopw %cs:0x0(%rax,%rax,1)
    6968:	0f 1f 84 00 00 00 00 
    696f:	00 

0000000000006970 <__make_stacks_executable>:
    6970:	55                   	push   %rbp
    6971:	48 89 e5             	mov    %rsp,%rbp
    6974:	41 54                	push   %r12
    6976:	53                   	push   %rbx
    6977:	e8 f4 eb ff ff       	callq  5570 <_dl_make_stack_executable@plt>
    697c:	85 c0                	test   %eax,%eax
    697e:	89 c2                	mov    %eax,%edx
    6980:	75 7e                	jne    6a00 <__make_stacks_executable+0x90>
    6982:	be 01 00 00 00       	mov    $0x1,%esi
    6987:	f0 0f b1 35 21 59 21 	lock cmpxchg %esi,0x215921(%rip)        # 21c2b0 <stack_cache_lock>
    698e:	00 
    698f:	0f 85 fb 13 00 00    	jne    7d90 <_L_lock_1026>
    6995:	48 8b 1d a4 18 21 00 	mov    0x2118a4(%rip),%rbx        # 218240 <stack_used>
    699c:	4c 8d 25 9d 18 21 00 	lea    0x21189d(%rip),%r12        # 218240 <stack_used>
    69a3:	4c 39 e3             	cmp    %r12,%rbx
    69a6:	75 10                	jne    69b8 <__make_stacks_executable+0x48>
    69a8:	eb 66                	jmp    6a10 <__make_stacks_executable+0xa0>
    69aa:	66 0f 1f 44 00 00    	nopw   0x0(%rax,%rax,1)
    69b0:	48 8b 1b             	mov    (%rbx),%rbx
    69b3:	4c 39 e3             	cmp    %r12,%rbx
    69b6:	74 58                	je     6a10 <__make_stacks_executable+0xa0>
    69b8:	48 8d 83 40 fd ff ff 	lea    -0x2c0(%rbx),%rax
    69bf:	ba 07 00 00 00       	mov    $0x7,%edx
    69c4:	48 8b b8 a0 06 00 00 	mov    0x6a0(%rax),%rdi
    69cb:	48 8b b0 98 06 00 00 	mov    0x698(%rax),%rsi
    69d2:	48 29 fe             	sub    %rdi,%rsi
    69d5:	48 03 b8 90 06 00 00 	add    0x690(%rax),%rdi
    69dc:	e8 5f ec ff ff       	callq  5640 <mprotect@plt>
    69e1:	85 c0                	test   %eax,%eax
    69e3:	74 cb                	je     69b0 <__make_stacks_executable+0x40>
    69e5:	48 8b 05 94 15 21 00 	mov    0x211594(%rip),%rax        # 217f80 <_DYNAMIC+0x1f0>
    69ec:	64 8b 10             	mov    %fs:(%rax),%edx
    69ef:	85 d2                	test   %edx,%edx
    69f1:	74 bd                	je     69b0 <__make_stacks_executable+0x40>
    69f3:	f0 ff 0d b6 58 21 00 	lock decl 0x2158b6(%rip)        # 21c2b0 <stack_cache_lock>
    69fa:	0f 85 af 13 00 00    	jne    7daf <_L_unlock_1057>
    6a00:	5b                   	pop    %rbx
    6a01:	89 d0                	mov    %edx,%eax
    6a03:	41 5c                	pop    %r12
    6a05:	c9                   	leaveq 
    6a06:	c3                   	retq   
    6a07:	66 0f 1f 84 00 00 00 	nopw   0x0(%rax,%rax,1)
    6a0e:	00 00 
    6a10:	48 8b 1d 39 18 21 00 	mov    0x211839(%rip),%rbx        # 218250 <stack_cache>
    6a17:	4c 8d 25 32 18 21 00 	lea    0x211832(%rip),%r12        # 218250 <stack_cache>
    6a1e:	4c 39 e3             	cmp    %r12,%rbx
    6a21:	75 0d                	jne    6a30 <__make_stacks_executable+0xc0>
    6a23:	eb 4e                	jmp    6a73 <__make_stacks_executable+0x103>
    6a25:	0f 1f 00             	nopl   (%rax)
    6a28:	48 8b 1b             	mov    (%rbx),%rbx
    6a2b:	4c 39 e3             	cmp    %r12,%rbx
    6a2e:	74 43                	je     6a73 <__make_stacks_executable+0x103>
    6a30:	48 8d 83 40 fd ff ff 	lea    -0x2c0(%rbx),%rax
    6a37:	ba 07 00 00 00       	mov    $0x7,%edx
    6a3c:	48 8b b8 a0 06 00 00 	mov    0x6a0(%rax),%rdi
    6a43:	48 8b b0 98 06 00 00 	mov    0x698(%rax),%rsi
    6a4a:	48 29 fe             	sub    %rdi,%rsi
    6a4d:	48 03 b8 90 06 00 00 	add    0x690(%rax),%rdi
    6a54:	e8 e7 eb ff ff       	callq  5640 <mprotect@plt>
    6a59:	85 c0                	test   %eax,%eax
    6a5b:	74 cb                	je     6a28 <__make_stacks_executable+0xb8>
    6a5d:	48 8b 05 1c 15 21 00 	mov    0x21151c(%rip),%rax        # 217f80 <_DYNAMIC+0x1f0>
    6a64:	64 8b 10             	mov    %fs:(%rax),%edx
    6a67:	85 d2                	test   %edx,%edx
    6a69:	75 88                	jne    69f3 <__make_stacks_executable+0x83>
    6a6b:	48 8b 1b             	mov    (%rbx),%rbx
    6a6e:	4c 39 e3             	cmp    %r12,%rbx
    6a71:	75 bd                	jne    6a30 <__make_stacks_executable+0xc0>
    6a73:	31 d2                	xor    %edx,%edx
    6a75:	e9 79 ff ff ff       	jmpq   69f3 <__make_stacks_executable+0x83>
    6a7a:	66 0f 1f 44 00 00    	nopw   0x0(%rax,%rax,1)

0000000000006a80 <__free_stacks>:
    6a80:	55                   	push   %rbp
    6a81:	48 8b 05 d0 17 21 00 	mov    0x2117d0(%rip),%rax        # 218258 <stack_cache+0x8>
    6a88:	48 89 e5             	mov    %rsp,%rbp
    6a8b:	41 56                	push   %r14
    6a8d:	41 55                	push   %r13
    6a8f:	49 89 fd             	mov    %rdi,%r13
    6a92:	41 54                	push   %r12
    6a94:	4c 8d 25 b5 17 21 00 	lea    0x2117b5(%rip),%r12        # 218250 <stack_cache>
    6a9b:	4c 39 e0             	cmp    %r12,%rax
    6a9e:	53                   	push   %rbx
    6a9f:	48 8b 58 08          	mov    0x8(%rax),%rbx
    6aa3:	75 1a                	jne    6abf <__free_stacks+0x3f>
    6aa5:	e9 86 00 00 00       	jmpq   6b30 <__free_stacks+0xb0>
    6aaa:	66 0f 1f 44 00 00    	nopw   0x0(%rax,%rax,1)
    6ab0:	4c 39 e3             	cmp    %r12,%rbx
    6ab3:	48 8b 53 08          	mov    0x8(%rbx),%rdx
    6ab7:	48 89 d8             	mov    %rbx,%rax
    6aba:	74 74                	je     6b30 <__free_stacks+0xb0>
    6abc:	48 89 d3             	mov    %rdx,%rbx
    6abf:	4c 8d b0 40 fd ff ff 	lea    -0x2c0(%rax),%r14
    6ac6:	41 8b 8e d0 02 00 00 	mov    0x2d0(%r14),%ecx
    6acd:	85 c9                	test   %ecx,%ecx
    6acf:	7f df                	jg     6ab0 <__free_stacks+0x30>
    6ad1:	48 89 05 f8 57 21 00 	mov    %rax,0x2157f8(%rip)        # 21c2d0 <in_flight_stack>
    6ad8:	48 8b 10             	mov    (%rax),%rdx
    6adb:	48 8b 48 08          	mov    0x8(%rax),%rcx
    6adf:	48 89 4a 08          	mov    %rcx,0x8(%rdx)
    6ae3:	48 8b 40 08          	mov    0x8(%rax),%rax
    6ae7:	48 89 10             	mov    %rdx,(%rax)
    6aea:	31 f6                	xor    %esi,%esi
    6aec:	4c 89 f7             	mov    %r14,%rdi
    6aef:	49 8b 86 98 06 00 00 	mov    0x698(%r14),%rax
    6af6:	48 c7 05 cf 57 21 00 	movq   $0x0,0x2157cf(%rip)        # 21c2d0 <in_flight_stack>
    6afd:	00 00 00 00 
    6b01:	48 29 05 c0 57 21 00 	sub    %rax,0x2157c0(%rip)        # 21c2c8 <stack_cache_actsize>
    6b08:	e8 33 e9 ff ff       	callq  5440 <_dl_deallocate_tls@plt>
    6b0d:	49 8b b6 98 06 00 00 	mov    0x698(%r14),%rsi
    6b14:	49 8b be 90 06 00 00 	mov    0x690(%r14),%rdi
    6b1b:	e8 c0 ea ff ff       	callq  55e0 <munmap@plt>
    6b20:	85 c0                	test   %eax,%eax
    6b22:	75 15                	jne    6b39 <__free_stacks+0xb9>
    6b24:	4c 39 2d 9d 57 21 00 	cmp    %r13,0x21579d(%rip)        # 21c2c8 <stack_cache_actsize>
    6b2b:	77 83                	ja     6ab0 <__free_stacks+0x30>
    6b2d:	0f 1f 00             	nopl   (%rax)
    6b30:	5b                   	pop    %rbx
    6b31:	41 5c                	pop    %r12
    6b33:	41 5d                	pop    %r13
    6b35:	41 5e                	pop    %r14
    6b37:	c9                   	leaveq 
    6b38:	c3                   	retq   
    6b39:	e8 c2 e7 ff ff       	callq  5300 <abort@plt>
    6b3e:	66 90                	xchg   %ax,%ax

0000000000006b40 <__deallocate_stack>:
    6b40:	55                   	push   %rbp
    6b41:	48 89 fa             	mov    %rdi,%rdx
    6b44:	be 01 00 00 00       	mov    $0x1,%esi
    6b49:	31 c0                	xor    %eax,%eax
    6b4b:	48 89 e5             	mov    %rsp,%rbp
    6b4e:	53                   	push   %rbx
    6b4f:	48 83 ec 08          	sub    $0x8,%rsp
    6b53:	f0 0f b1 35 55 57 21 	lock cmpxchg %esi,0x215755(%rip)        # 21c2b0 <stack_cache_lock>
    6b5a:	00 
    6b5b:	0f 85 6d 12 00 00    	jne    7dce <_L_lock_1190>
    6b61:	48 8d 82 c0 02 00 00 	lea    0x2c0(%rdx),%rax
    6b68:	48 89 05 61 57 21 00 	mov    %rax,0x215761(%rip)        # 21c2d0 <in_flight_stack>
    6b6f:	48 8b 8a c0 02 00 00 	mov    0x2c0(%rdx),%rcx
    6b76:	48 8b b2 c8 02 00 00 	mov    0x2c8(%rdx),%rsi
    6b7d:	48 89 71 08          	mov    %rsi,0x8(%rcx)
    6b81:	48 8b b2 c8 02 00 00 	mov    0x2c8(%rdx),%rsi
    6b88:	48 89 0e             	mov    %rcx,(%rsi)
    6b8b:	80 ba 12 06 00 00 00 	cmpb   $0x0,0x612(%rdx)
    6b92:	48 c7 05 33 57 21 00 	movq   $0x0,0x215733(%rip)        # 21c2d0 <in_flight_stack>
    6b99:	00 00 00 00 
    6b9d:	75 71                	jne    6c10 <__deallocate_stack+0xd0>
    6b9f:	48 89 c1             	mov    %rax,%rcx
    6ba2:	48 83 c9 01          	or     $0x1,%rcx
    6ba6:	48 89 0d 23 57 21 00 	mov    %rcx,0x215723(%rip)        # 21c2d0 <in_flight_stack>
    6bad:	48 8b 0d 9c 16 21 00 	mov    0x21169c(%rip),%rcx        # 218250 <stack_cache>
    6bb4:	48 8d 1d 95 16 21 00 	lea    0x211695(%rip),%rbx        # 218250 <stack_cache>
    6bbb:	48 89 9a c8 02 00 00 	mov    %rbx,0x2c8(%rdx)
    6bc2:	48 89 8a c0 02 00 00 	mov    %rcx,0x2c0(%rdx)
    6bc9:	48 89 41 08          	mov    %rax,0x8(%rcx)
    6bcd:	48 89 05 7c 16 21 00 	mov    %rax,0x21167c(%rip)        # 218250 <stack_cache>
    6bd4:	48 8b 05 ed 56 21 00 	mov    0x2156ed(%rip),%rax        # 21c2c8 <stack_cache_actsize>
    6bdb:	48 03 82 98 06 00 00 	add    0x698(%rdx),%rax
    6be2:	48 c7 05 e3 56 21 00 	movq   $0x0,0x2156e3(%rip)        # 21c2d0 <in_flight_stack>
    6be9:	00 00 00 00 
    6bed:	48 3d 00 00 80 02    	cmp    $0x2800000,%rax
    6bf3:	48 89 05 ce 56 21 00 	mov    %rax,0x2156ce(%rip)        # 21c2c8 <stack_cache_actsize>
    6bfa:	77 20                	ja     6c1c <__deallocate_stack+0xdc>
    6bfc:	f0 ff 0d ad 56 21 00 	lock decl 0x2156ad(%rip)        # 21c2b0 <stack_cache_lock>
    6c03:	0f 85 e4 11 00 00    	jne    7ded <_L_unlock_1225>
    6c09:	48 83 c4 08          	add    $0x8,%rsp
    6c0d:	5b                   	pop    %rbx
    6c0e:	c9                   	leaveq 
    6c0f:	c3                   	retq   
    6c10:	31 f6                	xor    %esi,%esi
    6c12:	48 89 d7             	mov    %rdx,%rdi
    6c15:	e8 26 e8 ff ff       	callq  5440 <_dl_deallocate_tls@plt>
    6c1a:	eb e0                	jmp    6bfc <__deallocate_stack+0xbc>
    6c1c:	bf 00 00 80 02       	mov    $0x2800000,%edi
    6c21:	e8 5a fe ff ff       	callq  6a80 <__free_stacks>
    6c26:	eb d4                	jmp    6bfc <__deallocate_stack+0xbc>
    6c28:	0f 1f 84 00 00 00 00 	nopl   0x0(%rax,%rax,1)
    6c2f:	00 

0000000000006c30 <__free_tcb>:
    6c30:	55                   	push   %rbp
    6c31:	48 89 e5             	mov    %rsp,%rbp
    6c34:	53                   	push   %rbx
    6c35:	48 89 fb             	mov    %rdi,%rbx
    6c38:	48 83 ec 08          	sub    $0x8,%rsp
    6c3c:	f0 0f ba af 08 03 00 	lock btsl $0x5,0x308(%rdi)
    6c43:	00 05 
    6c45:	0f 92 c0             	setb   %al
    6c48:	84 c0                	test   %al,%al
    6c4a:	75 1a                	jne    6c66 <__free_tcb+0x36>
    6c4c:	48 8b bf b0 06 00 00 	mov    0x6b0(%rdi),%rdi
    6c53:	48 85 ff             	test   %rdi,%rdi
    6c56:	75 12                	jne    6c6a <__free_tcb+0x3a>
    6c58:	48 83 c4 08          	add    $0x8,%rsp
    6c5c:	48 89 df             	mov    %rbx,%rdi
    6c5f:	5b                   	pop    %rbx
    6c60:	c9                   	leaveq 
    6c61:	e9 da fe ff ff       	jmpq   6b40 <__deallocate_stack>
    6c66:	5b                   	pop    %rbx
    6c67:	5b                   	pop    %rbx
    6c68:	c9                   	leaveq 
    6c69:	c3                   	retq   
    6c6a:	48 c7 83 b0 06 00 00 	movq   $0x0,0x6b0(%rbx)
    6c71:	00 00 00 00 
    6c75:	e8 76 e6 ff ff       	callq  52f0 <free@plt>
    6c7a:	eb dc                	jmp    6c58 <__free_tcb+0x28>
    6c7c:	0f 1f 40 00          	nopl   0x0(%rax)

0000000000006c80 <start_thread>:
    6c80:	55                   	push   %rbp
    6c81:	48 89 e5             	mov    %rsp,%rbp
    6c84:	53                   	push   %rbx
    6c85:	48 81 ec 08 01 00 00 	sub    $0x108,%rsp
    6c8c:	48 89 bd f8 fe ff ff 	mov    %rdi,-0x108(%rbp)
    6c93:	0f 31                	rdtsc  
    6c95:	48 c1 e2 20          	shl    $0x20,%rdx
    6c99:	89 c0                	mov    %eax,%eax
    6c9b:	48 09 c2             	or     %rax,%rdx
    6c9e:	64 48 89 14 25 20 06 	mov    %rdx,%fs:0x620
    6ca5:	00 00 
    6ca7:	48 8b 05 ea 12 21 00 	mov    0x2112ea(%rip),%rax        # 217f98 <_DYNAMIC+0x208>
    6cae:	48 89 fa             	mov    %rdi,%rdx
    6cb1:	48 81 c2 b8 06 00 00 	add    $0x6b8,%rdx
    6cb8:	64 48 89 10          	mov    %rdx,%fs:(%rax)
    6cbc:	e8 cf e8 ff ff       	callq  5590 <__ctype_init@plt>
    6cc1:	31 c0                	xor    %eax,%eax
    6cc3:	48 8b 95 f8 fe ff ff 	mov    -0x108(%rbp),%rdx
    6cca:	87 82 1c 06 00 00    	xchg   %eax,0x61c(%rdx)
    6cd0:	83 f8 fe             	cmp    $0xfffffffe,%eax
    6cd3:	0f 84 55 02 00 00    	je     6f2e <start_thread+0x2ae>
    6cd9:	8b 3d 59 56 21 00    	mov    0x215659(%rip),%edi        # 21c338 <__set_robust_list_avail>
    6cdf:	85 ff                	test   %edi,%edi
    6ce1:	78 1a                	js     6cfd <start_thread+0x7d>
    6ce3:	48 8b bd f8 fe ff ff 	mov    -0x108(%rbp),%rdi
    6cea:	be 18 00 00 00       	mov    $0x18,%esi
    6cef:	b8 11 01 00 00       	mov    $0x111,%eax
    6cf4:	48 81 c7 e0 02 00 00 	add    $0x2e0,%rdi
    6cfb:	0f 05                	syscall 
    6cfd:	48 8b 8d f8 fe ff ff 	mov    -0x108(%rbp),%rcx
    6d04:	f6 81 14 06 00 00 04 	testb  $0x4,0x614(%rcx)
    6d0b:	0f 85 e5 01 00 00    	jne    6ef6 <start_thread+0x276>
    6d11:	48 8d 7d 80          	lea    -0x80(%rbp),%rdi
    6d15:	48 c7 45 c8 00 00 00 	movq   $0x0,-0x38(%rbp)
    6d1c:	00 
    6d1d:	48 c7 45 d0 00 00 00 	movq   $0x0,-0x30(%rbp)
    6d24:	00 
    6d25:	e8 46 e7 ff ff       	callq  5470 <_setjmp@plt>
    6d2a:	85 c0                	test   %eax,%eax
    6d2c:	89 c3                	mov    %eax,%ebx
    6d2e:	75 3b                	jne    6d6b <start_thread+0xeb>
    6d30:	48 8d 45 80          	lea    -0x80(%rbp),%rax
    6d34:	64 48 89 04 25 00 03 	mov    %rax,%fs:0x300
    6d3b:	00 00 
    6d3d:	48 8b 85 f8 fe ff ff 	mov    -0x108(%rbp),%rax
    6d44:	80 b8 13 06 00 00 00 	cmpb   $0x0,0x613(%rax)
    6d4b:	0f 85 56 02 00 00    	jne    6fa7 <start_thread+0x327>
    6d51:	64 48 8b 3c 25 48 06 	mov    %fs:0x648,%rdi
    6d58:	00 00 
    6d5a:	64 ff 14 25 40 06 00 	callq  *%fs:0x640
    6d61:	00 
    6d62:	64 48 89 04 25 30 06 	mov    %rax,%fs:0x630
    6d69:	00 00 
    6d6b:	e8 90 f4 ff ff       	callq  6200 <__nptl_deallocate_tsd>
    6d70:	e8 5b e7 ff ff       	callq  54d0 <__libc_thread_freeres@plt>
    6d75:	f0 ff 0d bc 14 21 00 	lock decl 0x2114bc(%rip)        # 218238 <__nptl_nthreads>
    6d7c:	0f 94 c0             	sete   %al
    6d7f:	84 c0                	test   %al,%al
    6d81:	0f 85 19 02 00 00    	jne    6fa0 <start_thread+0x320>
    6d87:	48 8b b5 f8 fe ff ff 	mov    -0x108(%rbp),%rsi
    6d8e:	80 be 11 06 00 00 00 	cmpb   $0x0,0x611(%rsi)
    6d95:	0f 85 dc 01 00 00    	jne    6f77 <start_thread+0x2f7>
    6d9b:	48 8b 85 f8 fe ff ff 	mov    -0x108(%rbp),%rax
    6da2:	f0 83 88 08 03 00 00 	lock orl $0x10,0x308(%rax)
    6da9:	10 
    6daa:	8b 35 88 55 21 00    	mov    0x215588(%rip),%esi        # 21c338 <__set_robust_list_avail>
    6db0:	4c 8b 80 e0 02 00 00 	mov    0x2e0(%rax),%r8
    6db7:	85 f6                	test   %esi,%esi
    6db9:	0f 88 99 00 00 00    	js     6e58 <start_thread+0x1d8>
    6dbf:	e8 7c e7 ff ff       	callq  5540 <__getpagesize@plt>
    6dc4:	48 8b 95 f8 fe ff ff 	mov    -0x108(%rbp),%rdx
    6dcb:	8d 70 ff             	lea    -0x1(%rax),%esi
    6dce:	48 89 e0             	mov    %rsp,%rax
    6dd1:	48 63 f6             	movslq %esi,%rsi
    6dd4:	48 8b ba 90 06 00 00 	mov    0x690(%rdx),%rdi
    6ddb:	48 f7 d6             	not    %rsi
    6dde:	48 29 f8             	sub    %rdi,%rax
    6de1:	48 21 c6             	and    %rax,%rsi
    6de4:	48 3b b2 98 06 00 00 	cmp    0x698(%rdx),%rsi
    6deb:	0f 83 67 01 00 00    	jae    6f58 <start_thread+0x2d8>
    6df1:	48 81 fe 00 40 00 00 	cmp    $0x4000,%rsi
    6df8:	77 46                	ja     6e40 <start_thread+0x1c0>
    6dfa:	48 8b 8d f8 fe ff ff 	mov    -0x108(%rbp),%rcx
    6e01:	48 39 89 28 06 00 00 	cmp    %rcx,0x628(%rcx)
    6e08:	0f 84 9a 00 00 00    	je     6ea8 <start_thread+0x228>
    6e0e:	48 8b 9d f8 fe ff ff 	mov    -0x108(%rbp),%rbx
    6e15:	f6 83 08 03 00 00 40 	testb  $0x40,0x308(%rbx)
    6e1c:	0f 85 93 00 00 00    	jne    6eb5 <start_thread+0x235>
    6e22:	31 ff                	xor    %edi,%edi
    6e24:	b8 3c 00 00 00       	mov    $0x3c,%eax
    6e29:	0f 05                	syscall 
    6e2b:	48 81 c4 08 01 00 00 	add    $0x108,%rsp
    6e32:	30 c0                	xor    %al,%al
    6e34:	5b                   	pop    %rbx
    6e35:	c9                   	leaveq 
    6e36:	c3                   	retq   
    6e37:	66 0f 1f 84 00 00 00 	nopw   0x0(%rax,%rax,1)
    6e3e:	00 00 
    6e40:	48 81 ee 00 40 00 00 	sub    $0x4000,%rsi
    6e47:	ba 04 00 00 00       	mov    $0x4,%edx
    6e4c:	e8 cf e7 ff ff       	callq  5620 <__madvise@plt>
    6e51:	eb a7                	jmp    6dfa <start_thread+0x17a>
    6e53:	0f 1f 44 00 00       	nopl   0x0(%rax,%rax,1)
    6e58:	49 89 c1             	mov    %rax,%r9
    6e5b:	49 81 c1 e0 02 00 00 	add    $0x2e0,%r9
    6e62:	4d 39 c8             	cmp    %r9,%r8
    6e65:	0f 84 54 ff ff ff    	je     6dbf <start_thread+0x13f>
    6e6b:	ba 01 00 00 00       	mov    $0x1,%edx
    6e70:	41 ba ca 00 00 00    	mov    $0xca,%r10d
    6e76:	49 8d 78 e0          	lea    -0x20(%r8),%rdi
    6e7a:	44 89 d0             	mov    %r10d,%eax
    6e7d:	4d 8b 00             	mov    (%r8),%r8
    6e80:	89 d6                	mov    %edx,%esi
    6e82:	48 c7 47 18 00 00 00 	movq   $0x0,0x18(%rdi)
    6e89:	00 
    6e8a:	48 c7 47 20 00 00 00 	movq   $0x0,0x20(%rdi)
    6e91:	00 
    6e92:	f0 81 0f 00 00 00 40 	lock orl $0x40000000,(%rdi)
    6e99:	0f 05                	syscall 
    6e9b:	4d 39 c1             	cmp    %r8,%r9
    6e9e:	75 d6                	jne    6e76 <start_thread+0x1f6>
    6ea0:	e9 1a ff ff ff       	jmpq   6dbf <start_thread+0x13f>
    6ea5:	0f 1f 00             	nopl   (%rax)
    6ea8:	48 89 cf             	mov    %rcx,%rdi
    6eab:	e8 80 fd ff ff       	callq  6c30 <__free_tcb>
    6eb0:	e9 6d ff ff ff       	jmpq   6e22 <start_thread+0x1a2>
    6eb5:	48 89 df             	mov    %rbx,%rdi
    6eb8:	41 b8 ca 00 00 00    	mov    $0xca,%r8d
    6ebe:	48 81 c7 1c 06 00 00 	add    $0x61c,%rdi
    6ec5:	45 31 d2             	xor    %r10d,%r10d
    6ec8:	31 d2                	xor    %edx,%edx
    6eca:	64 8b 34 25 48 00 00 	mov    %fs:0x48,%esi
    6ed1:	00 
    6ed2:	44 89 c0             	mov    %r8d,%eax
    6ed5:	0f 05                	syscall 
    6ed7:	48 8b b5 f8 fe ff ff 	mov    -0x108(%rbp),%rsi
    6ede:	f6 86 08 03 00 00 40 	testb  $0x40,0x308(%rsi)
    6ee5:	75 de                	jne    6ec5 <start_thread+0x245>
    6ee7:	c7 86 1c 06 00 00 00 	movl   $0x0,0x61c(%rsi)
    6eee:	00 00 00 
    6ef1:	e9 2c ff ff ff       	jmpq   6e22 <start_thread+0x1a2>
    6ef6:	48 8d b5 00 ff ff ff 	lea    -0x100(%rbp),%rsi
    6efd:	31 c0                	xor    %eax,%eax
    6eff:	b9 20 00 00 00       	mov    $0x20,%ecx
    6f04:	41 ba 08 00 00 00    	mov    $0x8,%r10d
    6f0a:	31 d2                	xor    %edx,%edx
    6f0c:	48 89 f7             	mov    %rsi,%rdi
    6f0f:	f3 ab                	rep stos %eax,%es:(%rdi)
    6f11:	b8 00 00 00 80       	mov    $0x80000000,%eax
    6f16:	bf 01 00 00 00       	mov    $0x1,%edi
    6f1b:	48 09 85 00 ff ff ff 	or     %rax,-0x100(%rbp)
    6f22:	b8 0e 00 00 00       	mov    $0xe,%eax
    6f27:	0f 05                	syscall 
    6f29:	e9 e3 fd ff ff       	jmpq   6d11 <start_thread+0x91>
    6f2e:	ba 01 00 00 00       	mov    $0x1,%edx
    6f33:	64 8b 34 25 48 00 00 	mov    %fs:0x48,%esi
    6f3a:	00 
    6f3b:	48 8b bd f8 fe ff ff 	mov    -0x108(%rbp),%rdi
    6f42:	83 ce 01             	or     $0x1,%esi
    6f45:	b8 ca 00 00 00       	mov    $0xca,%eax
    6f4a:	48 81 c7 1c 06 00 00 	add    $0x61c,%rdi
    6f51:	0f 05                	syscall 
    6f53:	e9 81 fd ff ff       	jmpq   6cd9 <start_thread+0x59>
    6f58:	48 8d 0d fa a7 00 00 	lea    0xa7fa(%rip),%rcx        # 11759 <__PRETTY_FUNCTION__.12800>
    6f5f:	48 8d 35 7e a7 00 00 	lea    0xa77e(%rip),%rsi        # 116e4 <banner+0x144>
    6f66:	48 8d 3d 0b a8 00 00 	lea    0xa80b(%rip),%rdi        # 11778 <__PRETTY_FUNCTION__.11806+0x12>
    6f6d:	ba 90 01 00 00       	mov    $0x190,%edx
    6f72:	e8 69 e4 ff ff       	callq  53e0 <__assert_fail@plt>
    6f77:	8b 86 50 06 00 00    	mov    0x650(%rsi),%eax
    6f7d:	0b 05 31 53 21 00    	or     0x215331(%rip),%eax        # 21c2b4 <__nptl_threads_events>
    6f83:	f6 c4 01             	test   $0x1,%ah
    6f86:	0f 84 0f fe ff ff    	je     6d9b <start_thread+0x11b>
    6f8c:	48 83 be 68 06 00 00 	cmpq   $0x0,0x668(%rsi)
    6f93:	00 
    6f94:	74 4d                	je     6fe3 <start_thread+0x363>
    6f96:	e8 e5 ed ff ff       	callq  5d80 <__GI___nptl_death_event>
    6f9b:	e9 fb fd ff ff       	jmpq   6d9b <start_thread+0x11b>
    6fa0:	31 ff                	xor    %edi,%edi
    6fa2:	e8 19 e7 ff ff       	callq  56c0 <exit@plt>
    6fa7:	e8 34 73 00 00       	callq  e2e0 <__pthread_enable_asynccancel>
    6fac:	be 01 00 00 00       	mov    $0x1,%esi
    6fb1:	89 c2                	mov    %eax,%edx
    6fb3:	89 d8                	mov    %ebx,%eax
    6fb5:	48 8b 9d f8 fe ff ff 	mov    -0x108(%rbp),%rbx
    6fbc:	f0 0f b1 b3 18 06 00 	lock cmpxchg %esi,0x618(%rbx)
    6fc3:	00 
    6fc4:	0f 85 42 0e 00 00    	jne    7e0c <_L_lock_1534>
    6fca:	f0 ff 8b 18 06 00 00 	lock decl 0x618(%rbx)
    6fd1:	0f 85 54 0e 00 00    	jne    7e2b <_L_unlock_1535>
    6fd7:	89 d7                	mov    %edx,%edi
    6fd9:	e8 62 73 00 00       	callq  e340 <__pthread_disable_asynccancel>
    6fde:	e9 6e fd ff ff       	jmpq   6d51 <start_thread+0xd1>
    6fe3:	c7 86 58 06 00 00 09 	movl   $0x9,0x658(%rsi)
    6fea:	00 00 00 
    6fed:	48 89 b6 60 06 00 00 	mov    %rsi,0x660(%rsi)
    6ff4:	48 89 f2             	mov    %rsi,%rdx
    6ff7:	48 8b 05 c2 52 21 00 	mov    0x2152c2(%rip),%rax        # 21c2c0 <__nptl_last_event>
    6ffe:	48 8b bd f8 fe ff ff 	mov    -0x108(%rbp),%rdi
    7005:	48 89 87 68 06 00 00 	mov    %rax,0x668(%rdi)
    700c:	f0 48 0f b1 15 ab 52 	lock cmpxchg %rdx,0x2152ab(%rip)        # 21c2c0 <__nptl_last_event>
    7013:	21 00 
    7015:	75 e0                	jne    6ff7 <start_thread+0x377>
    7017:	e9 7a ff ff ff       	jmpq   6f96 <start_thread+0x316>
    701c:	0f 1f 40 00          	nopl   0x0(%rax)

0000000000007020 <T.141>:
    7020:	55                   	push   %rbp
    7021:	49 89 d2             	mov    %rdx,%r10
    7024:	48 89 e5             	mov    %rsp,%rbp
    7027:	48 89 5d e8          	mov    %rbx,-0x18(%rbp)
    702b:	4c 89 65 f0          	mov    %r12,-0x10(%rbp)
    702f:	48 89 fb             	mov    %rdi,%rbx
    7032:	4c 89 6d f8          	mov    %r13,-0x8(%rbp)
    7036:	48 83 ec 30          	sub    $0x30,%rsp
    703a:	85 c9                	test   %ecx,%ecx
    703c:	49 89 f5             	mov    %rsi,%r13
    703f:	41 89 cc             	mov    %ecx,%r12d
    7042:	75 58                	jne    709c <T.141+0x7c>
    7044:	f0 ff 05 ed 11 21 00 	lock incl 0x2111ed(%rip)        # 218238 <__nptl_nthreads>
    704b:	48 8d 3d 2e fc ff ff 	lea    -0x3d2(%rip),%rdi        # 6c80 <start_thread>
    7052:	4c 8d 83 d0 02 00 00 	lea    0x2d0(%rbx),%r8
    7059:	31 c0                	xor    %eax,%eax
    705b:	49 89 d9             	mov    %rbx,%r9
    705e:	48 89 d9             	mov    %rbx,%rcx
    7061:	ba 00 0f 3d 00       	mov    $0x3d0f00,%edx
    7066:	4c 89 d6             	mov    %r10,%rsi
    7069:	4c 89 04 24          	mov    %r8,(%rsp)
    706d:	e8 6e e2 ff ff       	callq  52e0 <__clone@plt>
    7072:	83 f8 ff             	cmp    $0xffffffff,%eax
    7075:	0f 84 bd 00 00 00    	je     7138 <T.141+0x118>
    707b:	45 85 e4             	test   %r12d,%r12d
    707e:	75 33                	jne    70b3 <T.141+0x93>
    7080:	64 c7 04 25 18 00 00 	movl   $0x1,%fs:0x18
    7087:	00 01 00 00 00 
    708c:	31 c0                	xor    %eax,%eax
    708e:	48 8b 5d e8          	mov    -0x18(%rbp),%rbx
    7092:	4c 8b 65 f0          	mov    -0x10(%rbp),%r12
    7096:	4c 8b 6d f8          	mov    -0x8(%rbp),%r13
    709a:	c9                   	leaveq 
    709b:	c3                   	retq   
    709c:	be 01 00 00 00       	mov    $0x1,%esi
    70a1:	31 c0                	xor    %eax,%eax
    70a3:	f0 0f b1 b3 18 06 00 	lock cmpxchg %esi,0x618(%rbx)
    70aa:	00 
    70ab:	0f 85 99 0d 00 00    	jne    7e4a <_L_lock_1609>
    70b1:	eb 91                	jmp    7044 <T.141+0x24>
    70b3:	49 8b 55 28          	mov    0x28(%r13),%rdx
    70b7:	48 85 d2             	test   %rdx,%rdx
    70ba:	74 1c                	je     70d8 <T.141+0xb8>
    70bc:	49 8b 75 30          	mov    0x30(%r13),%rsi
    70c0:	48 63 bb d0 02 00 00 	movslq 0x2d0(%rbx),%rdi
    70c7:	b8 cb 00 00 00       	mov    $0xcb,%eax
    70cc:	0f 05                	syscall 
    70ce:	3d 00 f0 ff ff       	cmp    $0xfffff000,%eax
    70d3:	41 89 c0             	mov    %eax,%r8d
    70d6:	77 31                	ja     7109 <T.141+0xe9>
    70d8:	41 f6 45 08 02       	testb  $0x2,0x8(%r13)
    70dd:	74 a1                	je     7080 <T.141+0x60>
    70df:	48 63 b3 3c 06 00 00 	movslq 0x63c(%rbx),%rsi
    70e6:	48 63 bb d0 02 00 00 	movslq 0x2d0(%rbx),%rdi
    70ed:	48 8d 93 38 06 00 00 	lea    0x638(%rbx),%rdx
    70f4:	b8 90 00 00 00       	mov    $0x90,%eax
    70f9:	0f 05                	syscall 
    70fb:	3d 00 f0 ff ff       	cmp    $0xfffff000,%eax
    7100:	41 89 c0             	mov    %eax,%r8d
    7103:	0f 86 77 ff ff ff    	jbe    7080 <T.141+0x60>
    7109:	48 63 b3 d0 02 00 00 	movslq 0x2d0(%rbx),%rsi
    7110:	64 8b 3c 25 d4 02 00 	mov    %fs:0x2d4,%edi
    7117:	00 
    7118:	ba 20 00 00 00       	mov    $0x20,%edx
    711d:	48 63 ff             	movslq %edi,%rdi
    7120:	b8 ea 00 00 00       	mov    $0xea,%eax
    7125:	0f 05                	syscall 
    7127:	44 89 c0             	mov    %r8d,%eax
    712a:	f7 d8                	neg    %eax
    712c:	e9 5d ff ff ff       	jmpq   708e <T.141+0x6e>
    7131:	0f 1f 80 00 00 00 00 	nopl   0x0(%rax)
    7138:	f0 ff 0d f9 10 21 00 	lock decl 0x2110f9(%rip)        # 218238 <__nptl_nthreads>
    713f:	31 c0                	xor    %eax,%eax
    7141:	87 83 1c 06 00 00    	xchg   %eax,0x61c(%rbx)
    7147:	83 f8 fe             	cmp    $0xfffffffe,%eax
    714a:	74 22                	je     716e <T.141+0x14e>
    714c:	48 89 df             	mov    %rbx,%rdi
    714f:	e8 ec f9 ff ff       	callq  6b40 <__deallocate_stack>
    7154:	48 8b 05 25 0e 21 00 	mov    0x210e25(%rip),%rax        # 217f80 <_DYNAMIC+0x1f0>
    715b:	ba 0b 00 00 00       	mov    $0xb,%edx
    7160:	64 8b 00             	mov    %fs:(%rax),%eax
    7163:	83 f8 0c             	cmp    $0xc,%eax
    7166:	0f 44 c2             	cmove  %edx,%eax
    7169:	e9 20 ff ff ff       	jmpq   708e <T.141+0x6e>
    716e:	ba 01 00 00 00       	mov    $0x1,%edx
    7173:	64 8b 34 25 48 00 00 	mov    %fs:0x48,%esi
    717a:	00 
    717b:	b8 ca 00 00 00       	mov    $0xca,%eax
    7180:	48 8d bb 1c 06 00 00 	lea    0x61c(%rbx),%rdi
    7187:	83 ce 01             	or     $0x1,%esi
    718a:	0f 05                	syscall 
    718c:	eb be                	jmp    714c <T.141+0x12c>
    718e:	66 90                	xchg   %ax,%ax

0000000000007190 <pthread_create@@GLIBC_2.2.5>:
    7190:	55                   	push   %rbp
    7191:	48 89 e5             	mov    %rsp,%rbp
    7194:	41 57                	push   %r15
    7196:	41 56                	push   %r14
    7198:	41 55                	push   %r13
    719a:	41 54                	push   %r12
    719c:	4c 8d 25 1d a8 00 00 	lea    0xa81d(%rip),%r12        # 119c0 <default_attr>
    71a3:	53                   	push   %rbx
    71a4:	48 83 ec 68          	sub    $0x68,%rsp
    71a8:	48 85 f6             	test   %rsi,%rsi
    71ab:	48 89 55 a0          	mov    %rdx,-0x60(%rbp)
    71af:	4c 0f 45 e6          	cmovne %rsi,%r12
    71b3:	48 89 7d a8          	mov    %rdi,-0x58(%rbp)
    71b7:	48 89 75 b8          	mov    %rsi,-0x48(%rbp)
    71bb:	48 89 4d 98          	mov    %rcx,-0x68(%rbp)
    71bf:	e8 7c e3 ff ff       	callq  5540 <__getpagesize@plt>
    71c4:	83 e8 01             	sub    $0x1,%eax
    71c7:	48 98                	cltq   
    71c9:	48 8d 50 01          	lea    0x1(%rax),%rdx
    71cd:	48 85 c2             	test   %rax,%rdx
    71d0:	0f 85 3c 04 00 00    	jne    7612 <pthread_create@@GLIBC_2.2.5+0x482>
    71d6:	49 8b 4c 24 20       	mov    0x20(%r12),%rcx
    71db:	48 8b 35 6e 51 21 00 	mov    0x21516e(%rip),%rsi        # 21c350 <__default_stacksize>
    71e2:	48 85 c9             	test   %rcx,%rcx
    71e5:	48 0f 45 f1          	cmovne %rcx,%rsi
    71e9:	41 f6 44 24 08 08    	testb  $0x8,0x8(%r12)
    71ef:	0f 85 ac 07 00 00    	jne    79a1 <pthread_create@@GLIBC_2.2.5+0x811>
    71f5:	4c 8b 3d cc 0d 21 00 	mov    0x210dcc(%rip),%r15        # 217fc8 <_DYNAMIC+0x238>
    71fc:	4c 8b 2d 2d 51 21 00 	mov    0x21512d(%rip),%r13        # 21c330 <__static_tls_align_m1>
    7203:	41 8b 8f 18 0f 00 00 	mov    0xf18(%r15),%ecx
    720a:	49 f7 d5             	not    %r13
    720d:	83 e1 01             	and    $0x1,%ecx
    7210:	83 f9 01             	cmp    $0x1,%ecx
    7213:	19 c9                	sbb    %ecx,%ecx
    7215:	83 e1 fc             	and    $0xfffffffc,%ecx
    7218:	83 c1 07             	add    $0x7,%ecx
    721b:	49 21 f5             	and    %rsi,%r13
    721e:	89 4d cc             	mov    %ecx,-0x34(%rbp)
    7221:	0f 84 5b 07 00 00    	je     7982 <pthread_create@@GLIBC_2.2.5+0x7f2>
    7227:	48 89 c3             	mov    %rax,%rbx
    722a:	49 03 5c 24 10       	add    0x10(%r12),%rbx
    722f:	48 89 c1             	mov    %rax,%rcx
    7232:	48 f7 d1             	not    %rcx
    7235:	48 21 cb             	and    %rcx,%rbx
    7238:	48 89 5d c0          	mov    %rbx,-0x40(%rbp)
    723c:	48 8b 1d fd 50 21 00 	mov    0x2150fd(%rip),%rbx        # 21c340 <__static_tls_size>
    7243:	48 8d 84 18 00 08 00 	lea    0x800(%rax,%rbx,1),%rax
    724a:	00 
    724b:	48 03 45 c0          	add    -0x40(%rbp),%rax
    724f:	48 21 c8             	and    %rcx,%rax
    7252:	49 39 c5             	cmp    %rax,%r13
    7255:	0f 82 1c 07 00 00    	jb     7977 <pthread_create@@GLIBC_2.2.5+0x7e7>
    725b:	be 01 00 00 00       	mov    $0x1,%esi
    7260:	31 c0                	xor    %eax,%eax
    7262:	f0 0f b1 35 46 50 21 	lock cmpxchg %esi,0x215046(%rip)        # 21c2b0 <stack_cache_lock>
    7269:	00 
    726a:	0f 85 f9 0b 00 00    	jne    7e69 <_L_lock_1752>
    7270:	48 8b 05 d9 0f 21 00 	mov    0x210fd9(%rip),%rax        # 218250 <stack_cache>
    7277:	48 8d 35 d2 0f 21 00 	lea    0x210fd2(%rip),%rsi        # 218250 <stack_cache>
    727e:	48 39 f0             	cmp    %rsi,%rax
    7281:	0f 84 3d 04 00 00    	je     76c4 <pthread_create@@GLIBC_2.2.5+0x534>
    7287:	31 c9                	xor    %ecx,%ecx
    7289:	eb 13                	jmp    729e <pthread_create@@GLIBC_2.2.5+0x10e>
    728b:	0f 1f 44 00 00       	nopl   0x0(%rax,%rax,1)
    7290:	48 89 cb             	mov    %rcx,%rbx
    7293:	48 8b 00             	mov    (%rax),%rax
    7296:	48 39 f0             	cmp    %rsi,%rax
    7299:	74 3d                	je     72d8 <pthread_create@@GLIBC_2.2.5+0x148>
    729b:	48 89 d9             	mov    %rbx,%rcx
    729e:	48 8d 98 40 fd ff ff 	lea    -0x2c0(%rax),%rbx
    72a5:	44 8b 83 d0 02 00 00 	mov    0x2d0(%rbx),%r8d
    72ac:	45 85 c0             	test   %r8d,%r8d
    72af:	7f df                	jg     7290 <pthread_create@@GLIBC_2.2.5+0x100>
    72b1:	48 8b bb 98 06 00 00 	mov    0x698(%rbx),%rdi
    72b8:	49 39 fd             	cmp    %rdi,%r13
    72bb:	77 d3                	ja     7290 <pthread_create@@GLIBC_2.2.5+0x100>
    72bd:	74 19                	je     72d8 <pthread_create@@GLIBC_2.2.5+0x148>
    72bf:	48 85 c9             	test   %rcx,%rcx
    72c2:	74 cf                	je     7293 <pthread_create@@GLIBC_2.2.5+0x103>
    72c4:	48 3b b9 98 06 00 00 	cmp    0x698(%rcx),%rdi
    72cb:	73 c3                	jae    7290 <pthread_create@@GLIBC_2.2.5+0x100>
    72cd:	48 8b 00             	mov    (%rax),%rax
    72d0:	48 39 f0             	cmp    %rsi,%rax
    72d3:	75 c6                	jne    729b <pthread_create@@GLIBC_2.2.5+0x10b>
    72d5:	0f 1f 00             	nopl   (%rax)
    72d8:	48 85 db             	test   %rbx,%rbx
    72db:	0f 84 e3 03 00 00    	je     76c4 <pthread_create@@GLIBC_2.2.5+0x534>
    72e1:	4a 8d 04 ad 00 00 00 	lea    0x0(,%r13,4),%rax
    72e8:	00 
    72e9:	48 39 83 98 06 00 00 	cmp    %rax,0x698(%rbx)
    72f0:	0f 87 ce 03 00 00    	ja     76c4 <pthread_create@@GLIBC_2.2.5+0x534>
    72f6:	4c 8d b3 c0 02 00 00 	lea    0x2c0(%rbx),%r14
    72fd:	c7 83 1c 06 00 00 ff 	movl   $0xffffffff,0x61c(%rbx)
    7304:	ff ff ff 
    7307:	4c 89 35 c2 4f 21 00 	mov    %r14,0x214fc2(%rip)        # 21c2d0 <in_flight_stack>
    730e:	48 8b 83 c0 02 00 00 	mov    0x2c0(%rbx),%rax
    7315:	48 8b 93 c8 02 00 00 	mov    0x2c8(%rbx),%rdx
    731c:	48 89 50 08          	mov    %rdx,0x8(%rax)
    7320:	48 8b 93 c8 02 00 00 	mov    0x2c8(%rbx),%rdx
    7327:	48 89 02             	mov    %rax,(%rdx)
    732a:	4c 89 f0             	mov    %r14,%rax
    732d:	48 83 c8 01          	or     $0x1,%rax
    7331:	48 89 05 98 4f 21 00 	mov    %rax,0x214f98(%rip)        # 21c2d0 <in_flight_stack>
    7338:	48 8b 05 01 0f 21 00 	mov    0x210f01(%rip),%rax        # 218240 <stack_used>
    733f:	48 8d 3d fa 0e 21 00 	lea    0x210efa(%rip),%rdi        # 218240 <stack_used>
    7346:	48 89 bb c8 02 00 00 	mov    %rdi,0x2c8(%rbx)
    734d:	48 89 83 c0 02 00 00 	mov    %rax,0x2c0(%rbx)
    7354:	48 8b 05 e5 0e 21 00 	mov    0x210ee5(%rip),%rax        # 218240 <stack_used>
    735b:	4c 89 70 08          	mov    %r14,0x8(%rax)
    735f:	4c 89 35 da 0e 21 00 	mov    %r14,0x210eda(%rip)        # 218240 <stack_used>
    7366:	48 c7 05 5f 4f 21 00 	movq   $0x0,0x214f5f(%rip)        # 21c2d0 <in_flight_stack>
    736d:	00 00 00 00 
    7371:	48 8b 83 98 06 00 00 	mov    0x698(%rbx),%rax
    7378:	48 29 05 49 4f 21 00 	sub    %rax,0x214f49(%rip)        # 21c2c8 <stack_cache_actsize>
    737f:	f0 ff 0d 2a 4f 21 00 	lock decl 0x214f2a(%rip)        # 21c2b0 <stack_cache_lock>
    7386:	0f 85 fc 0a 00 00    	jne    7e88 <_L_unlock_1831>
    738c:	48 8b 83 98 06 00 00 	mov    0x698(%rbx),%rax
    7393:	48 8b 93 90 06 00 00 	mov    0x690(%rbx),%rdx
    739a:	c7 83 08 03 00 00 00 	movl   $0x0,0x308(%rbx)
    73a1:	00 00 00 
    73a4:	48 c7 83 f8 02 00 00 	movq   $0x0,0x2f8(%rbx)
    73ab:	00 00 00 00 
    73af:	48 89 45 b0          	mov    %rax,-0x50(%rbp)
    73b3:	48 89 95 78 ff ff ff 	mov    %rdx,-0x88(%rbp)
    73ba:	31 d2                	xor    %edx,%edx
    73bc:	48 c7 83 68 06 00 00 	movq   $0x0,0x668(%rbx)
    73c3:	00 00 00 00 
    73c7:	4c 8b 7b 08          	mov    0x8(%rbx),%r15
    73cb:	49 8d 77 f0          	lea    -0x10(%r15),%rsi
    73cf:	4c 89 f8             	mov    %r15,%rax
    73d2:	49 8b 4f f0          	mov    -0x10(%r15),%rcx
    73d6:	4c 89 7d 90          	mov    %r15,-0x70(%rbp)
    73da:	4c 89 65 88          	mov    %r12,-0x78(%rbp)
    73de:	4d 89 ef             	mov    %r13,%r15
    73e1:	4c 89 75 80          	mov    %r14,-0x80(%rbp)
    73e5:	49 89 f5             	mov    %rsi,%r13
    73e8:	49 89 de             	mov    %rbx,%r14
    73eb:	49 89 d4             	mov    %rdx,%r12
    73ee:	48 89 c3             	mov    %rax,%rbx
    73f1:	eb 26                	jmp    7419 <pthread_create@@GLIBC_2.2.5+0x289>
    73f3:	0f 1f 44 00 00       	nopl   0x0(%rax,%rax,1)
    73f8:	49 83 c4 01          	add    $0x1,%r12
    73fc:	80 7b 18 00          	cmpb   $0x0,0x18(%rbx)
    7400:	75 13                	jne    7415 <pthread_create@@GLIBC_2.2.5+0x285>
    7402:	48 8b 7b 10          	mov    0x10(%rbx),%rdi
    7406:	48 83 ff ff          	cmp    $0xffffffffffffffff,%rdi
    740a:	74 09                	je     7415 <pthread_create@@GLIBC_2.2.5+0x285>
    740c:	e8 df de ff ff       	callq  52f0 <free@plt>
    7411:	49 8b 4d 00          	mov    0x0(%r13),%rcx
    7415:	48 83 c3 10          	add    $0x10,%rbx
    7419:	49 39 cc             	cmp    %rcx,%r12
    741c:	72 da                	jb     73f8 <pthread_create@@GLIBC_2.2.5+0x268>
    741e:	4d 89 fd             	mov    %r15,%r13
    7421:	4c 8b 7d 90          	mov    -0x70(%rbp),%r15
    7425:	48 8d 51 01          	lea    0x1(%rcx),%rdx
    7429:	4c 89 f3             	mov    %r14,%rbx
    742c:	31 f6                	xor    %esi,%esi
    742e:	4c 8b 65 88          	mov    -0x78(%rbp),%r12
    7432:	48 c1 e2 04          	shl    $0x4,%rdx
    7436:	4c 8b 75 80          	mov    -0x80(%rbp),%r14
    743a:	4c 89 ff             	mov    %r15,%rdi
    743d:	e8 ae df ff ff       	callq  53f0 <memset@plt>
    7442:	48 89 df             	mov    %rbx,%rdi
    7445:	e8 a6 e2 ff ff       	callq  56f0 <_dl_allocate_tls_init@plt>
    744a:	48 8b b3 a0 06 00 00 	mov    0x6a0(%rbx),%rsi
    7451:	48 39 75 c0          	cmp    %rsi,-0x40(%rbp)
    7455:	0f 87 9a 06 00 00    	ja     7af5 <pthread_create@@GLIBC_2.2.5+0x965>
    745b:	48 2b 75 c0          	sub    -0x40(%rbp),%rsi
    745f:	48 8b 4d b0          	mov    -0x50(%rbp),%rcx
    7463:	4c 29 e9             	sub    %r13,%rcx
    7466:	48 39 ce             	cmp    %rcx,%rsi
    7469:	0f 87 5b 06 00 00    	ja     7aca <pthread_create@@GLIBC_2.2.5+0x93a>
    746f:	48 8b 45 c0          	mov    -0x40(%rbp),%rax
    7473:	48 89 83 a8 06 00 00 	mov    %rax,0x6a8(%rbx)
    747a:	48 8d 83 e0 02 00 00 	lea    0x2e0(%rbx),%rax
    7481:	c7 83 18 06 00 00 00 	movl   $0x0,0x618(%rbx)
    7488:	00 00 00 
    748b:	48 c7 83 e8 02 00 00 	movq   $0xffffffffffffffe0,0x2e8(%rbx)
    7492:	e0 ff ff ff 
    7496:	48 c7 83 f0 02 00 00 	movq   $0x0,0x2f0(%rbx)
    749d:	00 00 00 00 
    74a1:	48 89 83 d8 02 00 00 	mov    %rax,0x2d8(%rbx)
    74a8:	48 89 83 e0 02 00 00 	mov    %rax,0x2e0(%rbx)
    74af:	48 89 d8             	mov    %rbx,%rax
    74b2:	48 2b 05 87 4e 21 00 	sub    0x214e87(%rip),%rax        # 21c340 <__static_tls_size>
    74b9:	48 8d 90 00 09 00 00 	lea    0x900(%rax),%rdx
    74c0:	48 89 5b 10          	mov    %rbx,0x10(%rbx)
    74c4:	48 89 1b             	mov    %rbx,(%rbx)
    74c7:	48 8b 4d a0          	mov    -0x60(%rbp),%rcx
    74cb:	41 8b 74 24 08       	mov    0x8(%r12),%esi
    74d0:	64 48 8b 04 25 10 00 	mov    %fs:0x10,%rax
    74d7:	00 00 
    74d9:	48 8b 7d 98          	mov    -0x68(%rbp),%rdi
    74dd:	48 89 8b 40 06 00 00 	mov    %rcx,0x640(%rbx)
    74e4:	8b 88 0c 03 00 00    	mov    0x30c(%rax),%ecx
    74ea:	83 e6 9f             	and    $0xffffff9f,%esi
    74ed:	48 89 bb 48 06 00 00 	mov    %rdi,0x648(%rbx)
    74f4:	83 e1 60             	and    $0x60,%ecx
    74f7:	09 f1                	or     %esi,%ecx
    74f9:	31 f6                	xor    %esi,%esi
    74fb:	89 8b 0c 03 00 00    	mov    %ecx,0x30c(%rbx)
    7501:	41 f6 44 24 08 01    	testb  $0x1,0x8(%r12)
    7507:	48 0f 45 f3          	cmovne %rbx,%rsi
    750b:	48 89 b3 28 06 00 00 	mov    %rsi,0x628(%rbx)
    7512:	48 8b b0 50 06 00 00 	mov    0x650(%rax),%rsi
    7519:	48 89 b3 50 06 00 00 	mov    %rsi,0x650(%rbx)
    7520:	48 8b b0 58 06 00 00 	mov    0x658(%rax),%rsi
    7527:	48 89 b3 58 06 00 00 	mov    %rsi,0x658(%rbx)
    752e:	48 8b b0 60 06 00 00 	mov    0x660(%rax),%rsi
    7535:	48 89 b3 60 06 00 00 	mov    %rsi,0x660(%rbx)
    753c:	8b b0 3c 06 00 00    	mov    0x63c(%rax),%esi
    7542:	8b 80 38 06 00 00    	mov    0x638(%rax),%eax
    7548:	89 b3 3c 06 00 00    	mov    %esi,0x63c(%rbx)
    754e:	89 83 38 06 00 00    	mov    %eax,0x638(%rbx)
    7554:	64 48 8b 04 25 28 00 	mov    %fs:0x28,%rax
    755b:	00 00 
    755d:	48 89 43 28          	mov    %rax,0x28(%rbx)
    7561:	64 48 8b 04 25 30 00 	mov    %fs:0x30,%rax
    7568:	00 00 
    756a:	48 89 43 30          	mov    %rax,0x30(%rbx)
    756e:	48 83 7d b8 00       	cmpq   $0x0,-0x48(%rbp)
    7573:	74 0d                	je     7582 <pthread_create@@GLIBC_2.2.5+0x3f2>
    7575:	41 8b 44 24 08       	mov    0x8(%r12),%eax
    757a:	a8 02                	test   $0x2,%al
    757c:	0f 85 9d 05 00 00    	jne    7b1f <pthread_create@@GLIBC_2.2.5+0x98f>
    7582:	48 8b 45 a8          	mov    -0x58(%rbp),%rax
    7586:	48 89 18             	mov    %rbx,(%rax)
    7589:	48 83 3b 00          	cmpq   $0x0,(%rbx)
    758d:	0f 84 12 01 00 00    	je     76a5 <pthread_create@@GLIBC_2.2.5+0x515>
    7593:	31 c0                	xor    %eax,%eax
    7595:	64 8a 04 25 11 06 00 	mov    %fs:0x611,%al
    759c:	00 
    759d:	84 c0                	test   %al,%al
    759f:	0f 85 8c 00 00 00    	jne    7631 <pthread_create@@GLIBC_2.2.5+0x4a1>
    75a5:	49 83 7c 24 28 00    	cmpq   $0x0,0x28(%r12)
    75ab:	74 56                	je     7603 <pthread_create@@GLIBC_2.2.5+0x473>
    75ad:	b9 01 00 00 00       	mov    $0x1,%ecx
    75b2:	41 bd 01 00 00 00    	mov    $0x1,%r13d
    75b8:	44 88 ab 13 06 00 00 	mov    %r13b,0x613(%rbx)
    75bf:	64 8b 04 25 08 03 00 	mov    %fs:0x308,%eax
    75c6:	00 
    75c7:	89 83 14 06 00 00    	mov    %eax,0x614(%rbx)
    75cd:	4c 89 e6             	mov    %r12,%rsi
    75d0:	48 89 df             	mov    %rbx,%rdi
    75d3:	e8 48 fa ff ff       	callq  7020 <T.141>
    75d8:	85 c0                	test   %eax,%eax
    75da:	41 89 c7             	mov    %eax,%r15d
    75dd:	75 12                	jne    75f1 <pthread_create@@GLIBC_2.2.5+0x461>
    75df:	45 84 ed             	test   %r13b,%r13b
    75e2:	74 0d                	je     75f1 <pthread_create@@GLIBC_2.2.5+0x461>
    75e4:	f0 ff 8b 18 06 00 00 	lock decl 0x618(%rbx)
    75eb:	0f 85 b6 08 00 00    	jne    7ea7 <_L_unlock_1989>
    75f1:	48 83 c4 68          	add    $0x68,%rsp
    75f5:	44 89 f8             	mov    %r15d,%eax
    75f8:	5b                   	pop    %rbx
    75f9:	41 5c                	pop    %r12
    75fb:	41 5d                	pop    %r13
    75fd:	41 5e                	pop    %r14
    75ff:	41 5f                	pop    %r15
    7601:	c9                   	leaveq 
    7602:	c3                   	retq   
    7603:	31 c9                	xor    %ecx,%ecx
    7605:	45 31 ed             	xor    %r13d,%r13d
    7608:	41 f6 44 24 08 02    	testb  $0x2,0x8(%r12)
    760e:	74 a8                	je     75b8 <pthread_create@@GLIBC_2.2.5+0x428>
    7610:	eb 9b                	jmp    75ad <pthread_create@@GLIBC_2.2.5+0x41d>
    7612:	48 8d 0d 23 a1 00 00 	lea    0xa123(%rip),%rcx        # 1173c <__PRETTY_FUNCTION__.11526>
    7619:	48 8d 35 9e a0 00 00 	lea    0xa09e(%rip),%rsi        # 116be <banner+0x11e>
    7620:	48 8d 3d 71 a1 00 00 	lea    0xa171(%rip),%rdi        # 11798 <__PRETTY_FUNCTION__.11806+0x32>
    7627:	ba 61 01 00 00       	mov    $0x161,%edx
    762c:	e8 af dd ff ff       	callq  53e0 <__assert_fail@plt>
    7631:	0f b6 0d 7c 4c 21 00 	movzbl 0x214c7c(%rip),%ecx        # 21c2b4 <__nptl_threads_events>
    7638:	8b 83 50 06 00 00    	mov    0x650(%rbx),%eax
    763e:	08 c1                	or     %al,%cl
    7640:	0f 89 5f ff ff ff    	jns    75a5 <pthread_create@@GLIBC_2.2.5+0x415>
    7646:	c6 83 13 06 00 00 01 	movb   $0x1,0x613(%rbx)
    764d:	b9 01 00 00 00       	mov    $0x1,%ecx
    7652:	4c 89 e6             	mov    %r12,%rsi
    7655:	48 89 df             	mov    %rbx,%rdi
    7658:	e8 c3 f9 ff ff       	callq  7020 <T.141>
    765d:	85 c0                	test   %eax,%eax
    765f:	41 89 c7             	mov    %eax,%r15d
    7662:	75 8d                	jne    75f1 <pthread_create@@GLIBC_2.2.5+0x461>
    7664:	c7 83 58 06 00 00 08 	movl   $0x8,0x658(%rbx)
    766b:	00 00 00 
    766e:	48 89 9b 60 06 00 00 	mov    %rbx,0x660(%rbx)
    7675:	48 8b 05 44 4c 21 00 	mov    0x214c44(%rip),%rax        # 21c2c0 <__nptl_last_event>
    767c:	48 89 83 68 06 00 00 	mov    %rax,0x668(%rbx)
    7683:	f0 48 0f b1 1d 34 4c 	lock cmpxchg %rbx,0x214c34(%rip)        # 21c2c0 <__nptl_last_event>
    768a:	21 00 
    768c:	75 e7                	jne    7675 <pthread_create@@GLIBC_2.2.5+0x4e5>
    768e:	e8 dd e6 ff ff       	callq  5d70 <__GI___nptl_create_event>
    7693:	f0 ff 8b 18 06 00 00 	lock decl 0x618(%rbx)
    769a:	0f 85 26 08 00 00    	jne    7ec6 <_L_unlock_2054>
    76a0:	e9 4c ff ff ff       	jmpq   75f1 <pthread_create@@GLIBC_2.2.5+0x461>
    76a5:	48 8d 0d 9f a0 00 00 	lea    0xa09f(%rip),%rcx        # 1174b <__PRETTY_FUNCTION__.12470>
    76ac:	48 8d 35 45 a1 00 00 	lea    0xa145(%rip),%rsi        # 117f8 <__PRETTY_FUNCTION__.11806+0x92>
    76b3:	48 8d 3d 64 a0 00 00 	lea    0xa064(%rip),%rdi        # 1171e <banner+0x17e>
    76ba:	ba 96 00 00 00       	mov    $0x96,%edx
    76bf:	e8 1c dd ff ff       	callq  53e0 <__assert_fail@plt>
    76c4:	f0 ff 0d e5 4b 21 00 	lock decl 0x214be5(%rip)        # 21c2b0 <stack_cache_lock>
    76cb:	0f 85 14 08 00 00    	jne    7ee5 <_L_unlock_2068>
    76d1:	49 8d 54 15 00       	lea    0x0(%r13,%rdx,1),%rdx
    76d6:	66 45 85 ed          	test   %r13w,%r13w
    76da:	b9 22 00 02 00       	mov    $0x20022,%ecx
    76df:	49 0f 45 d5          	cmovne %r13,%rdx
    76e3:	45 31 c9             	xor    %r9d,%r9d
    76e6:	41 83 c8 ff          	or     $0xffffffff,%r8d
    76ea:	48 89 55 b0          	mov    %rdx,-0x50(%rbp)
    76ee:	8b 55 cc             	mov    -0x34(%rbp),%edx
    76f1:	31 ff                	xor    %edi,%edi
    76f3:	48 8b 75 b0          	mov    -0x50(%rbp),%rsi
    76f7:	e8 c4 dc ff ff       	callq  53c0 <mmap@plt>
    76fc:	48 83 f8 ff          	cmp    $0xffffffffffffffff,%rax
    7700:	48 89 85 78 ff ff ff 	mov    %rax,-0x88(%rbp)
    7707:	0f 84 5a 02 00 00    	je     7967 <pthread_create@@GLIBC_2.2.5+0x7d7>
    770d:	48 83 bd 78 ff ff ff 	cmpq   $0x0,-0x88(%rbp)
    7714:	00 
    7715:	0f 84 a4 01 00 00    	je     78bf <pthread_create@@GLIBC_2.2.5+0x72f>
    771b:	48 8b bd 78 ff ff ff 	mov    -0x88(%rbp),%rdi
    7722:	48 8b 4d b0          	mov    -0x50(%rbp),%rcx
    7726:	48 8d 9c 0f 00 f7 ff 	lea    -0x900(%rdi,%rcx,1),%rbx
    772d:	ff 
    772e:	48 8d 83 10 03 00 00 	lea    0x310(%rbx),%rax
    7735:	c7 43 18 01 00 00 00 	movl   $0x1,0x18(%rbx)
    773c:	48 89 bb 90 06 00 00 	mov    %rdi,0x690(%rbx)
    7743:	48 89 8b 98 06 00 00 	mov    %rcx,0x698(%rbx)
    774a:	48 89 83 10 05 00 00 	mov    %rax,0x510(%rbx)
    7751:	48 8b 05 10 4c 21 00 	mov    0x214c10(%rip),%rax        # 21c368 <__libc_multiple_threads_ptr>
    7758:	c7 00 01 00 00 00    	movl   $0x1,(%rax)
    775e:	c7 05 f0 4b 21 00 01 	movl   $0x1,0x214bf0(%rip)        # 21c358 <__pthread_multiple_threads>
    7765:	00 00 00 
    7768:	64 8b 04 25 48 00 00 	mov    %fs:0x48,%eax
    776f:	00 
    7770:	89 43 48             	mov    %eax,0x48(%rbx)
    7773:	c7 83 1c 06 00 00 ff 	movl   $0xffffffff,0x61c(%rbx)
    777a:	ff ff ff 
    777d:	64 8b 04 25 d4 02 00 	mov    %fs:0x2d4,%eax
    7784:	00 
    7785:	89 83 d4 02 00 00    	mov    %eax,0x2d4(%rbx)
    778b:	48 89 df             	mov    %rbx,%rdi
    778e:	e8 cd de ff ff       	callq  5660 <_dl_allocate_tls@plt>
    7793:	48 85 c0             	test   %rax,%rax
    7796:	0f 84 f4 00 00 00    	je     7890 <pthread_create@@GLIBC_2.2.5+0x700>
    779c:	be 01 00 00 00       	mov    $0x1,%esi
    77a1:	31 c0                	xor    %eax,%eax
    77a3:	f0 0f b1 35 05 4b 21 	lock cmpxchg %esi,0x214b05(%rip)        # 21c2b0 <stack_cache_lock>
    77aa:	00 
    77ab:	0f 85 53 07 00 00    	jne    7f04 <_L_lock_2114>
    77b1:	4c 8d b3 c0 02 00 00 	lea    0x2c0(%rbx),%r14
    77b8:	4c 89 f0             	mov    %r14,%rax
    77bb:	48 83 c8 01          	or     $0x1,%rax
    77bf:	48 89 05 0a 4b 21 00 	mov    %rax,0x214b0a(%rip)        # 21c2d0 <in_flight_stack>
    77c6:	48 8b 05 73 0a 21 00 	mov    0x210a73(%rip),%rax        # 218240 <stack_used>
    77cd:	48 89 83 c0 02 00 00 	mov    %rax,0x2c0(%rbx)
    77d4:	48 8d 05 65 0a 21 00 	lea    0x210a65(%rip),%rax        # 218240 <stack_used>
    77db:	48 89 83 c8 02 00 00 	mov    %rax,0x2c8(%rbx)
    77e2:	48 8b 05 57 0a 21 00 	mov    0x210a57(%rip),%rax        # 218240 <stack_used>
    77e9:	4c 89 70 08          	mov    %r14,0x8(%rax)
    77ed:	4c 89 35 4c 0a 21 00 	mov    %r14,0x210a4c(%rip)        # 218240 <stack_used>
    77f4:	48 c7 05 d1 4a 21 00 	movq   $0x0,0x214ad1(%rip)        # 21c2d0 <in_flight_stack>
    77fb:	00 00 00 00 
    77ff:	f0 ff 0d aa 4a 21 00 	lock decl 0x214aaa(%rip)        # 21c2b0 <stack_cache_lock>
    7806:	0f 85 17 07 00 00    	jne    7f23 <_L_unlock_2130>
    780c:	41 f6 87 18 0f 00 00 	testb  $0x1,0xf18(%r15)
    7813:	01 
    7814:	0f 84 30 fc ff ff    	je     744a <pthread_create@@GLIBC_2.2.5+0x2ba>
    781a:	f6 45 cc 04          	testb  $0x4,-0x34(%rbp)
    781e:	0f 85 26 fc ff ff    	jne    744a <pthread_create@@GLIBC_2.2.5+0x2ba>
    7824:	48 8b bb a0 06 00 00 	mov    0x6a0(%rbx),%rdi
    782b:	48 8b b3 98 06 00 00 	mov    0x698(%rbx),%rsi
    7832:	ba 07 00 00 00       	mov    $0x7,%edx
    7837:	48 29 fe             	sub    %rdi,%rsi
    783a:	48 03 bb 90 06 00 00 	add    0x690(%rbx),%rdi
    7841:	e8 fa dd ff ff       	callq  5640 <mprotect@plt>
    7846:	85 c0                	test   %eax,%eax
    7848:	0f 84 fc fb ff ff    	je     744a <pthread_create@@GLIBC_2.2.5+0x2ba>
    784e:	48 8b 05 2b 07 21 00 	mov    0x21072b(%rip),%rax        # 217f80 <_DYNAMIC+0x1f0>
    7855:	64 44 8b 38          	mov    %fs:(%rax),%r15d
    7859:	45 85 ff             	test   %r15d,%r15d
    785c:	0f 84 e8 fb ff ff    	je     744a <pthread_create@@GLIBC_2.2.5+0x2ba>
    7862:	48 8b 75 b0          	mov    -0x50(%rbp),%rsi
    7866:	48 8b bd 78 ff ff ff 	mov    -0x88(%rbp),%rdi
    786d:	e8 6e dd ff ff       	callq  55e0 <munmap@plt>
    7872:	41 83 ff 0c          	cmp    $0xc,%r15d
    7876:	0f 85 75 fd ff ff    	jne    75f1 <pthread_create@@GLIBC_2.2.5+0x461>
    787c:	41 bf 0b 00 00 00    	mov    $0xb,%r15d
    7882:	e9 6a fd ff ff       	jmpq   75f1 <pthread_create@@GLIBC_2.2.5+0x461>
    7887:	66 0f 1f 84 00 00 00 	nopw   0x0(%rax,%rax,1)
    788e:	00 00 
    7890:	48 8b 1d e9 06 21 00 	mov    0x2106e9(%rip),%rbx        # 217f80 <_DYNAMIC+0x1f0>
    7897:	64 83 3b 0c          	cmpl   $0xc,%fs:(%rbx)
    789b:	75 41                	jne    78de <pthread_create@@GLIBC_2.2.5+0x74e>
    789d:	48 8b 75 b0          	mov    -0x50(%rbp),%rsi
    78a1:	48 8b bd 78 ff ff ff 	mov    -0x88(%rbp),%rdi
    78a8:	e8 33 dd ff ff       	callq  55e0 <munmap@plt>
    78ad:	64 44 8b 3b          	mov    %fs:(%rbx),%r15d
    78b1:	45 85 ff             	test   %r15d,%r15d
    78b4:	75 bc                	jne    7872 <pthread_create@@GLIBC_2.2.5+0x6e2>
    78b6:	31 db                	xor    %ebx,%ebx
    78b8:	31 d2                	xor    %edx,%edx
    78ba:	e9 01 fc ff ff       	jmpq   74c0 <pthread_create@@GLIBC_2.2.5+0x330>
    78bf:	48 8d 0d 76 9e 00 00 	lea    0x9e76(%rip),%rcx        # 1173c <__PRETTY_FUNCTION__.11526>
    78c6:	48 8d 35 f1 9d 00 00 	lea    0x9df1(%rip),%rsi        # 116be <banner+0x11e>
    78cd:	48 8d 3d 37 9e 00 00 	lea    0x9e37(%rip),%rdi        # 1170b <banner+0x16b>
    78d4:	ba f6 01 00 00       	mov    $0x1f6,%edx
    78d9:	e8 02 db ff ff       	callq  53e0 <__assert_fail@plt>
    78de:	48 8d 0d 57 9e 00 00 	lea    0x9e57(%rip),%rcx        # 1173c <__PRETTY_FUNCTION__.11526>
    78e5:	48 8d 35 d2 9d 00 00 	lea    0x9dd2(%rip),%rsi        # 116be <banner+0x11e>
    78ec:	48 8d 3d 02 9e 00 00 	lea    0x9e02(%rip),%rdi        # 116f5 <banner+0x155>
    78f3:	ba 3d 02 00 00       	mov    $0x23d,%edx
    78f8:	e8 e3 da ff ff       	callq  53e0 <__assert_fail@plt>
    78fd:	be 01 00 00 00       	mov    $0x1,%esi
    7902:	31 c0                	xor    %eax,%eax
    7904:	f0 0f b1 35 a4 49 21 	lock cmpxchg %esi,0x2149a4(%rip)        # 21c2b0 <stack_cache_lock>
    790b:	00 
    790c:	0f 85 30 06 00 00    	jne    7f42 <_L_lock_2203>
    7912:	4c 89 35 b7 49 21 00 	mov    %r14,0x2149b7(%rip)        # 21c2d0 <in_flight_stack>
    7919:	48 8b 83 c0 02 00 00 	mov    0x2c0(%rbx),%rax
    7920:	48 8b 93 c8 02 00 00 	mov    0x2c8(%rbx),%rdx
    7927:	48 89 50 08          	mov    %rdx,0x8(%rax)
    792b:	48 8b 93 c8 02 00 00 	mov    0x2c8(%rbx),%rdx
    7932:	48 89 02             	mov    %rax,(%rdx)
    7935:	48 c7 05 90 49 21 00 	movq   $0x0,0x214990(%rip)        # 21c2d0 <in_flight_stack>
    793c:	00 00 00 00 
    7940:	f0 ff 0d 69 49 21 00 	lock decl 0x214969(%rip)        # 21c2b0 <stack_cache_lock>
    7947:	0f 85 14 06 00 00    	jne    7f61 <_L_unlock_2213>
    794d:	31 f6                	xor    %esi,%esi
    794f:	48 89 df             	mov    %rbx,%rdi
    7952:	e8 e9 da ff ff       	callq  5440 <_dl_deallocate_tls@plt>
    7957:	48 8b 75 b0          	mov    -0x50(%rbp),%rsi
    795b:	48 8b bd 78 ff ff ff 	mov    -0x88(%rbp),%rdi
    7962:	e8 79 dc ff ff       	callq  55e0 <munmap@plt>
    7967:	48 8b 05 12 06 21 00 	mov    0x210612(%rip),%rax        # 217f80 <_DYNAMIC+0x1f0>
    796e:	64 44 8b 38          	mov    %fs:(%rax),%r15d
    7972:	e9 3a ff ff ff       	jmpq   78b1 <pthread_create@@GLIBC_2.2.5+0x721>
    7977:	41 bf 16 00 00 00    	mov    $0x16,%r15d
    797d:	e9 6f fc ff ff       	jmpq   75f1 <pthread_create@@GLIBC_2.2.5+0x461>
    7982:	48 8d 0d b3 9d 00 00 	lea    0x9db3(%rip),%rcx        # 1173c <__PRETTY_FUNCTION__.11526>
    7989:	48 8d 35 2e 9d 00 00 	lea    0x9d2e(%rip),%rsi        # 116be <banner+0x11e>
    7990:	48 8d 3d 6a 9d 00 00 	lea    0x9d6a(%rip),%rdi        # 11701 <banner+0x161>
    7997:	ba d4 01 00 00       	mov    $0x1d4,%edx
    799c:	e8 3f da ff ff       	callq  53e0 <__assert_fail@plt>
    79a1:	48 85 c9             	test   %rcx,%rcx
    79a4:	74 12                	je     79b8 <pthread_create@@GLIBC_2.2.5+0x828>
    79a6:	48 8b 05 93 49 21 00 	mov    0x214993(%rip),%rax        # 21c340 <__static_tls_size>
    79ad:	48 05 00 08 00 00    	add    $0x800,%rax
    79b3:	48 39 c1             	cmp    %rax,%rcx
    79b6:	72 bf                	jb     7977 <pthread_create@@GLIBC_2.2.5+0x7e7>
    79b8:	49 8b 5c 24 18       	mov    0x18(%r12),%rbx
    79bd:	48 81 eb 00 09 00 00 	sub    $0x900,%rbx
    79c4:	48 89 d8             	mov    %rbx,%rax
    79c7:	48 23 05 62 49 21 00 	and    0x214962(%rip),%rax        # 21c330 <__static_tls_align_m1>
    79ce:	48 8d 90 00 09 00 00 	lea    0x900(%rax),%rdx
    79d5:	48 39 d6             	cmp    %rdx,%rsi
    79d8:	0f 86 5d 02 00 00    	jbe    7c3b <pthread_create@@GLIBC_2.2.5+0xaab>
    79de:	48 29 c3             	sub    %rax,%rbx
    79e1:	b9 20 01 00 00       	mov    $0x120,%ecx
    79e6:	31 c0                	xor    %eax,%eax
    79e8:	48 89 df             	mov    %rbx,%rdi
    79eb:	f3 48 ab             	rep stos %rax,%es:(%rdi)
    79ee:	48 8d 83 10 03 00 00 	lea    0x310(%rbx),%rax
    79f5:	48 89 b3 98 06 00 00 	mov    %rsi,0x698(%rbx)
    79fc:	c6 83 12 06 00 00 01 	movb   $0x1,0x612(%rbx)
    7a03:	48 89 83 10 05 00 00 	mov    %rax,0x510(%rbx)
    7a0a:	48 89 f0             	mov    %rsi,%rax
    7a0d:	48 f7 d8             	neg    %rax
    7a10:	49 03 44 24 18       	add    0x18(%r12),%rax
    7a15:	c7 43 18 01 00 00 00 	movl   $0x1,0x18(%rbx)
    7a1c:	48 89 83 90 06 00 00 	mov    %rax,0x690(%rbx)
    7a23:	48 8b 05 3e 49 21 00 	mov    0x21493e(%rip),%rax        # 21c368 <__libc_multiple_threads_ptr>
    7a2a:	c7 00 01 00 00 00    	movl   $0x1,(%rax)
    7a30:	c7 05 1e 49 21 00 01 	movl   $0x1,0x21491e(%rip)        # 21c358 <__pthread_multiple_threads>
    7a37:	00 00 00 
    7a3a:	64 8b 04 25 48 00 00 	mov    %fs:0x48,%eax
    7a41:	00 
    7a42:	89 43 48             	mov    %eax,0x48(%rbx)
    7a45:	64 8b 04 25 d4 02 00 	mov    %fs:0x2d4,%eax
    7a4c:	00 
    7a4d:	89 83 d4 02 00 00    	mov    %eax,0x2d4(%rbx)
    7a53:	c7 83 1c 06 00 00 ff 	movl   $0xffffffff,0x61c(%rbx)
    7a5a:	ff ff ff 
    7a5d:	48 89 df             	mov    %rbx,%rdi
    7a60:	e8 fb db ff ff       	callq  5660 <_dl_allocate_tls@plt>
    7a65:	48 85 c0             	test   %rax,%rax
    7a68:	0f 84 9d 01 00 00    	je     7c0b <pthread_create@@GLIBC_2.2.5+0xa7b>
    7a6e:	be 01 00 00 00       	mov    $0x1,%esi
    7a73:	31 c0                	xor    %eax,%eax
    7a75:	f0 0f b1 35 33 48 21 	lock cmpxchg %esi,0x214833(%rip)        # 21c2b0 <stack_cache_lock>
    7a7c:	00 
    7a7d:	0f 85 fd 04 00 00    	jne    7f80 <_L_lock_2287>
    7a83:	48 8b 15 16 48 21 00 	mov    0x214816(%rip),%rdx        # 21c2a0 <__GI___stack_user>
    7a8a:	48 8d 83 c0 02 00 00 	lea    0x2c0(%rbx),%rax
    7a91:	48 89 93 c0 02 00 00 	mov    %rdx,0x2c0(%rbx)
    7a98:	48 8d 15 01 48 21 00 	lea    0x214801(%rip),%rdx        # 21c2a0 <__GI___stack_user>
    7a9f:	48 89 93 c8 02 00 00 	mov    %rdx,0x2c8(%rbx)
    7aa6:	48 8b 15 f3 47 21 00 	mov    0x2147f3(%rip),%rdx        # 21c2a0 <__GI___stack_user>
    7aad:	48 89 42 08          	mov    %rax,0x8(%rdx)
    7ab1:	48 89 05 e8 47 21 00 	mov    %rax,0x2147e8(%rip)        # 21c2a0 <__GI___stack_user>
    7ab8:	f0 ff 0d f1 47 21 00 	lock decl 0x2147f1(%rip)        # 21c2b0 <stack_cache_lock>
    7abf:	0f 85 da 04 00 00    	jne    7f9f <_L_unlock_2297>
    7ac5:	e9 b0 f9 ff ff       	jmpq   747a <pthread_create@@GLIBC_2.2.5+0x2ea>
    7aca:	48 8b bd 78 ff ff ff 	mov    -0x88(%rbp),%rdi
    7ad1:	48 03 7d c0          	add    -0x40(%rbp),%rdi
    7ad5:	8b 55 cc             	mov    -0x34(%rbp),%edx
    7ad8:	e8 63 db ff ff       	callq  5640 <mprotect@plt>
    7add:	85 c0                	test   %eax,%eax
    7adf:	0f 85 18 fe ff ff    	jne    78fd <pthread_create@@GLIBC_2.2.5+0x76d>
    7ae5:	48 8b 7d c0          	mov    -0x40(%rbp),%rdi
    7ae9:	48 89 bb a0 06 00 00 	mov    %rdi,0x6a0(%rbx)
    7af0:	e9 7a f9 ff ff       	jmpq   746f <pthread_create@@GLIBC_2.2.5+0x2df>
    7af5:	48 8b 75 c0          	mov    -0x40(%rbp),%rsi
    7af9:	48 8b bd 78 ff ff ff 	mov    -0x88(%rbp),%rdi
    7b00:	31 d2                	xor    %edx,%edx
    7b02:	e8 39 db ff ff       	callq  5640 <mprotect@plt>
    7b07:	85 c0                	test   %eax,%eax
    7b09:	0f 85 ee fd ff ff    	jne    78fd <pthread_create@@GLIBC_2.2.5+0x76d>
    7b0f:	48 8b 55 c0          	mov    -0x40(%rbp),%rdx
    7b13:	48 89 93 a0 06 00 00 	mov    %rdx,0x6a0(%rbx)
    7b1a:	e9 50 f9 ff ff       	jmpq   746f <pthread_create@@GLIBC_2.2.5+0x2df>
    7b1f:	a8 60                	test   $0x60,%al
    7b21:	0f 84 5b fa ff ff    	je     7582 <pthread_create@@GLIBC_2.2.5+0x3f2>
    7b27:	a8 40                	test   $0x40,%al
    7b29:	0f 84 b3 00 00 00    	je     7be2 <pthread_create@@GLIBC_2.2.5+0xa52>
    7b2f:	41 8b 44 24 04       	mov    0x4(%r12),%eax
    7b34:	89 83 3c 06 00 00    	mov    %eax,0x63c(%rbx)
    7b3a:	41 8b 44 24 08       	mov    0x8(%r12),%eax
    7b3f:	a8 20                	test   $0x20,%al
    7b41:	0f 85 8e 00 00 00    	jne    7bd5 <pthread_create@@GLIBC_2.2.5+0xa45>
    7b47:	f6 83 0c 03 00 00 20 	testb  $0x20,0x30c(%rbx)
    7b4e:	75 17                	jne    7b67 <pthread_create@@GLIBC_2.2.5+0x9d7>
    7b50:	48 8d b3 38 06 00 00 	lea    0x638(%rbx),%rsi
    7b57:	31 ff                	xor    %edi,%edi
    7b59:	b8 8f 00 00 00       	mov    $0x8f,%eax
    7b5e:	0f 05                	syscall 
    7b60:	83 8b 0c 03 00 00 20 	orl    $0x20,0x30c(%rbx)
    7b67:	49 63 7c 24 04       	movslq 0x4(%r12),%rdi
    7b6c:	b8 93 00 00 00       	mov    $0x93,%eax
    7b71:	0f 05                	syscall 
    7b73:	48 89 c6             	mov    %rax,%rsi
    7b76:	49 63 7c 24 04       	movslq 0x4(%r12),%rdi
    7b7b:	b8 92 00 00 00       	mov    $0x92,%eax
    7b80:	0f 05                	syscall 
    7b82:	8b 8b 38 06 00 00    	mov    0x638(%rbx),%ecx
    7b88:	39 f1                	cmp    %esi,%ecx
    7b8a:	7d 3e                	jge    7bca <pthread_create@@GLIBC_2.2.5+0xa3a>
    7b8c:	31 c0                	xor    %eax,%eax
    7b8e:	87 83 1c 06 00 00    	xchg   %eax,0x61c(%rbx)
    7b94:	83 f8 fe             	cmp    $0xfffffffe,%eax
    7b97:	75 1e                	jne    7bb7 <pthread_create@@GLIBC_2.2.5+0xa27>
    7b99:	ba 01 00 00 00       	mov    $0x1,%edx
    7b9e:	64 8b 34 25 48 00 00 	mov    %fs:0x48,%esi
    7ba5:	00 
    7ba6:	b8 ca 00 00 00       	mov    $0xca,%eax
    7bab:	48 8d bb 1c 06 00 00 	lea    0x61c(%rbx),%rdi
    7bb2:	83 ce 01             	or     $0x1,%esi
    7bb5:	0f 05                	syscall 
    7bb7:	48 89 df             	mov    %rbx,%rdi
    7bba:	41 bf 16 00 00 00    	mov    $0x16,%r15d
    7bc0:	e8 7b ef ff ff       	callq  6b40 <__deallocate_stack>
    7bc5:	e9 27 fa ff ff       	jmpq   75f1 <pthread_create@@GLIBC_2.2.5+0x461>
    7bca:	39 c1                	cmp    %eax,%ecx
    7bcc:	7f be                	jg     7b8c <pthread_create@@GLIBC_2.2.5+0x9fc>
    7bce:	66 90                	xchg   %ax,%ax
    7bd0:	e9 ad f9 ff ff       	jmpq   7582 <pthread_create@@GLIBC_2.2.5+0x3f2>
    7bd5:	41 8b 04 24          	mov    (%r12),%eax
    7bd9:	89 83 38 06 00 00    	mov    %eax,0x638(%rbx)
    7bdf:	90                   	nop
    7be0:	eb 85                	jmp    7b67 <pthread_create@@GLIBC_2.2.5+0x9d7>
    7be2:	80 e1 40             	and    $0x40,%cl
    7be5:	0f 85 54 ff ff ff    	jne    7b3f <pthread_create@@GLIBC_2.2.5+0x9af>
    7beb:	31 ff                	xor    %edi,%edi
    7bed:	b8 91 00 00 00       	mov    $0x91,%eax
    7bf2:	0f 05                	syscall 
    7bf4:	83 8b 0c 03 00 00 40 	orl    $0x40,0x30c(%rbx)
    7bfb:	89 83 3c 06 00 00    	mov    %eax,0x63c(%rbx)
    7c01:	41 8b 44 24 08       	mov    0x8(%r12),%eax
    7c06:	e9 34 ff ff ff       	jmpq   7b3f <pthread_create@@GLIBC_2.2.5+0x9af>
    7c0b:	48 8b 05 6e 03 21 00 	mov    0x21036e(%rip),%rax        # 217f80 <_DYNAMIC+0x1f0>
    7c12:	64 83 38 0c          	cmpl   $0xc,%fs:(%rax)
    7c16:	0f 84 60 fc ff ff    	je     787c <pthread_create@@GLIBC_2.2.5+0x6ec>
    7c1c:	48 8d 0d 19 9b 00 00 	lea    0x9b19(%rip),%rcx        # 1173c <__PRETTY_FUNCTION__.11526>
    7c23:	48 8d 35 94 9a 00 00 	lea    0x9a94(%rip),%rsi        # 116be <banner+0x11e>
    7c2a:	48 8d 3d c4 9a 00 00 	lea    0x9ac4(%rip),%rdi        # 116f5 <banner+0x155>
    7c31:	ba b4 01 00 00       	mov    $0x1b4,%edx
    7c36:	e8 a5 d7 ff ff       	callq  53e0 <__assert_fail@plt>
    7c3b:	48 8d 0d fa 9a 00 00 	lea    0x9afa(%rip),%rcx        # 1173c <__PRETTY_FUNCTION__.11526>
    7c42:	48 8d 35 75 9a 00 00 	lea    0x9a75(%rip),%rsi        # 116be <banner+0x11e>
    7c49:	48 8d 3d 80 9b 00 00 	lea    0x9b80(%rip),%rdi        # 117d0 <__PRETTY_FUNCTION__.11806+0x6a>
    7c50:	ba 77 01 00 00       	mov    $0x177,%edx
    7c55:	e8 86 d7 ff ff       	callq  53e0 <__assert_fail@plt>

0000000000007c5a <_L_lock_10>:
    7c5a:	48 8d 3d 4f 46 21 00 	lea    0x21464f(%rip),%rdi        # 21c2b0 <stack_cache_lock>
    7c61:	48 81 ec 80 00 00 00 	sub    $0x80,%rsp
    7c68:	e8 33 67 00 00       	callq  e3a0 <__lll_lock_wait_private>
    7c6d:	48 81 c4 80 00 00 00 	add    $0x80,%rsp
    7c74:	e9 62 e1 ff ff       	jmpq   5ddb <__find_thread_by_id+0x1b>

0000000000007c79 <_L_unlock_30>:
    7c79:	48 8d 3d 30 46 21 00 	lea    0x214630(%rip),%rdi        # 21c2b0 <stack_cache_lock>
    7c80:	48 81 ec 80 00 00 00 	sub    $0x80,%rsp
    7c87:	e8 a4 68 00 00       	callq  e530 <__lll_unlock_wake_private>
    7c8c:	48 81 c4 80 00 00 00 	add    $0x80,%rsp
    7c93:	e9 7c e1 ff ff       	jmpq   5e14 <__find_thread_by_id+0x54>

0000000000007c98 <_L_lock_71>:
    7c98:	48 8d 3d 11 46 21 00 	lea    0x214611(%rip),%rdi        # 21c2b0 <stack_cache_lock>
    7c9f:	48 81 ec 80 00 00 00 	sub    $0x80,%rsp
    7ca6:	e8 f5 66 00 00       	callq  e3a0 <__lll_lock_wait_private>
    7cab:	48 81 c4 80 00 00 00 	add    $0x80,%rsp
    7cb2:	e9 c5 e1 ff ff       	jmpq   5e7c <__find_in_stack_list+0x1c>

0000000000007cb7 <_L_unlock_97>:
    7cb7:	48 8d 3d f2 45 21 00 	lea    0x2145f2(%rip),%rdi        # 21c2b0 <stack_cache_lock>
    7cbe:	48 81 ec 80 00 00 00 	sub    $0x80,%rsp
    7cc5:	e8 66 68 00 00       	callq  e530 <__lll_unlock_wake_private>
    7cca:	48 81 c4 80 00 00 00 	add    $0x80,%rsp
    7cd1:	e9 eb e1 ff ff       	jmpq   5ec1 <__find_in_stack_list+0x61>

0000000000007cd6 <_L_lock_468>:
    7cd6:	48 8d 3d d3 45 21 00 	lea    0x2145d3(%rip),%rdi        # 21c2b0 <stack_cache_lock>
    7cdd:	48 81 ec 80 00 00 00 	sub    $0x80,%rsp
    7ce4:	e8 b7 66 00 00       	callq  e3a0 <__lll_lock_wait_private>
    7ce9:	48 81 c4 80 00 00 00 	add    $0x80,%rsp
    7cf0:	e9 6d e6 ff ff       	jmpq   6362 <__wait_lookup_done+0x22>

0000000000007cf5 <_L_unlock_562>:
    7cf5:	48 8d 3d b4 45 21 00 	lea    0x2145b4(%rip),%rdi        # 21c2b0 <stack_cache_lock>
    7cfc:	48 81 ec 80 00 00 00 	sub    $0x80,%rsp
    7d03:	e8 28 68 00 00       	callq  e530 <__lll_unlock_wake_private>
    7d08:	48 81 c4 80 00 00 00 	add    $0x80,%rsp
    7d0f:	e9 71 e7 ff ff       	jmpq   6485 <__wait_lookup_done+0x145>

0000000000007d14 <_L_lock_660>:
    7d14:	48 8d 3d 95 45 21 00 	lea    0x214595(%rip),%rdi        # 21c2b0 <stack_cache_lock>
    7d1b:	48 81 ec 80 00 00 00 	sub    $0x80,%rsp
    7d22:	e8 79 66 00 00       	callq  e3a0 <__lll_lock_wait_private>
    7d27:	48 81 c4 80 00 00 00 	add    $0x80,%rsp
    7d2e:	e9 42 e8 ff ff       	jmpq   6575 <__nptl_setxid+0x25>

0000000000007d33 <_L_unlock_903>:
    7d33:	48 8d 3d 76 45 21 00 	lea    0x214576(%rip),%rdi        # 21c2b0 <stack_cache_lock>
    7d3a:	48 81 ec 80 00 00 00 	sub    $0x80,%rsp
    7d41:	e8 ea 67 00 00       	callq  e530 <__lll_unlock_wake_private>
    7d46:	48 81 c4 80 00 00 00 	add    $0x80,%rsp
    7d4d:	e9 a7 ea ff ff       	jmpq   67f9 <__nptl_setxid+0x2a9>

0000000000007d52 <_L_lock_937>:
    7d52:	48 8d 3d 57 45 21 00 	lea    0x214557(%rip),%rdi        # 21c2b0 <stack_cache_lock>
    7d59:	48 81 ec 80 00 00 00 	sub    $0x80,%rsp
    7d60:	e8 3b 66 00 00       	callq  e3a0 <__lll_lock_wait_private>
    7d65:	48 81 c4 80 00 00 00 	add    $0x80,%rsp
    7d6c:	e9 d2 ea ff ff       	jmpq   6843 <__pthread_init_static_tls+0x23>

0000000000007d71 <_L_unlock_1002>:
    7d71:	48 8d 3d 38 45 21 00 	lea    0x214538(%rip),%rdi        # 21c2b0 <stack_cache_lock>
    7d78:	48 81 ec 80 00 00 00 	sub    $0x80,%rsp
    7d7f:	e8 ac 67 00 00       	callq  e530 <__lll_unlock_wake_private>
    7d84:	48 81 c4 80 00 00 00 	add    $0x80,%rsp
    7d8b:	e9 c8 eb ff ff       	jmpq   6958 <__pthread_init_static_tls+0x138>

0000000000007d90 <_L_lock_1026>:
    7d90:	48 8d 3d 19 45 21 00 	lea    0x214519(%rip),%rdi        # 21c2b0 <stack_cache_lock>
    7d97:	48 81 ec 80 00 00 00 	sub    $0x80,%rsp
    7d9e:	e8 fd 65 00 00       	callq  e3a0 <__lll_lock_wait_private>
    7da3:	48 81 c4 80 00 00 00 	add    $0x80,%rsp
    7daa:	e9 e6 eb ff ff       	jmpq   6995 <__make_stacks_executable+0x25>

0000000000007daf <_L_unlock_1057>:
    7daf:	48 8d 3d fa 44 21 00 	lea    0x2144fa(%rip),%rdi        # 21c2b0 <stack_cache_lock>
    7db6:	48 81 ec 80 00 00 00 	sub    $0x80,%rsp
    7dbd:	e8 6e 67 00 00       	callq  e530 <__lll_unlock_wake_private>
    7dc2:	48 81 c4 80 00 00 00 	add    $0x80,%rsp
    7dc9:	e9 32 ec ff ff       	jmpq   6a00 <__make_stacks_executable+0x90>

0000000000007dce <_L_lock_1190>:
    7dce:	48 8d 3d db 44 21 00 	lea    0x2144db(%rip),%rdi        # 21c2b0 <stack_cache_lock>
    7dd5:	48 81 ec 80 00 00 00 	sub    $0x80,%rsp
    7ddc:	e8 bf 65 00 00       	callq  e3a0 <__lll_lock_wait_private>
    7de1:	48 81 c4 80 00 00 00 	add    $0x80,%rsp
    7de8:	e9 74 ed ff ff       	jmpq   6b61 <__deallocate_stack+0x21>

0000000000007ded <_L_unlock_1225>:
    7ded:	48 8d 3d bc 44 21 00 	lea    0x2144bc(%rip),%rdi        # 21c2b0 <stack_cache_lock>
    7df4:	48 81 ec 80 00 00 00 	sub    $0x80,%rsp
    7dfb:	e8 30 67 00 00       	callq  e530 <__lll_unlock_wake_private>
    7e00:	48 81 c4 80 00 00 00 	add    $0x80,%rsp
    7e07:	e9 fd ed ff ff       	jmpq   6c09 <__deallocate_stack+0xc9>

0000000000007e0c <_L_lock_1534>:
    7e0c:	48 8d bb 18 06 00 00 	lea    0x618(%rbx),%rdi
    7e13:	48 81 ec 80 00 00 00 	sub    $0x80,%rsp
    7e1a:	e8 81 65 00 00       	callq  e3a0 <__lll_lock_wait_private>
    7e1f:	48 81 c4 80 00 00 00 	add    $0x80,%rsp
    7e26:	e9 9f f1 ff ff       	jmpq   6fca <start_thread+0x34a>

0000000000007e2b <_L_unlock_1535>:
    7e2b:	48 8d bb 18 06 00 00 	lea    0x618(%rbx),%rdi
    7e32:	48 81 ec 80 00 00 00 	sub    $0x80,%rsp
    7e39:	e8 f2 66 00 00       	callq  e530 <__lll_unlock_wake_private>
    7e3e:	48 81 c4 80 00 00 00 	add    $0x80,%rsp
    7e45:	e9 8d f1 ff ff       	jmpq   6fd7 <start_thread+0x357>

0000000000007e4a <_L_lock_1609>:
    7e4a:	48 8d bb 18 06 00 00 	lea    0x618(%rbx),%rdi
    7e51:	48 81 ec 80 00 00 00 	sub    $0x80,%rsp
    7e58:	e8 43 65 00 00       	callq  e3a0 <__lll_lock_wait_private>
    7e5d:	48 81 c4 80 00 00 00 	add    $0x80,%rsp
    7e64:	e9 48 f2 ff ff       	jmpq   70b1 <T.141+0x91>

0000000000007e69 <_L_lock_1752>:
    7e69:	48 8d 3d 40 44 21 00 	lea    0x214440(%rip),%rdi        # 21c2b0 <stack_cache_lock>
    7e70:	48 81 ec 80 00 00 00 	sub    $0x80,%rsp
    7e77:	e8 24 65 00 00       	callq  e3a0 <__lll_lock_wait_private>
    7e7c:	48 81 c4 80 00 00 00 	add    $0x80,%rsp
    7e83:	e9 e8 f3 ff ff       	jmpq   7270 <pthread_create@@GLIBC_2.2.5+0xe0>

0000000000007e88 <_L_unlock_1831>:
    7e88:	48 8d 3d 21 44 21 00 	lea    0x214421(%rip),%rdi        # 21c2b0 <stack_cache_lock>
    7e8f:	48 81 ec 80 00 00 00 	sub    $0x80,%rsp
    7e96:	e8 95 66 00 00       	callq  e530 <__lll_unlock_wake_private>
    7e9b:	48 81 c4 80 00 00 00 	add    $0x80,%rsp
    7ea2:	e9 e5 f4 ff ff       	jmpq   738c <pthread_create@@GLIBC_2.2.5+0x1fc>

0000000000007ea7 <_L_unlock_1989>:
    7ea7:	48 8d bb 18 06 00 00 	lea    0x618(%rbx),%rdi
    7eae:	48 81 ec 80 00 00 00 	sub    $0x80,%rsp
    7eb5:	e8 76 66 00 00       	callq  e530 <__lll_unlock_wake_private>
    7eba:	48 81 c4 80 00 00 00 	add    $0x80,%rsp
    7ec1:	e9 2b f7 ff ff       	jmpq   75f1 <pthread_create@@GLIBC_2.2.5+0x461>

0000000000007ec6 <_L_unlock_2054>:
    7ec6:	48 8d bb 18 06 00 00 	lea    0x618(%rbx),%rdi
    7ecd:	48 81 ec 80 00 00 00 	sub    $0x80,%rsp
    7ed4:	e8 57 66 00 00       	callq  e530 <__lll_unlock_wake_private>
    7ed9:	48 81 c4 80 00 00 00 	add    $0x80,%rsp
    7ee0:	e9 bb f7 ff ff       	jmpq   76a0 <pthread_create@@GLIBC_2.2.5+0x510>

0000000000007ee5 <_L_unlock_2068>:
    7ee5:	48 8d 3d c4 43 21 00 	lea    0x2143c4(%rip),%rdi        # 21c2b0 <stack_cache_lock>
    7eec:	48 81 ec 80 00 00 00 	sub    $0x80,%rsp
    7ef3:	e8 38 66 00 00       	callq  e530 <__lll_unlock_wake_private>
    7ef8:	48 81 c4 80 00 00 00 	add    $0x80,%rsp
    7eff:	e9 cd f7 ff ff       	jmpq   76d1 <pthread_create@@GLIBC_2.2.5+0x541>

0000000000007f04 <_L_lock_2114>:
    7f04:	48 8d 3d a5 43 21 00 	lea    0x2143a5(%rip),%rdi        # 21c2b0 <stack_cache_lock>
    7f0b:	48 81 ec 80 00 00 00 	sub    $0x80,%rsp
    7f12:	e8 89 64 00 00       	callq  e3a0 <__lll_lock_wait_private>
    7f17:	48 81 c4 80 00 00 00 	add    $0x80,%rsp
    7f1e:	e9 8e f8 ff ff       	jmpq   77b1 <pthread_create@@GLIBC_2.2.5+0x621>

0000000000007f23 <_L_unlock_2130>:
    7f23:	48 8d 3d 86 43 21 00 	lea    0x214386(%rip),%rdi        # 21c2b0 <stack_cache_lock>
    7f2a:	48 81 ec 80 00 00 00 	sub    $0x80,%rsp
    7f31:	e8 fa 65 00 00       	callq  e530 <__lll_unlock_wake_private>
    7f36:	48 81 c4 80 00 00 00 	add    $0x80,%rsp
    7f3d:	e9 ca f8 ff ff       	jmpq   780c <pthread_create@@GLIBC_2.2.5+0x67c>

0000000000007f42 <_L_lock_2203>:
    7f42:	48 8d 3d 67 43 21 00 	lea    0x214367(%rip),%rdi        # 21c2b0 <stack_cache_lock>
    7f49:	48 81 ec 80 00 00 00 	sub    $0x80,%rsp
    7f50:	e8 4b 64 00 00       	callq  e3a0 <__lll_lock_wait_private>
    7f55:	48 81 c4 80 00 00 00 	add    $0x80,%rsp
    7f5c:	e9 b1 f9 ff ff       	jmpq   7912 <pthread_create@@GLIBC_2.2.5+0x782>

0000000000007f61 <_L_unlock_2213>:
    7f61:	48 8d 3d 48 43 21 00 	lea    0x214348(%rip),%rdi        # 21c2b0 <stack_cache_lock>
    7f68:	48 81 ec 80 00 00 00 	sub    $0x80,%rsp
    7f6f:	e8 bc 65 00 00       	callq  e530 <__lll_unlock_wake_private>
    7f74:	48 81 c4 80 00 00 00 	add    $0x80,%rsp
    7f7b:	e9 cd f9 ff ff       	jmpq   794d <pthread_create@@GLIBC_2.2.5+0x7bd>

0000000000007f80 <_L_lock_2287>:
    7f80:	48 8d 3d 29 43 21 00 	lea    0x214329(%rip),%rdi        # 21c2b0 <stack_cache_lock>
    7f87:	48 81 ec 80 00 00 00 	sub    $0x80,%rsp
    7f8e:	e8 0d 64 00 00       	callq  e3a0 <__lll_lock_wait_private>
    7f93:	48 81 c4 80 00 00 00 	add    $0x80,%rsp
    7f9a:	e9 e4 fa ff ff       	jmpq   7a83 <pthread_create@@GLIBC_2.2.5+0x8f3>

0000000000007f9f <_L_unlock_2297>:
    7f9f:	48 8d 3d 0a 43 21 00 	lea    0x21430a(%rip),%rdi        # 21c2b0 <stack_cache_lock>
    7fa6:	48 81 ec 80 00 00 00 	sub    $0x80,%rsp
    7fad:	e8 7e 65 00 00       	callq  e530 <__lll_unlock_wake_private>
    7fb2:	48 81 c4 80 00 00 00 	add    $0x80,%rsp
    7fb9:	e9 07 fb ff ff       	jmpq   7ac5 <pthread_create@@GLIBC_2.2.5+0x935>
    7fbe:	90                   	nop
    7fbf:	90                   	nop

0000000000007fc0 <pthread_exit>:
    7fc0:	55                   	push   %rbp
    7fc1:	48 89 e5             	mov    %rsp,%rbp
    7fc4:	64 48 89 3c 25 30 06 	mov    %rdi,%fs:0x630
    7fcb:	00 00 
    7fcd:	f0 64 83 0c 25 08 03 	lock orl $0x10,%fs:0x308
    7fd4:	00 00 10 
    7fd7:	64 48 8b 3c 25 00 03 	mov    %fs:0x300,%rdi
    7fde:	00 00 
    7fe0:	e8 5b 60 00 00       	callq  e040 <__pthread_unwind>
    7fe5:	90                   	nop
    7fe6:	90                   	nop
    7fe7:	90                   	nop
    7fe8:	90                   	nop
    7fe9:	90                   	nop
    7fea:	90                   	nop
    7feb:	90                   	nop
    7fec:	90                   	nop
    7fed:	90                   	nop
    7fee:	90                   	nop
    7fef:	90                   	nop

0000000000007ff0 <pthread_detach>:
    7ff0:	55                   	push   %rbp
    7ff1:	8b 87 d0 02 00 00    	mov    0x2d0(%rdi),%eax
    7ff7:	48 89 e5             	mov    %rsp,%rbp
    7ffa:	85 c0                	test   %eax,%eax
    7ffc:	78 34                	js     8032 <pthread_detach+0x42>
    7ffe:	31 c0                	xor    %eax,%eax
    8000:	f0 48 0f b1 bf 28 06 	lock cmpxchg %rdi,0x628(%rdi)
    8007:	00 00 
    8009:	74 15                	je     8020 <pthread_detach+0x30>
    800b:	48 39 bf 28 06 00 00 	cmp    %rdi,0x628(%rdi)
    8012:	b8 16 00 00 00       	mov    $0x16,%eax
    8017:	74 02                	je     801b <pthread_detach+0x2b>
    8019:	31 c0                	xor    %eax,%eax
    801b:	c9                   	leaveq 
    801c:	c3                   	retq   
    801d:	0f 1f 00             	nopl   (%rax)
    8020:	f6 87 08 03 00 00 10 	testb  $0x10,0x308(%rdi)
    8027:	74 f0                	je     8019 <pthread_detach+0x29>
    8029:	e8 02 ec ff ff       	callq  6c30 <__free_tcb>
    802e:	31 c0                	xor    %eax,%eax
    8030:	c9                   	leaveq 
    8031:	c3                   	retq   
    8032:	b8 03 00 00 00       	mov    $0x3,%eax
    8037:	c9                   	leaveq 
    8038:	c3                   	retq   
    8039:	90                   	nop
    803a:	90                   	nop
    803b:	90                   	nop
    803c:	90                   	nop
    803d:	90                   	nop
    803e:	90                   	nop
    803f:	90                   	nop

0000000000008040 <cleanup>:
    8040:	55                   	push   %rbp
    8041:	31 d2                	xor    %edx,%edx
    8043:	64 48 8b 04 25 10 00 	mov    %fs:0x10,%rax
    804a:	00 00 
    804c:	48 89 e5             	mov    %rsp,%rbp
    804f:	f0 48 0f b1 17       	lock cmpxchg %rdx,(%rdi)
    8054:	c9                   	leaveq 
    8055:	c3                   	retq   
    8056:	66 2e 0f 1f 84 00 00 	nopw   %cs:0x0(%rax,%rax,1)
    805d:	00 00 00 

0000000000008060 <pthread_join>:
    8060:	55                   	push   %rbp
    8061:	48 89 e5             	mov    %rsp,%rbp
    8064:	48 89 5d d8          	mov    %rbx,-0x28(%rbp)
    8068:	4c 89 65 e0          	mov    %r12,-0x20(%rbp)
    806c:	48 89 fb             	mov    %rdi,%rbx
    806f:	4c 89 6d e8          	mov    %r13,-0x18(%rbp)
    8073:	4c 89 75 f0          	mov    %r14,-0x10(%rbp)
    8077:	49 89 f4             	mov    %rsi,%r12
    807a:	4c 89 7d f8          	mov    %r15,-0x8(%rbp)
    807e:	48 83 ec 60          	sub    $0x60,%rsp
    8082:	8b 87 d0 02 00 00    	mov    0x2d0(%rdi),%eax
    8088:	85 c0                	test   %eax,%eax
    808a:	0f 88 1f 01 00 00    	js     81af <pthread_join+0x14f>
    8090:	48 39 bf 28 06 00 00 	cmp    %rdi,0x628(%rdi)
    8097:	b8 16 00 00 00       	mov    $0x16,%eax
    809c:	0f 84 91 00 00 00    	je     8133 <pthread_join+0xd3>
    80a2:	4c 8d b7 28 06 00 00 	lea    0x628(%rdi),%r14
    80a9:	4c 8d 6d b0          	lea    -0x50(%rbp),%r13
    80ad:	48 8d 35 8c ff ff ff 	lea    -0x74(%rip),%rsi        # 8040 <cleanup>
    80b4:	64 4c 8b 3c 25 10 00 	mov    %fs:0x10,%r15
    80bb:	00 00 
    80bd:	4c 89 f2             	mov    %r14,%rdx
    80c0:	4c 89 ef             	mov    %r13,%rdi
    80c3:	e8 28 5e 00 00       	callq  def0 <_pthread_cleanup_push>
    80c8:	e8 13 62 00 00       	callq  e2e0 <__pthread_enable_asynccancel>
    80cd:	4c 39 fb             	cmp    %r15,%rbx
    80d0:	41 89 c0             	mov    %eax,%r8d
    80d3:	0f 84 a4 00 00 00    	je     817d <pthread_join+0x11d>
    80d9:	49 39 9f 28 06 00 00 	cmp    %rbx,0x628(%r15)
    80e0:	0f 84 8a 00 00 00    	je     8170 <pthread_join+0x110>
    80e6:	31 c0                	xor    %eax,%eax
    80e8:	f0 4d 0f b1 3e       	lock cmpxchg %r15,(%r14)
    80ed:	0f 85 c6 00 00 00    	jne    81b9 <pthread_join+0x159>
    80f3:	8b 93 d0 02 00 00    	mov    0x2d0(%rbx),%edx
    80f9:	85 d2                	test   %edx,%edx
    80fb:	75 53                	jne    8150 <pthread_join+0xf0>
    80fd:	44 89 c7             	mov    %r8d,%edi
    8100:	e8 3b 62 00 00       	callq  e340 <__pthread_disable_asynccancel>
    8105:	31 f6                	xor    %esi,%esi
    8107:	4c 89 ef             	mov    %r13,%rdi
    810a:	e8 11 5e 00 00       	callq  df20 <_pthread_cleanup_pop>
    810f:	4d 85 e4             	test   %r12,%r12
    8112:	c7 83 d0 02 00 00 ff 	movl   $0xffffffff,0x2d0(%rbx)
    8119:	ff ff ff 
    811c:	74 0b                	je     8129 <pthread_join+0xc9>
    811e:	48 8b 83 30 06 00 00 	mov    0x630(%rbx),%rax
    8125:	49 89 04 24          	mov    %rax,(%r12)
    8129:	48 89 df             	mov    %rbx,%rdi
    812c:	e8 ff ea ff ff       	callq  6c30 <__free_tcb>
    8131:	31 c0                	xor    %eax,%eax
    8133:	48 8b 5d d8          	mov    -0x28(%rbp),%rbx
    8137:	4c 8b 65 e0          	mov    -0x20(%rbp),%r12
    813b:	4c 8b 6d e8          	mov    -0x18(%rbp),%r13
    813f:	4c 8b 75 f0          	mov    -0x10(%rbp),%r14
    8143:	4c 8b 7d f8          	mov    -0x8(%rbp),%r15
    8147:	c9                   	leaveq 
    8148:	c3                   	retq   
    8149:	0f 1f 80 00 00 00 00 	nopl   0x0(%rax)
    8150:	48 8d bb d0 02 00 00 	lea    0x2d0(%rbx),%rdi
    8157:	31 f6                	xor    %esi,%esi
    8159:	4d 31 d2             	xor    %r10,%r10
    815c:	48 c7 c0 ca 00 00 00 	mov    $0xca,%rax
    8163:	0f 05                	syscall 
    8165:	83 3f 00             	cmpl   $0x0,(%rdi)
    8168:	75 f2                	jne    815c <pthread_join+0xfc>
    816a:	eb 91                	jmp    80fd <pthread_join+0x9d>
    816c:	0f 1f 40 00          	nopl   0x0(%rax)
    8170:	f6 83 08 03 00 00 3c 	testb  $0x3c,0x308(%rbx)
    8177:	0f 85 69 ff ff ff    	jne    80e6 <pthread_join+0x86>
    817d:	41 8b 97 08 03 00 00 	mov    0x308(%r15),%edx
    8184:	b8 23 00 00 00       	mov    $0x23,%eax
    8189:	83 e2 b9             	and    $0xffffffb9,%edx
    818c:	83 fa 08             	cmp    $0x8,%edx
    818f:	0f 84 51 ff ff ff    	je     80e6 <pthread_join+0x86>
    8195:	44 89 c7             	mov    %r8d,%edi
    8198:	89 45 a8             	mov    %eax,-0x58(%rbp)
    819b:	e8 a0 61 00 00       	callq  e340 <__pthread_disable_asynccancel>
    81a0:	31 f6                	xor    %esi,%esi
    81a2:	4c 89 ef             	mov    %r13,%rdi
    81a5:	e8 76 5d 00 00       	callq  df20 <_pthread_cleanup_pop>
    81aa:	8b 45 a8             	mov    -0x58(%rbp),%eax
    81ad:	eb 84                	jmp    8133 <pthread_join+0xd3>
    81af:	b8 03 00 00 00       	mov    $0x3,%eax
    81b4:	e9 7a ff ff ff       	jmpq   8133 <pthread_join+0xd3>
    81b9:	b8 16 00 00 00       	mov    $0x16,%eax
    81be:	66 90                	xchg   %ax,%ax
    81c0:	eb d3                	jmp    8195 <pthread_join+0x135>
    81c2:	90                   	nop
    81c3:	90                   	nop
    81c4:	90                   	nop
    81c5:	90                   	nop
    81c6:	90                   	nop
    81c7:	90                   	nop
    81c8:	90                   	nop
    81c9:	90                   	nop
    81ca:	90                   	nop
    81cb:	90                   	nop
    81cc:	90                   	nop
    81cd:	90                   	nop
    81ce:	90                   	nop
    81cf:	90                   	nop

00000000000081d0 <pthread_tryjoin_np>:
    81d0:	55                   	push   %rbp
    81d1:	48 39 bf 28 06 00 00 	cmp    %rdi,0x628(%rdi)
    81d8:	48 89 e5             	mov    %rsp,%rbp
    81db:	74 53                	je     8230 <pthread_tryjoin_np+0x60>
    81dd:	64 48 8b 14 25 10 00 	mov    %fs:0x10,%rdx
    81e4:	00 00 
    81e6:	48 39 d7             	cmp    %rdx,%rdi
    81e9:	74 55                	je     8240 <pthread_tryjoin_np+0x70>
    81eb:	48 39 ba 28 06 00 00 	cmp    %rdi,0x628(%rdx)
    81f2:	74 4c                	je     8240 <pthread_tryjoin_np+0x70>
    81f4:	8b 8f d0 02 00 00    	mov    0x2d0(%rdi),%ecx
    81fa:	b8 10 00 00 00       	mov    $0x10,%eax
    81ff:	85 c9                	test   %ecx,%ecx
    8201:	74 05                	je     8208 <pthread_tryjoin_np+0x38>
    8203:	c9                   	leaveq 
    8204:	c3                   	retq   
    8205:	0f 1f 00             	nopl   (%rax)
    8208:	31 c0                	xor    %eax,%eax
    820a:	f0 48 0f b1 97 28 06 	lock cmpxchg %rdx,0x628(%rdi)
    8211:	00 00 
    8213:	75 1b                	jne    8230 <pthread_tryjoin_np+0x60>
    8215:	48 85 f6             	test   %rsi,%rsi
    8218:	74 0a                	je     8224 <pthread_tryjoin_np+0x54>
    821a:	48 8b 87 30 06 00 00 	mov    0x630(%rdi),%rax
    8221:	48 89 06             	mov    %rax,(%rsi)
    8224:	e8 07 ea ff ff       	callq  6c30 <__free_tcb>
    8229:	31 c0                	xor    %eax,%eax
    822b:	c9                   	leaveq 
    822c:	c3                   	retq   
    822d:	0f 1f 00             	nopl   (%rax)
    8230:	b8 16 00 00 00       	mov    $0x16,%eax
    8235:	c9                   	leaveq 
    8236:	c3                   	retq   
    8237:	66 0f 1f 84 00 00 00 	nopw   0x0(%rax,%rax,1)
    823e:	00 00 
    8240:	b8 23 00 00 00       	mov    $0x23,%eax
    8245:	c9                   	leaveq 
    8246:	c3                   	retq   
    8247:	90                   	nop
    8248:	90                   	nop
    8249:	90                   	nop
    824a:	90                   	nop
    824b:	90                   	nop
    824c:	90                   	nop
    824d:	90                   	nop
    824e:	90                   	nop
    824f:	90                   	nop

0000000000008250 <cleanup>:
    8250:	55                   	push   %rbp
    8251:	48 c7 07 00 00 00 00 	movq   $0x0,(%rdi)
    8258:	48 89 e5             	mov    %rsp,%rbp
    825b:	c9                   	leaveq 
    825c:	c3                   	retq   
    825d:	0f 1f 00             	nopl   (%rax)

0000000000008260 <pthread_timedjoin_np>:
    8260:	55                   	push   %rbp
    8261:	48 89 e5             	mov    %rsp,%rbp
    8264:	48 89 5d d8          	mov    %rbx,-0x28(%rbp)
    8268:	4c 89 6d e8          	mov    %r13,-0x18(%rbp)
    826c:	48 89 fb             	mov    %rdi,%rbx
    826f:	4c 89 75 f0          	mov    %r14,-0x10(%rbp)
    8273:	4c 89 65 e0          	mov    %r12,-0x20(%rbp)
    8277:	49 89 d6             	mov    %rdx,%r14
    827a:	4c 89 7d f8          	mov    %r15,-0x8(%rbp)
    827e:	48 83 ec 50          	sub    $0x50,%rsp
    8282:	8b 97 d0 02 00 00    	mov    0x2d0(%rdi),%edx
    8288:	49 89 f5             	mov    %rsi,%r13
    828b:	85 d2                	test   %edx,%edx
    828d:	0f 88 2a 01 00 00    	js     83bd <pthread_timedjoin_np+0x15d>
    8293:	48 39 bf 28 06 00 00 	cmp    %rdi,0x628(%rdi)
    829a:	0f 84 10 01 00 00    	je     83b0 <pthread_timedjoin_np+0x150>
    82a0:	64 48 8b 0c 25 10 00 	mov    %fs:0x10,%rcx
    82a7:	00 00 
    82a9:	48 39 cf             	cmp    %rcx,%rdi
    82ac:	0f 84 c6 00 00 00    	je     8378 <pthread_timedjoin_np+0x118>
    82b2:	48 39 b9 28 06 00 00 	cmp    %rdi,0x628(%rcx)
    82b9:	0f 84 b9 00 00 00    	je     8378 <pthread_timedjoin_np+0x118>
    82bf:	48 8d 97 28 06 00 00 	lea    0x628(%rdi),%rdx
    82c6:	31 c0                	xor    %eax,%eax
    82c8:	f0 48 0f b1 0a       	lock cmpxchg %rcx,(%rdx)
    82cd:	0f 85 dd 00 00 00    	jne    83b0 <pthread_timedjoin_np+0x150>
    82d3:	4c 8d 65 b0          	lea    -0x50(%rbp),%r12
    82d7:	48 8d 35 72 ff ff ff 	lea    -0x8e(%rip),%rsi        # 8250 <cleanup>
    82de:	4c 89 e7             	mov    %r12,%rdi
    82e1:	e8 0a 5c 00 00       	callq  def0 <_pthread_cleanup_push>
    82e6:	e8 f5 5f 00 00       	callq  e2e0 <__pthread_enable_asynccancel>
    82eb:	41 89 c7             	mov    %eax,%r15d
    82ee:	8b 83 d0 02 00 00    	mov    0x2d0(%rbx),%eax
    82f4:	85 c0                	test   %eax,%eax
    82f6:	75 48                	jne    8340 <pthread_timedjoin_np+0xe0>
    82f8:	44 89 ff             	mov    %r15d,%edi
    82fb:	e8 40 60 00 00       	callq  e340 <__pthread_disable_asynccancel>
    8300:	31 f6                	xor    %esi,%esi
    8302:	4c 89 e7             	mov    %r12,%rdi
    8305:	e8 16 5c 00 00       	callq  df20 <_pthread_cleanup_pop>
    830a:	4d 85 ed             	test   %r13,%r13
    830d:	74 0b                	je     831a <pthread_timedjoin_np+0xba>
    830f:	48 8b 83 30 06 00 00 	mov    0x630(%rbx),%rax
    8316:	49 89 45 00          	mov    %rax,0x0(%r13)
    831a:	48 89 df             	mov    %rbx,%rdi
    831d:	e8 0e e9 ff ff       	callq  6c30 <__free_tcb>
    8322:	31 c0                	xor    %eax,%eax
    8324:	48 8b 5d d8          	mov    -0x28(%rbp),%rbx
    8328:	4c 8b 65 e0          	mov    -0x20(%rbp),%r12
    832c:	4c 8b 6d e8          	mov    -0x18(%rbp),%r13
    8330:	4c 8b 75 f0          	mov    -0x10(%rbp),%r14
    8334:	4c 8b 7d f8          	mov    -0x8(%rbp),%r15
    8338:	c9                   	leaveq 
    8339:	c3                   	retq   
    833a:	66 0f 1f 44 00 00    	nopw   0x0(%rax,%rax,1)
    8340:	49 81 7e 08 ff c9 9a 	cmpq   $0x3b9ac9ff,0x8(%r14)
    8347:	3b 
    8348:	76 36                	jbe    8380 <pthread_timedjoin_np+0x120>
    834a:	44 89 ff             	mov    %r15d,%edi
    834d:	41 be 16 00 00 00    	mov    $0x16,%r14d
    8353:	e8 e8 5f 00 00       	callq  e340 <__pthread_disable_asynccancel>
    8358:	31 f6                	xor    %esi,%esi
    835a:	4c 89 e7             	mov    %r12,%rdi
    835d:	e8 be 5b 00 00       	callq  df20 <_pthread_cleanup_pop>
    8362:	48 c7 83 28 06 00 00 	movq   $0x0,0x628(%rbx)
    8369:	00 00 00 00 
    836d:	44 89 f0             	mov    %r14d,%eax
    8370:	eb b2                	jmp    8324 <pthread_timedjoin_np+0xc4>
    8372:	66 0f 1f 44 00 00    	nopw   0x0(%rax,%rax,1)
    8378:	b8 23 00 00 00       	mov    $0x23,%eax
    837d:	eb a5                	jmp    8324 <pthread_timedjoin_np+0xc4>
    837f:	90                   	nop
    8380:	48 8d bb d0 02 00 00 	lea    0x2d0(%rbx),%rdi
    8387:	4c 89 f6             	mov    %r14,%rsi
    838a:	e8 01 62 00 00       	callq  e590 <__lll_timedwait_tid>
    838f:	44 89 ff             	mov    %r15d,%edi
    8392:	41 89 c6             	mov    %eax,%r14d
    8395:	e8 a6 5f 00 00       	callq  e340 <__pthread_disable_asynccancel>
    839a:	31 f6                	xor    %esi,%esi
    839c:	4c 89 e7             	mov    %r12,%rdi
    839f:	e8 7c 5b 00 00       	callq  df20 <_pthread_cleanup_pop>
    83a4:	45 85 f6             	test   %r14d,%r14d
    83a7:	75 b9                	jne    8362 <pthread_timedjoin_np+0x102>
    83a9:	e9 5c ff ff ff       	jmpq   830a <pthread_timedjoin_np+0xaa>
    83ae:	66 90                	xchg   %ax,%ax
    83b0:	b8 16 00 00 00       	mov    $0x16,%eax
    83b5:	0f 1f 00             	nopl   (%rax)
    83b8:	e9 67 ff ff ff       	jmpq   8324 <pthread_timedjoin_np+0xc4>
    83bd:	b8 03 00 00 00       	mov    $0x3,%eax
    83c2:	66 0f 1f 44 00 00    	nopw   0x0(%rax,%rax,1)
    83c8:	e9 57 ff ff ff       	jmpq   8324 <pthread_timedjoin_np+0xc4>
    83cd:	90                   	nop
    83ce:	90                   	nop
    83cf:	90                   	nop

00000000000083d0 <pthread_self>:
    83d0:	55                   	push   %rbp
    83d1:	64 48 8b 04 25 10 00 	mov    %fs:0x10,%rax
    83d8:	00 00 
    83da:	48 89 e5             	mov    %rsp,%rbp
    83dd:	c9                   	leaveq 
    83de:	c3                   	retq   
    83df:	90                   	nop

00000000000083e0 <pthread_equal>:
    83e0:	55                   	push   %rbp
    83e1:	31 c0                	xor    %eax,%eax
    83e3:	48 39 f7             	cmp    %rsi,%rdi
    83e6:	0f 94 c0             	sete   %al
    83e9:	48 89 e5             	mov    %rsp,%rbp
    83ec:	c9                   	leaveq 
    83ed:	c3                   	retq   
    83ee:	90                   	nop
    83ef:	90                   	nop

00000000000083f0 <pthread_yield>:
    83f0:	55                   	push   %rbp
    83f1:	48 89 e5             	mov    %rsp,%rbp
    83f4:	c9                   	leaveq 
    83f5:	e9 36 d0 ff ff       	jmpq   5430 <sched_yield@plt>
    83fa:	90                   	nop
    83fb:	90                   	nop
    83fc:	90                   	nop
    83fd:	90                   	nop
    83fe:	90                   	nop
    83ff:	90                   	nop

0000000000008400 <pthread_getconcurrency>:
    8400:	55                   	push   %rbp
    8401:	8b 05 69 3f 21 00    	mov    0x213f69(%rip),%eax        # 21c370 <__concurrency_level>
    8407:	48 89 e5             	mov    %rsp,%rbp
    840a:	c9                   	leaveq 
    840b:	c3                   	retq   
    840c:	90                   	nop
    840d:	90                   	nop
    840e:	90                   	nop
    840f:	90                   	nop

0000000000008410 <pthread_setconcurrency>:
    8410:	55                   	push   %rbp
    8411:	85 ff                	test   %edi,%edi
    8413:	b8 16 00 00 00       	mov    $0x16,%eax
    8418:	48 89 e5             	mov    %rsp,%rbp
    841b:	78 08                	js     8425 <pthread_setconcurrency+0x15>
    841d:	89 3d 4d 3f 21 00    	mov    %edi,0x213f4d(%rip)        # 21c370 <__concurrency_level>
    8423:	30 c0                	xor    %al,%al
    8425:	c9                   	leaveq 
    8426:	c3                   	retq   
    8427:	90                   	nop
    8428:	90                   	nop
    8429:	90                   	nop
    842a:	90                   	nop
    842b:	90                   	nop
    842c:	90                   	nop
    842d:	90                   	nop
    842e:	90                   	nop
    842f:	90                   	nop

0000000000008430 <pthread_getschedparam>:
    8430:	55                   	push   %rbp
    8431:	48 89 e5             	mov    %rsp,%rbp
    8434:	48 89 5d e0          	mov    %rbx,-0x20(%rbp)
    8438:	4c 89 65 e8          	mov    %r12,-0x18(%rbp)
    843c:	48 89 fb             	mov    %rdi,%rbx
    843f:	4c 89 6d f0          	mov    %r13,-0x10(%rbp)
    8443:	4c 89 75 f8          	mov    %r14,-0x8(%rbp)
    8447:	48 83 ec 20          	sub    $0x20,%rsp
    844b:	8b 87 d0 02 00 00    	mov    0x2d0(%rdi),%eax
    8451:	49 89 f4             	mov    %rsi,%r12
    8454:	49 89 d5             	mov    %rdx,%r13
    8457:	85 c0                	test   %eax,%eax
    8459:	0f 8e d8 00 00 00    	jle    8537 <pthread_getschedparam+0x107>
    845f:	be 01 00 00 00       	mov    $0x1,%esi
    8464:	31 c0                	xor    %eax,%eax
    8466:	f0 0f b1 b3 18 06 00 	lock cmpxchg %esi,0x618(%rbx)
    846d:	00 
    846e:	0f 85 ce 00 00 00    	jne    8542 <_L_lock_22>
    8474:	8b 83 0c 03 00 00    	mov    0x30c(%rbx),%eax
    847a:	45 31 f6             	xor    %r14d,%r14d
    847d:	a8 20                	test   $0x20,%al
    847f:	74 37                	je     84b8 <pthread_getschedparam+0x88>
    8481:	a8 40                	test   $0x40,%al
    8483:	74 5b                	je     84e0 <pthread_getschedparam+0xb0>
    8485:	45 85 f6             	test   %r14d,%r14d
    8488:	74 78                	je     8502 <pthread_getschedparam+0xd2>
    848a:	41 be 01 00 00 00    	mov    $0x1,%r14d
    8490:	f0 ff 8b 18 06 00 00 	lock decl 0x618(%rbx)
    8497:	0f 85 c4 00 00 00    	jne    8561 <_L_unlock_41>
    849d:	44 89 f0             	mov    %r14d,%eax
    84a0:	48 8b 1c 24          	mov    (%rsp),%rbx
    84a4:	4c 8b 64 24 08       	mov    0x8(%rsp),%r12
    84a9:	4c 8b 6c 24 10       	mov    0x10(%rsp),%r13
    84ae:	4c 8b 74 24 18       	mov    0x18(%rsp),%r14
    84b3:	c9                   	leaveq 
    84b4:	c3                   	retq   
    84b5:	0f 1f 00             	nopl   (%rax)
    84b8:	8b bb d0 02 00 00    	mov    0x2d0(%rbx),%edi
    84be:	48 8d b3 38 06 00 00 	lea    0x638(%rbx),%rsi
    84c5:	e8 96 cf ff ff       	callq  5460 <__sched_getparam@plt>
    84ca:	85 c0                	test   %eax,%eax
    84cc:	74 52                	je     8520 <pthread_getschedparam+0xf0>
    84ce:	8b 83 0c 03 00 00    	mov    0x30c(%rbx),%eax
    84d4:	41 b6 01             	mov    $0x1,%r14b
    84d7:	a8 40                	test   $0x40,%al
    84d9:	75 aa                	jne    8485 <pthread_getschedparam+0x55>
    84db:	0f 1f 44 00 00       	nopl   0x0(%rax,%rax,1)
    84e0:	8b bb d0 02 00 00    	mov    0x2d0(%rbx),%edi
    84e6:	e8 45 ce ff ff       	callq  5330 <__sched_getscheduler@plt>
    84eb:	83 f8 ff             	cmp    $0xffffffff,%eax
    84ee:	89 83 3c 06 00 00    	mov    %eax,0x63c(%rbx)
    84f4:	74 94                	je     848a <pthread_getschedparam+0x5a>
    84f6:	83 8b 0c 03 00 00 40 	orl    $0x40,0x30c(%rbx)
    84fd:	45 85 f6             	test   %r14d,%r14d
    8500:	75 88                	jne    848a <pthread_getschedparam+0x5a>
    8502:	8b 83 3c 06 00 00    	mov    0x63c(%rbx),%eax
    8508:	41 89 04 24          	mov    %eax,(%r12)
    850c:	8b 83 38 06 00 00    	mov    0x638(%rbx),%eax
    8512:	41 89 45 00          	mov    %eax,0x0(%r13)
    8516:	e9 75 ff ff ff       	jmpq   8490 <pthread_getschedparam+0x60>
    851b:	0f 1f 44 00 00       	nopl   0x0(%rax,%rax,1)
    8520:	8b 83 0c 03 00 00    	mov    0x30c(%rbx),%eax
    8526:	45 31 f6             	xor    %r14d,%r14d
    8529:	83 c8 20             	or     $0x20,%eax
    852c:	89 83 0c 03 00 00    	mov    %eax,0x30c(%rbx)
    8532:	e9 4a ff ff ff       	jmpq   8481 <pthread_getschedparam+0x51>
    8537:	41 be 03 00 00 00    	mov    $0x3,%r14d
    853d:	e9 5b ff ff ff       	jmpq   849d <pthread_getschedparam+0x6d>

0000000000008542 <_L_lock_22>:
    8542:	48 8d bb 18 06 00 00 	lea    0x618(%rbx),%rdi
    8549:	48 81 ec 80 00 00 00 	sub    $0x80,%rsp
    8550:	e8 4b 5e 00 00       	callq  e3a0 <__lll_lock_wait_private>
    8555:	48 81 c4 80 00 00 00 	add    $0x80,%rsp
    855c:	e9 13 ff ff ff       	jmpq   8474 <pthread_getschedparam+0x44>

0000000000008561 <_L_unlock_41>:
    8561:	48 8d bb 18 06 00 00 	lea    0x618(%rbx),%rdi
    8568:	48 81 ec 80 00 00 00 	sub    $0x80,%rsp
    856f:	e8 bc 5f 00 00       	callq  e530 <__lll_unlock_wake_private>
    8574:	48 81 c4 80 00 00 00 	add    $0x80,%rsp
    857b:	e9 1d ff ff ff       	jmpq   849d <pthread_getschedparam+0x6d>

0000000000008580 <pthread_setschedparam>:
    8580:	55                   	push   %rbp
    8581:	48 89 e5             	mov    %rsp,%rbp
    8584:	48 89 5d e8          	mov    %rbx,-0x18(%rbp)
    8588:	4c 89 65 f0          	mov    %r12,-0x10(%rbp)
    858c:	48 89 fb             	mov    %rdi,%rbx
    858f:	4c 89 6d f8          	mov    %r13,-0x8(%rbp)
    8593:	48 83 ec 30          	sub    $0x30,%rsp
    8597:	8b 87 d0 02 00 00    	mov    0x2d0(%rdi),%eax
    859d:	41 89 f5             	mov    %esi,%r13d
    85a0:	49 89 d4             	mov    %rdx,%r12
    85a3:	85 c0                	test   %eax,%eax
    85a5:	7e 66                	jle    860d <pthread_setschedparam+0x8d>
    85a7:	be 01 00 00 00       	mov    $0x1,%esi
    85ac:	31 c0                	xor    %eax,%eax
    85ae:	f0 0f b1 b3 18 06 00 	lock cmpxchg %esi,0x618(%rbx)
    85b5:	00 
    85b6:	75 77                	jne    862f <_L_lock_20>
    85b8:	48 8b 83 b0 06 00 00 	mov    0x6b0(%rbx),%rax
    85bf:	48 85 c0             	test   %rax,%rax
    85c2:	75 5c                	jne    8620 <pthread_setschedparam+0xa0>
    85c4:	4c 89 e2             	mov    %r12,%rdx
    85c7:	8b bb d0 02 00 00    	mov    0x2d0(%rbx),%edi
    85cd:	44 89 ee             	mov    %r13d,%esi
    85d0:	e8 4b cf ff ff       	callq  5520 <__sched_setscheduler@plt>
    85d5:	83 f8 ff             	cmp    $0xffffffff,%eax
    85d8:	74 3a                	je     8614 <pthread_setschedparam+0x94>
    85da:	44 89 ab 3c 06 00 00 	mov    %r13d,0x63c(%rbx)
    85e1:	41 8b 04 24          	mov    (%r12),%eax
    85e5:	31 d2                	xor    %edx,%edx
    85e7:	83 8b 0c 03 00 00 60 	orl    $0x60,0x30c(%rbx)
    85ee:	89 83 38 06 00 00    	mov    %eax,0x638(%rbx)
    85f4:	f0 ff 8b 18 06 00 00 	lock decl 0x618(%rbx)
    85fb:	75 51                	jne    864e <_L_unlock_42>
    85fd:	89 d0                	mov    %edx,%eax
    85ff:	48 8b 5d e8          	mov    -0x18(%rbp),%rbx
    8603:	4c 8b 65 f0          	mov    -0x10(%rbp),%r12
    8607:	4c 8b 6d f8          	mov    -0x8(%rbp),%r13
    860b:	c9                   	leaveq 
    860c:	c3                   	retq   
    860d:	ba 03 00 00 00       	mov    $0x3,%edx
    8612:	eb e9                	jmp    85fd <pthread_setschedparam+0x7d>
    8614:	48 8b 05 65 f9 20 00 	mov    0x20f965(%rip),%rax        # 217f80 <_DYNAMIC+0x1f0>
    861b:	64 8b 10             	mov    %fs:(%rax),%edx
    861e:	eb d4                	jmp    85f4 <pthread_setschedparam+0x74>
    8620:	8b 00                	mov    (%rax),%eax
    8622:	3b 02                	cmp    (%rdx),%eax
    8624:	7e 9e                	jle    85c4 <pthread_setschedparam+0x44>
    8626:	89 45 d0             	mov    %eax,-0x30(%rbp)
    8629:	48 8d 55 d0          	lea    -0x30(%rbp),%rdx
    862d:	eb 98                	jmp    85c7 <pthread_setschedparam+0x47>

000000000000862f <_L_lock_20>:
    862f:	48 8d bb 18 06 00 00 	lea    0x618(%rbx),%rdi
    8636:	48 81 ec 80 00 00 00 	sub    $0x80,%rsp
    863d:	e8 5e 5d 00 00       	callq  e3a0 <__lll_lock_wait_private>
    8642:	48 81 c4 80 00 00 00 	add    $0x80,%rsp
    8649:	e9 6a ff ff ff       	jmpq   85b8 <pthread_setschedparam+0x38>

000000000000864e <_L_unlock_42>:
    864e:	48 8d bb 18 06 00 00 	lea    0x618(%rbx),%rdi
    8655:	48 81 ec 80 00 00 00 	sub    $0x80,%rsp
    865c:	e8 cf 5e 00 00       	callq  e530 <__lll_unlock_wake_private>
    8661:	48 81 c4 80 00 00 00 	add    $0x80,%rsp
    8668:	eb 93                	jmp    85fd <pthread_setschedparam+0x7d>
    866a:	90                   	nop
    866b:	90                   	nop
    866c:	90                   	nop
    866d:	90                   	nop
    866e:	90                   	nop
    866f:	90                   	nop

0000000000008670 <pthread_setschedprio>:
    8670:	55                   	push   %rbp
    8671:	48 89 e5             	mov    %rsp,%rbp
    8674:	41 54                	push   %r12
    8676:	41 89 f4             	mov    %esi,%r12d
    8679:	53                   	push   %rbx
    867a:	48 89 fb             	mov    %rdi,%rbx
    867d:	48 83 ec 10          	sub    $0x10,%rsp
    8681:	8b 87 d0 02 00 00    	mov    0x2d0(%rdi),%eax
    8687:	85 c0                	test   %eax,%eax
    8689:	7e 5c                	jle    86e7 <pthread_setschedprio+0x77>
    868b:	89 75 e0             	mov    %esi,-0x20(%rbp)
    868e:	31 c0                	xor    %eax,%eax
    8690:	be 01 00 00 00       	mov    $0x1,%esi
    8695:	f0 0f b1 b3 18 06 00 	lock cmpxchg %esi,0x618(%rbx)
    869c:	00 
    869d:	75 67                	jne    8706 <_L_lock_19>
    869f:	48 8b 83 b0 06 00 00 	mov    0x6b0(%rbx),%rax
    86a6:	48 85 c0             	test   %rax,%rax
    86a9:	75 4f                	jne    86fa <pthread_setschedprio+0x8a>
    86ab:	8b bb d0 02 00 00    	mov    0x2d0(%rbx),%edi
    86b1:	48 8d 75 e0          	lea    -0x20(%rbp),%rsi
    86b5:	e8 c6 cf ff ff       	callq  5680 <sched_setparam@plt>
    86ba:	83 f8 ff             	cmp    $0xffffffff,%eax
    86bd:	74 2f                	je     86ee <pthread_setschedprio+0x7e>
    86bf:	44 89 65 e0          	mov    %r12d,-0x20(%rbp)
    86c3:	83 8b 0c 03 00 00 20 	orl    $0x20,0x30c(%rbx)
    86ca:	31 d2                	xor    %edx,%edx
    86cc:	44 89 a3 38 06 00 00 	mov    %r12d,0x638(%rbx)
    86d3:	f0 ff 8b 18 06 00 00 	lock decl 0x618(%rbx)
    86da:	75 49                	jne    8725 <_L_unlock_37>
    86dc:	48 83 c4 10          	add    $0x10,%rsp
    86e0:	89 d0                	mov    %edx,%eax
    86e2:	5b                   	pop    %rbx
    86e3:	41 5c                	pop    %r12
    86e5:	c9                   	leaveq 
    86e6:	c3                   	retq   
    86e7:	ba 03 00 00 00       	mov    $0x3,%edx
    86ec:	eb ee                	jmp    86dc <pthread_setschedprio+0x6c>
    86ee:	48 8b 05 8b f8 20 00 	mov    0x20f88b(%rip),%rax        # 217f80 <_DYNAMIC+0x1f0>
    86f5:	64 8b 10             	mov    %fs:(%rax),%edx
    86f8:	eb d9                	jmp    86d3 <pthread_setschedprio+0x63>
    86fa:	8b 00                	mov    (%rax),%eax
    86fc:	41 39 c4             	cmp    %eax,%r12d
    86ff:	7d aa                	jge    86ab <pthread_setschedprio+0x3b>
    8701:	89 45 e0             	mov    %eax,-0x20(%rbp)
    8704:	eb a5                	jmp    86ab <pthread_setschedprio+0x3b>

0000000000008706 <_L_lock_19>:
    8706:	48 8d bb 18 06 00 00 	lea    0x618(%rbx),%rdi
    870d:	48 81 ec 80 00 00 00 	sub    $0x80,%rsp
    8714:	e8 87 5c 00 00       	callq  e3a0 <__lll_lock_wait_private>
    8719:	48 81 c4 80 00 00 00 	add    $0x80,%rsp
    8720:	e9 7a ff ff ff       	jmpq   869f <pthread_setschedprio+0x2f>

0000000000008725 <_L_unlock_37>:
    8725:	48 8d bb 18 06 00 00 	lea    0x618(%rbx),%rdi
    872c:	48 81 ec 80 00 00 00 	sub    $0x80,%rsp
    8733:	e8 f8 5d 00 00       	callq  e530 <__lll_unlock_wake_private>
    8738:	48 81 c4 80 00 00 00 	add    $0x80,%rsp
    873f:	eb 9b                	jmp    86dc <pthread_setschedprio+0x6c>
    8741:	90                   	nop
    8742:	90                   	nop
    8743:	90                   	nop
    8744:	90                   	nop
    8745:	90                   	nop
    8746:	90                   	nop
    8747:	90                   	nop
    8748:	90                   	nop
    8749:	90                   	nop
    874a:	90                   	nop
    874b:	90                   	nop
    874c:	90                   	nop
    874d:	90                   	nop
    874e:	90                   	nop
    874f:	90                   	nop

0000000000008750 <pthread_attr_init@@GLIBC_2.2.5>:
    8750:	55                   	push   %rbp
    8751:	31 c0                	xor    %eax,%eax
    8753:	b9 07 00 00 00       	mov    $0x7,%ecx
    8758:	48 89 e5             	mov    %rsp,%rbp
    875b:	53                   	push   %rbx
    875c:	48 89 fb             	mov    %rdi,%rbx
    875f:	48 83 ec 08          	sub    $0x8,%rsp
    8763:	f3 48 ab             	rep stos %rax,%es:(%rdi)
    8766:	e8 d5 cd ff ff       	callq  5540 <__getpagesize@plt>
    876b:	48 98                	cltq   
    876d:	48 89 43 10          	mov    %rax,0x10(%rbx)
    8771:	48 83 c4 08          	add    $0x8,%rsp
    8775:	31 c0                	xor    %eax,%eax
    8777:	5b                   	pop    %rbx
    8778:	c9                   	leaveq 
    8779:	c3                   	retq   
    877a:	90                   	nop
    877b:	90                   	nop
    877c:	90                   	nop
    877d:	90                   	nop
    877e:	90                   	nop
    877f:	90                   	nop

0000000000008780 <pthread_attr_destroy>:
    8780:	55                   	push   %rbp
    8781:	48 8b 7f 28          	mov    0x28(%rdi),%rdi
    8785:	48 89 e5             	mov    %rsp,%rbp
    8788:	e8 63 cb ff ff       	callq  52f0 <free@plt>
    878d:	31 c0                	xor    %eax,%eax
    878f:	c9                   	leaveq 
    8790:	c3                   	retq   
    8791:	90                   	nop
    8792:	90                   	nop
    8793:	90                   	nop
    8794:	90                   	nop
    8795:	90                   	nop
    8796:	90                   	nop
    8797:	90                   	nop
    8798:	90                   	nop
    8799:	90                   	nop
    879a:	90                   	nop
    879b:	90                   	nop
    879c:	90                   	nop
    879d:	90                   	nop
    879e:	90                   	nop
    879f:	90                   	nop

00000000000087a0 <pthread_attr_getdetachstate>:
    87a0:	8b 47 08             	mov    0x8(%rdi),%eax
    87a3:	55                   	push   %rbp
    87a4:	48 89 e5             	mov    %rsp,%rbp
    87a7:	83 e0 01             	and    $0x1,%eax
    87aa:	89 06                	mov    %eax,(%rsi)
    87ac:	31 c0                	xor    %eax,%eax
    87ae:	c9                   	leaveq 
    87af:	c3                   	retq   

00000000000087b0 <pthread_attr_setdetachstate>:
    87b0:	55                   	push   %rbp
    87b1:	83 fe 01             	cmp    $0x1,%esi
    87b4:	48 89 e5             	mov    %rsp,%rbp
    87b7:	74 0f                	je     87c8 <pthread_attr_setdetachstate+0x18>
    87b9:	85 f6                	test   %esi,%esi
    87bb:	75 13                	jne    87d0 <pthread_attr_setdetachstate+0x20>
    87bd:	83 67 08 fe          	andl   $0xfffffffe,0x8(%rdi)
    87c1:	31 c0                	xor    %eax,%eax
    87c3:	c9                   	leaveq 
    87c4:	c3                   	retq   
    87c5:	0f 1f 00             	nopl   (%rax)
    87c8:	83 4f 08 01          	orl    $0x1,0x8(%rdi)
    87cc:	31 c0                	xor    %eax,%eax
    87ce:	c9                   	leaveq 
    87cf:	c3                   	retq   
    87d0:	b8 16 00 00 00       	mov    $0x16,%eax
    87d5:	c9                   	leaveq 
    87d6:	c3                   	retq   
    87d7:	90                   	nop
    87d8:	90                   	nop
    87d9:	90                   	nop
    87da:	90                   	nop
    87db:	90                   	nop
    87dc:	90                   	nop
    87dd:	90                   	nop
    87de:	90                   	nop
    87df:	90                   	nop

00000000000087e0 <pthread_attr_getguardsize>:
    87e0:	48 8b 47 10          	mov    0x10(%rdi),%rax
    87e4:	55                   	push   %rbp
    87e5:	48 89 e5             	mov    %rsp,%rbp
    87e8:	48 89 06             	mov    %rax,(%rsi)
    87eb:	31 c0                	xor    %eax,%eax
    87ed:	c9                   	leaveq 
    87ee:	c3                   	retq   
    87ef:	90                   	nop

00000000000087f0 <pthread_attr_setguardsize>:
    87f0:	55                   	push   %rbp
    87f1:	48 89 77 10          	mov    %rsi,0x10(%rdi)
    87f5:	31 c0                	xor    %eax,%eax
    87f7:	48 89 e5             	mov    %rsp,%rbp
    87fa:	c9                   	leaveq 
    87fb:	c3                   	retq   
    87fc:	90                   	nop
    87fd:	90                   	nop
    87fe:	90                   	nop
    87ff:	90                   	nop

0000000000008800 <pthread_attr_getschedparam>:
    8800:	8b 07                	mov    (%rdi),%eax
    8802:	55                   	push   %rbp
    8803:	48 89 e5             	mov    %rsp,%rbp
    8806:	89 06                	mov    %eax,(%rsi)
    8808:	31 c0                	xor    %eax,%eax
    880a:	c9                   	leaveq 
    880b:	c3                   	retq   
    880c:	90                   	nop
    880d:	90                   	nop
    880e:	90                   	nop
    880f:	90                   	nop

0000000000008810 <pthread_attr_setschedparam>:
    8810:	55                   	push   %rbp
    8811:	48 89 e5             	mov    %rsp,%rbp
    8814:	48 89 5d e8          	mov    %rbx,-0x18(%rbp)
    8818:	4c 89 65 f0          	mov    %r12,-0x10(%rbp)
    881c:	48 89 fb             	mov    %rdi,%rbx
    881f:	4c 89 6d f8          	mov    %r13,-0x8(%rbp)
    8823:	48 83 ec 20          	sub    $0x20,%rsp
    8827:	8b 7f 04             	mov    0x4(%rdi),%edi
    882a:	49 89 f5             	mov    %rsi,%r13
    882d:	e8 2e cd ff ff       	callq  5560 <sched_get_priority_min@plt>
    8832:	8b 7b 04             	mov    0x4(%rbx),%edi
    8835:	41 89 c4             	mov    %eax,%r12d
    8838:	e8 93 ce ff ff       	callq  56d0 <sched_get_priority_max@plt>
    883d:	83 f8 ff             	cmp    $0xffffffff,%eax
    8840:	74 15                	je     8857 <pthread_attr_setschedparam+0x47>
    8842:	41 83 fc ff          	cmp    $0xffffffff,%r12d
    8846:	74 0f                	je     8857 <pthread_attr_setschedparam+0x47>
    8848:	41 8b 55 00          	mov    0x0(%r13),%edx
    884c:	39 d0                	cmp    %edx,%eax
    884e:	66 90                	xchg   %ax,%ax
    8850:	7c 05                	jl     8857 <pthread_attr_setschedparam+0x47>
    8852:	41 39 d4             	cmp    %edx,%r12d
    8855:	7e 19                	jle    8870 <pthread_attr_setschedparam+0x60>
    8857:	b8 16 00 00 00       	mov    $0x16,%eax
    885c:	48 8b 5d e8          	mov    -0x18(%rbp),%rbx
    8860:	4c 8b 65 f0          	mov    -0x10(%rbp),%r12
    8864:	4c 8b 6d f8          	mov    -0x8(%rbp),%r13
    8868:	c9                   	leaveq 
    8869:	c3                   	retq   
    886a:	66 0f 1f 44 00 00    	nopw   0x0(%rax,%rax,1)
    8870:	89 13                	mov    %edx,(%rbx)
    8872:	83 4b 08 20          	orl    $0x20,0x8(%rbx)
    8876:	31 c0                	xor    %eax,%eax
    8878:	eb e2                	jmp    885c <pthread_attr_setschedparam+0x4c>
    887a:	90                   	nop
    887b:	90                   	nop
    887c:	90                   	nop
    887d:	90                   	nop
    887e:	90                   	nop
    887f:	90                   	nop

0000000000008880 <pthread_attr_getschedpolicy>:
    8880:	8b 47 04             	mov    0x4(%rdi),%eax
    8883:	55                   	push   %rbp
    8884:	48 89 e5             	mov    %rsp,%rbp
    8887:	89 06                	mov    %eax,(%rsi)
    8889:	31 c0                	xor    %eax,%eax
    888b:	c9                   	leaveq 
    888c:	c3                   	retq   
    888d:	90                   	nop
    888e:	90                   	nop
    888f:	90                   	nop

0000000000008890 <pthread_attr_setschedpolicy>:
    8890:	55                   	push   %rbp
    8891:	83 fe 02             	cmp    $0x2,%esi
    8894:	b8 16 00 00 00       	mov    $0x16,%eax
    8899:	48 89 e5             	mov    %rsp,%rbp
    889c:	77 09                	ja     88a7 <pthread_attr_setschedpolicy+0x17>
    889e:	83 4f 08 40          	orl    $0x40,0x8(%rdi)
    88a2:	89 77 04             	mov    %esi,0x4(%rdi)
    88a5:	30 c0                	xor    %al,%al
    88a7:	c9                   	leaveq 
    88a8:	c3                   	retq   
    88a9:	90                   	nop
    88aa:	90                   	nop
    88ab:	90                   	nop
    88ac:	90                   	nop
    88ad:	90                   	nop
    88ae:	90                   	nop
    88af:	90                   	nop

00000000000088b0 <pthread_attr_getinheritsched>:
    88b0:	8b 47 08             	mov    0x8(%rdi),%eax
    88b3:	55                   	push   %rbp
    88b4:	48 89 e5             	mov    %rsp,%rbp
    88b7:	d1 e8                	shr    %eax
    88b9:	83 e0 01             	and    $0x1,%eax
    88bc:	89 06                	mov    %eax,(%rsi)
    88be:	31 c0                	xor    %eax,%eax
    88c0:	c9                   	leaveq 
    88c1:	c3                   	retq   
    88c2:	90                   	nop
    88c3:	90                   	nop
    88c4:	90                   	nop
    88c5:	90                   	nop
    88c6:	90                   	nop
    88c7:	90                   	nop
    88c8:	90                   	nop
    88c9:	90                   	nop
    88ca:	90                   	nop
    88cb:	90                   	nop
    88cc:	90                   	nop
    88cd:	90                   	nop
    88ce:	90                   	nop
    88cf:	90                   	nop

00000000000088d0 <pthread_attr_setinheritsched>:
    88d0:	55                   	push   %rbp
    88d1:	83 fe 01             	cmp    $0x1,%esi
    88d4:	b8 16 00 00 00       	mov    $0x16,%eax
    88d9:	48 89 e5             	mov    %rsp,%rbp
    88dc:	76 02                	jbe    88e0 <pthread_attr_setinheritsched+0x10>
    88de:	c9                   	leaveq 
    88df:	c3                   	retq   
    88e0:	85 f6                	test   %esi,%esi
    88e2:	75 0c                	jne    88f0 <pthread_attr_setinheritsched+0x20>
    88e4:	83 67 08 fd          	andl   $0xfffffffd,0x8(%rdi)
    88e8:	31 c0                	xor    %eax,%eax
    88ea:	c9                   	leaveq 
    88eb:	c3                   	retq   
    88ec:	0f 1f 40 00          	nopl   0x0(%rax)
    88f0:	83 4f 08 02          	orl    $0x2,0x8(%rdi)
    88f4:	30 c0                	xor    %al,%al
    88f6:	c9                   	leaveq 
    88f7:	c3                   	retq   
    88f8:	90                   	nop
    88f9:	90                   	nop
    88fa:	90                   	nop
    88fb:	90                   	nop
    88fc:	90                   	nop
    88fd:	90                   	nop
    88fe:	90                   	nop
    88ff:	90                   	nop

0000000000008900 <pthread_attr_getscope>:
    8900:	8b 47 08             	mov    0x8(%rdi),%eax
    8903:	55                   	push   %rbp
    8904:	48 89 e5             	mov    %rsp,%rbp
    8907:	c1 e8 02             	shr    $0x2,%eax
    890a:	83 e0 01             	and    $0x1,%eax
    890d:	89 06                	mov    %eax,(%rsi)
    890f:	31 c0                	xor    %eax,%eax
    8911:	c9                   	leaveq 
    8912:	c3                   	retq   
    8913:	90                   	nop
    8914:	90                   	nop
    8915:	90                   	nop
    8916:	90                   	nop
    8917:	90                   	nop
    8918:	90                   	nop
    8919:	90                   	nop
    891a:	90                   	nop
    891b:	90                   	nop
    891c:	90                   	nop
    891d:	90                   	nop
    891e:	90                   	nop
    891f:	90                   	nop

0000000000008920 <pthread_attr_setscope>:
    8920:	55                   	push   %rbp
    8921:	85 f6                	test   %esi,%esi
    8923:	48 89 e5             	mov    %rsp,%rbp
    8926:	75 08                	jne    8930 <pthread_attr_setscope+0x10>
    8928:	83 67 08 fb          	andl   $0xfffffffb,0x8(%rdi)
    892c:	31 c0                	xor    %eax,%eax
    892e:	c9                   	leaveq 
    892f:	c3                   	retq   
    8930:	b8 16 00 00 00       	mov    $0x16,%eax
    8935:	83 fe 01             	cmp    $0x1,%esi
    8938:	ba 5f 00 00 00       	mov    $0x5f,%edx
    893d:	0f 44 c2             	cmove  %edx,%eax
    8940:	c9                   	leaveq 
    8941:	c3                   	retq   
    8942:	90                   	nop
    8943:	90                   	nop
    8944:	90                   	nop
    8945:	90                   	nop
    8946:	90                   	nop
    8947:	90                   	nop
    8948:	90                   	nop
    8949:	90                   	nop
    894a:	90                   	nop
    894b:	90                   	nop
    894c:	90                   	nop
    894d:	90                   	nop
    894e:	90                   	nop
    894f:	90                   	nop

0000000000008950 <pthread_attr_getstackaddr>:
    8950:	48 8b 47 18          	mov    0x18(%rdi),%rax
    8954:	55                   	push   %rbp
    8955:	48 89 e5             	mov    %rsp,%rbp
    8958:	48 89 06             	mov    %rax,(%rsi)
    895b:	31 c0                	xor    %eax,%eax
    895d:	c9                   	leaveq 
    895e:	c3                   	retq   
    895f:	90                   	nop

0000000000008960 <pthread_attr_setstackaddr>:
    8960:	55                   	push   %rbp
    8961:	48 89 77 18          	mov    %rsi,0x18(%rdi)
    8965:	31 c0                	xor    %eax,%eax
    8967:	83 4f 08 08          	orl    $0x8,0x8(%rdi)
    896b:	48 89 e5             	mov    %rsp,%rbp
    896e:	c9                   	leaveq 
    896f:	c3                   	retq   

0000000000008970 <pthread_attr_getstacksize>:
    8970:	48 8b 47 20          	mov    0x20(%rdi),%rax
    8974:	55                   	push   %rbp
    8975:	48 89 e5             	mov    %rsp,%rbp
    8978:	48 85 c0             	test   %rax,%rax
    897b:	48 0f 44 05 cd 39 21 	cmove  0x2139cd(%rip),%rax        # 21c350 <__default_stacksize>
    8982:	00 
    8983:	48 89 06             	mov    %rax,(%rsi)
    8986:	31 c0                	xor    %eax,%eax
    8988:	c9                   	leaveq 
    8989:	c3                   	retq   
    898a:	90                   	nop
    898b:	90                   	nop
    898c:	90                   	nop
    898d:	90                   	nop
    898e:	90                   	nop
    898f:	90                   	nop

0000000000008990 <pthread_attr_setstacksize>:
    8990:	55                   	push   %rbp
    8991:	48 81 fe ff 3f 00 00 	cmp    $0x3fff,%rsi
    8998:	b8 16 00 00 00       	mov    $0x16,%eax
    899d:	48 89 e5             	mov    %rsp,%rbp
    89a0:	76 06                	jbe    89a8 <pthread_attr_setstacksize+0x18>
    89a2:	48 89 77 20          	mov    %rsi,0x20(%rdi)
    89a6:	30 c0                	xor    %al,%al
    89a8:	c9                   	leaveq 
    89a9:	c3                   	retq   
    89aa:	90                   	nop
    89ab:	90                   	nop
    89ac:	90                   	nop
    89ad:	90                   	nop
    89ae:	90                   	nop
    89af:	90                   	nop

00000000000089b0 <pthread_attr_getstack>:
    89b0:	48 8b 4f 20          	mov    0x20(%rdi),%rcx
    89b4:	55                   	push   %rbp
    89b5:	48 89 e5             	mov    %rsp,%rbp
    89b8:	48 89 c8             	mov    %rcx,%rax
    89bb:	48 89 0a             	mov    %rcx,(%rdx)
    89be:	48 f7 d8             	neg    %rax
    89c1:	48 03 47 18          	add    0x18(%rdi),%rax
    89c5:	48 89 06             	mov    %rax,(%rsi)
    89c8:	31 c0                	xor    %eax,%eax
    89ca:	c9                   	leaveq 
    89cb:	c3                   	retq   
    89cc:	90                   	nop
    89cd:	90                   	nop
    89ce:	90                   	nop
    89cf:	90                   	nop

00000000000089d0 <pthread_attr_setstack>:
    89d0:	55                   	push   %rbp
    89d1:	48 81 fa ff 3f 00 00 	cmp    $0x3fff,%rdx
    89d8:	b8 16 00 00 00       	mov    $0x16,%eax
    89dd:	48 89 e5             	mov    %rsp,%rbp
    89e0:	76 11                	jbe    89f3 <pthread_attr_setstack+0x23>
    89e2:	83 4f 08 08          	orl    $0x8,0x8(%rdi)
    89e6:	48 01 d6             	add    %rdx,%rsi
    89e9:	48 89 57 20          	mov    %rdx,0x20(%rdi)
    89ed:	48 89 77 18          	mov    %rsi,0x18(%rdi)
    89f1:	30 c0                	xor    %al,%al
    89f3:	c9                   	leaveq 
    89f4:	c3                   	retq   
    89f5:	90                   	nop
    89f6:	90                   	nop
    89f7:	90                   	nop
    89f8:	90                   	nop
    89f9:	90                   	nop
    89fa:	90                   	nop
    89fb:	90                   	nop
    89fc:	90                   	nop
    89fd:	90                   	nop
    89fe:	90                   	nop
    89ff:	90                   	nop

0000000000008a00 <pthread_getattr_np>:
    8a00:	55                   	push   %rbp
    8a01:	31 c0                	xor    %eax,%eax
    8a03:	48 89 e5             	mov    %rsp,%rbp
    8a06:	41 57                	push   %r15
    8a08:	41 56                	push   %r14
    8a0a:	41 55                	push   %r13
    8a0c:	41 54                	push   %r12
    8a0e:	49 89 f4             	mov    %rsi,%r12
    8a11:	be 01 00 00 00       	mov    $0x1,%esi
    8a16:	53                   	push   %rbx
    8a17:	48 89 fb             	mov    %rdi,%rbx
    8a1a:	48 83 ec 68          	sub    $0x68,%rsp
    8a1e:	f0 0f b1 b3 18 06 00 	lock cmpxchg %esi,0x618(%rbx)
    8a25:	00 
    8a26:	0f 85 f0 02 00 00    	jne    8d1c <_L_lock_17>
    8a2c:	8b 83 38 06 00 00    	mov    0x638(%rbx),%eax
    8a32:	41 89 04 24          	mov    %eax,(%r12)
    8a36:	8b 83 3c 06 00 00    	mov    0x63c(%rbx),%eax
    8a3c:	48 39 9b 28 06 00 00 	cmp    %rbx,0x628(%rbx)
    8a43:	41 89 44 24 04       	mov    %eax,0x4(%r12)
    8a48:	8b 83 0c 03 00 00    	mov    0x30c(%rbx),%eax
    8a4e:	41 89 44 24 08       	mov    %eax,0x8(%r12)
    8a53:	0f 84 f7 00 00 00    	je     8b50 <pthread_getattr_np+0x150>
    8a59:	48 83 bb 90 06 00 00 	cmpq   $0x0,0x690(%rbx)
    8a60:	00 
    8a61:	48 8b 83 a8 06 00 00 	mov    0x6a8(%rbx),%rax
    8a68:	49 89 44 24 10       	mov    %rax,0x10(%r12)
    8a6d:	0f 84 ea 00 00 00    	je     8b5d <pthread_getattr_np+0x15d>
    8a73:	48 8b 83 98 06 00 00 	mov    0x698(%rbx),%rax
    8a7a:	41 83 4c 24 08 08    	orl    $0x8,0x8(%r12)
    8a80:	49 89 44 24 20       	mov    %rax,0x20(%r12)
    8a85:	48 03 83 90 06 00 00 	add    0x690(%rbx),%rax
    8a8c:	49 89 44 24 18       	mov    %rax,0x18(%r12)
    8a91:	45 31 f6             	xor    %r14d,%r14d
    8a94:	41 bd 10 00 00 00    	mov    $0x10,%r13d
    8a9a:	4d 01 ed             	add    %r13,%r13
    8a9d:	4c 89 f7             	mov    %r14,%rdi
    8aa0:	4c 89 ee             	mov    %r13,%rsi
    8aa3:	e8 08 cb ff ff       	callq  55b0 <realloc@plt>
    8aa8:	48 85 c0             	test   %rax,%rax
    8aab:	49 89 c7             	mov    %rax,%r15
    8aae:	0f 84 8c 00 00 00    	je     8b40 <pthread_getattr_np+0x140>
    8ab4:	48 89 c2             	mov    %rax,%rdx
    8ab7:	4c 89 ee             	mov    %r13,%rsi
    8aba:	48 89 df             	mov    %rbx,%rdi
    8abd:	49 89 c6             	mov    %rax,%r14
    8ac0:	e8 2b 6f 00 00       	callq  f9f0 <pthread_getaffinity_np@@GLIBC_2.3.4>
    8ac5:	83 f8 16             	cmp    $0x16,%eax
    8ac8:	75 56                	jne    8b20 <pthread_getattr_np+0x120>
    8aca:	49 81 fd ff ff 0f 00 	cmp    $0xfffff,%r13
    8ad1:	76 c7                	jbe    8a9a <pthread_getattr_np+0x9a>
    8ad3:	4c 89 f9             	mov    %r15,%rcx
    8ad6:	41 89 c7             	mov    %eax,%r15d
    8ad9:	48 89 cf             	mov    %rcx,%rdi
    8adc:	e8 0f c8 ff ff       	callq  52f0 <free@plt>
    8ae1:	41 83 ff 26          	cmp    $0x26,%r15d
    8ae5:	75 19                	jne    8b00 <pthread_getattr_np+0x100>
    8ae7:	49 c7 44 24 28 00 00 	movq   $0x0,0x28(%r12)
    8aee:	00 00 
    8af0:	49 c7 44 24 30 00 00 	movq   $0x0,0x30(%r12)
    8af7:	00 00 
    8af9:	45 30 ff             	xor    %r15b,%r15b
    8afc:	0f 1f 40 00          	nopl   0x0(%rax)
    8b00:	f0 ff 8b 18 06 00 00 	lock decl 0x618(%rbx)
    8b07:	0f 85 2e 02 00 00    	jne    8d3b <_L_unlock_77>
    8b0d:	48 83 c4 68          	add    $0x68,%rsp
    8b11:	44 89 f8             	mov    %r15d,%eax
    8b14:	5b                   	pop    %rbx
    8b15:	41 5c                	pop    %r12
    8b17:	41 5d                	pop    %r13
    8b19:	41 5e                	pop    %r14
    8b1b:	41 5f                	pop    %r15
    8b1d:	c9                   	leaveq 
    8b1e:	c3                   	retq   
    8b1f:	90                   	nop
    8b20:	85 c0                	test   %eax,%eax
    8b22:	4c 89 f9             	mov    %r15,%rcx
    8b25:	41 89 c7             	mov    %eax,%r15d
    8b28:	75 af                	jne    8ad9 <pthread_getattr_np+0xd9>
    8b2a:	4d 89 74 24 28       	mov    %r14,0x28(%r12)
    8b2f:	4d 89 6c 24 30       	mov    %r13,0x30(%r12)
    8b34:	eb ca                	jmp    8b00 <pthread_getattr_np+0x100>
    8b36:	66 2e 0f 1f 84 00 00 	nopw   %cs:0x0(%rax,%rax,1)
    8b3d:	00 00 00 
    8b40:	4c 89 f7             	mov    %r14,%rdi
    8b43:	41 bf 0c 00 00 00    	mov    $0xc,%r15d
    8b49:	e8 a2 c7 ff ff       	callq  52f0 <free@plt>
    8b4e:	eb b0                	jmp    8b00 <pthread_getattr_np+0x100>
    8b50:	83 c8 01             	or     $0x1,%eax
    8b53:	41 89 44 24 08       	mov    %eax,0x8(%r12)
    8b58:	e9 fc fe ff ff       	jmpq   8a59 <pthread_getattr_np+0x59>
    8b5d:	8b 83 d4 02 00 00    	mov    0x2d4(%rbx),%eax
    8b63:	8b 93 d4 02 00 00    	mov    0x2d4(%rbx),%edx
    8b69:	c1 f8 1f             	sar    $0x1f,%eax
    8b6c:	31 c2                	xor    %eax,%edx
    8b6e:	29 c2                	sub    %eax,%edx
    8b70:	3b 93 d0 02 00 00    	cmp    0x2d0(%rbx),%edx
    8b76:	75 58                	jne    8bd0 <pthread_getattr_np+0x1d0>
    8b78:	48 8d 35 8e 8e 00 00 	lea    0x8e8e(%rip),%rsi        # 11a0d <default_attr+0x4d>
    8b7f:	48 8d 3d 8b 8e 00 00 	lea    0x8e8b(%rip),%rdi        # 11a11 <default_attr+0x51>
    8b86:	e8 c5 ca ff ff       	callq  5650 <fopen@plt>
    8b8b:	48 85 c0             	test   %rax,%rax
    8b8e:	49 89 c5             	mov    %rax,%r13
    8b91:	0f 84 75 01 00 00    	je     8d0c <pthread_getattr_np+0x30c>
    8b97:	48 8d 75 a0          	lea    -0x60(%rbp),%rsi
    8b9b:	bf 03 00 00 00       	mov    $0x3,%edi
    8ba0:	e8 3b cb ff ff       	callq  56e0 <getrlimit@plt>
    8ba5:	85 c0                	test   %eax,%eax
    8ba7:	74 46                	je     8bef <pthread_getattr_np+0x1ef>
    8ba9:	48 8b 05 d0 f3 20 00 	mov    0x20f3d0(%rip),%rax        # 217f80 <_DYNAMIC+0x1f0>
    8bb0:	64 44 8b 38          	mov    %fs:(%rax),%r15d
    8bb4:	4c 89 ef             	mov    %r13,%rdi
    8bb7:	e8 c4 c7 ff ff       	callq  5380 <fclose@plt>
    8bbc:	41 83 4c 24 08 08    	orl    $0x8,0x8(%r12)
    8bc2:	45 85 ff             	test   %r15d,%r15d
    8bc5:	0f 85 35 ff ff ff    	jne    8b00 <pthread_getattr_np+0x100>
    8bcb:	e9 c1 fe ff ff       	jmpq   8a91 <pthread_getattr_np+0x91>
    8bd0:	48 8d 0d 89 8e 00 00 	lea    0x8e89(%rip),%rcx        # 11a60 <__PRETTY_FUNCTION__.9858>
    8bd7:	48 8d 35 1a 8e 00 00 	lea    0x8e1a(%rip),%rsi        # 119f8 <default_attr+0x38>
    8bde:	48 8d 3d 4b 8e 00 00 	lea    0x8e4b(%rip),%rdi        # 11a30 <default_attr+0x70>
    8be5:	ba 45 00 00 00       	mov    $0x45,%edx
    8bea:	e8 f1 c7 ff ff       	callq  53e0 <__assert_fail@plt>
    8bef:	48 8b 05 b2 f3 20 00 	mov    0x20f3b2(%rip),%rax        # 217fa8 <_DYNAMIC+0x218>
    8bf6:	48 8d 55 c0          	lea    -0x40(%rbp),%rdx
    8bfa:	48 c7 45 c8 00 00 00 	movq   $0x0,-0x38(%rbp)
    8c01:	00 
    8c02:	48 c7 45 c0 00 00 00 	movq   $0x0,-0x40(%rbp)
    8c09:	00 
    8c0a:	45 31 f6             	xor    %r14d,%r14d
    8c0d:	48 89 55 90          	mov    %rdx,-0x70(%rbp)
    8c11:	48 8d 55 c8          	lea    -0x38(%rbp),%rdx
    8c15:	4c 8b 78 18          	mov    0x18(%rax),%r15
    8c19:	48 8b 05 80 f3 20 00 	mov    0x20f380(%rip),%rax        # 217fa0 <_DYNAMIC+0x210>
    8c20:	48 89 55 88          	mov    %rdx,-0x78(%rbp)
    8c24:	48 8d 55 b0          	lea    -0x50(%rbp),%rdx
    8c28:	48 8b 00             	mov    (%rax),%rax
    8c2b:	48 89 55 80          	mov    %rdx,-0x80(%rbp)
    8c2f:	48 8d 55 b8          	lea    -0x48(%rbp),%rdx
    8c33:	48 89 95 78 ff ff ff 	mov    %rdx,-0x88(%rbp)
    8c3a:	48 89 45 98          	mov    %rax,-0x68(%rbp)
    8c3e:	41 8b 45 00          	mov    0x0(%r13),%eax
    8c42:	80 cc 80             	or     $0x80,%ah
    8c45:	41 89 45 00          	mov    %eax,0x0(%r13)
    8c49:	eb 04                	jmp    8c4f <pthread_getattr_np+0x24f>
    8c4b:	41 8b 45 00          	mov    0x0(%r13),%eax
    8c4f:	a8 10                	test   $0x10,%al
    8c51:	0f 85 ad 00 00 00    	jne    8d04 <pthread_getattr_np+0x304>
    8c57:	48 8b 75 90          	mov    -0x70(%rbp),%rsi
    8c5b:	48 8b 7d 88          	mov    -0x78(%rbp),%rdi
    8c5f:	4c 89 e9             	mov    %r13,%rcx
    8c62:	ba 0a 00 00 00       	mov    $0xa,%edx
    8c67:	e8 24 c8 ff ff       	callq  5490 <__getdelim@plt>
    8c6c:	48 85 c0             	test   %rax,%rax
    8c6f:	0f 8e 8f 00 00 00    	jle    8d04 <pthread_getattr_np+0x304>
    8c75:	48 8b 4d 80          	mov    -0x80(%rbp),%rcx
    8c79:	48 8b 95 78 ff ff ff 	mov    -0x88(%rbp),%rdx
    8c80:	48 8d 35 9a 8d 00 00 	lea    0x8d9a(%rip),%rsi        # 11a21 <default_attr+0x61>
    8c87:	48 8b 7d c8          	mov    -0x38(%rbp),%rdi
    8c8b:	31 c0                	xor    %eax,%eax
    8c8d:	e8 0e c9 ff ff       	callq  55a0 <sscanf@plt>
    8c92:	83 f8 02             	cmp    $0x2,%eax
    8c95:	75 b4                	jne    8c4b <pthread_getattr_np+0x24b>
    8c97:	48 8b 15 02 f3 20 00 	mov    0x20f302(%rip),%rdx        # 217fa0 <_DYNAMIC+0x210>
    8c9e:	48 8b 02             	mov    (%rdx),%rax
    8ca1:	48 3b 45 b8          	cmp    -0x48(%rbp),%rax
    8ca5:	72 0e                	jb     8cb5 <pthread_getattr_np+0x2b5>
    8ca7:	48 8b 55 b0          	mov    -0x50(%rbp),%rdx
    8cab:	48 39 d0             	cmp    %rdx,%rax
    8cae:	72 0b                	jb     8cbb <pthread_getattr_np+0x2bb>
    8cb0:	49 89 d6             	mov    %rdx,%r14
    8cb3:	eb 96                	jmp    8c4b <pthread_getattr_np+0x24b>
    8cb5:	48 8b 55 b0          	mov    -0x50(%rbp),%rdx
    8cb9:	eb f5                	jmp    8cb0 <pthread_getattr_np+0x2b0>
    8cbb:	48 8b 45 98          	mov    -0x68(%rbp),%rax
    8cbf:	4c 89 f9             	mov    %r15,%rcx
    8cc2:	48 f7 d9             	neg    %rcx
    8cc5:	48 21 c8             	and    %rcx,%rax
    8cc8:	4e 8d 3c 38          	lea    (%rax,%r15,1),%r15
    8ccc:	4c 89 f8             	mov    %r15,%rax
    8ccf:	48 03 45 a0          	add    -0x60(%rbp),%rax
    8cd3:	4d 89 7c 24 18       	mov    %r15,0x18(%r12)
    8cd8:	4d 29 f7             	sub    %r14,%r15
    8cdb:	4d 89 fe             	mov    %r15,%r14
    8cde:	45 31 ff             	xor    %r15d,%r15d
    8ce1:	48 29 d0             	sub    %rdx,%rax
    8ce4:	48 21 c8             	and    %rcx,%rax
    8ce7:	4c 39 f0             	cmp    %r14,%rax
    8cea:	49 89 44 24 20       	mov    %rax,0x20(%r12)
    8cef:	76 05                	jbe    8cf6 <pthread_getattr_np+0x2f6>
    8cf1:	4d 89 74 24 20       	mov    %r14,0x20(%r12)
    8cf6:	48 8b 7d c8          	mov    -0x38(%rbp),%rdi
    8cfa:	e8 f1 c5 ff ff       	callq  52f0 <free@plt>
    8cff:	e9 b0 fe ff ff       	jmpq   8bb4 <pthread_getattr_np+0x1b4>
    8d04:	41 bf 02 00 00 00    	mov    $0x2,%r15d
    8d0a:	eb ea                	jmp    8cf6 <pthread_getattr_np+0x2f6>
    8d0c:	48 8b 05 6d f2 20 00 	mov    0x20f26d(%rip),%rax        # 217f80 <_DYNAMIC+0x1f0>
    8d13:	64 44 8b 38          	mov    %fs:(%rax),%r15d
    8d17:	e9 a0 fe ff ff       	jmpq   8bbc <pthread_getattr_np+0x1bc>

0000000000008d1c <_L_lock_17>:
    8d1c:	48 8d bb 18 06 00 00 	lea    0x618(%rbx),%rdi
    8d23:	48 81 ec 80 00 00 00 	sub    $0x80,%rsp
    8d2a:	e8 71 56 00 00       	callq  e3a0 <__lll_lock_wait_private>
    8d2f:	48 81 c4 80 00 00 00 	add    $0x80,%rsp
    8d36:	e9 f1 fc ff ff       	jmpq   8a2c <pthread_getattr_np+0x2c>

0000000000008d3b <_L_unlock_77>:
    8d3b:	48 8d bb 18 06 00 00 	lea    0x618(%rbx),%rdi
    8d42:	48 81 ec 80 00 00 00 	sub    $0x80,%rsp
    8d49:	e8 e2 57 00 00       	callq  e530 <__lll_unlock_wake_private>
    8d4e:	48 81 c4 80 00 00 00 	add    $0x80,%rsp
    8d55:	e9 b3 fd ff ff       	jmpq   8b0d <pthread_getattr_np+0x10d>
    8d5a:	90                   	nop
    8d5b:	90                   	nop
    8d5c:	90                   	nop
    8d5d:	90                   	nop
    8d5e:	90                   	nop
    8d5f:	90                   	nop

0000000000008d60 <__pthread_mutex_init>:
    8d60:	55                   	push   %rbp
    8d61:	48 8d 05 54 8d 00 00 	lea    0x8d54(%rip),%rax        # 11abc <default_attr>
    8d68:	48 89 e5             	mov    %rsp,%rbp
    8d6b:	48 89 5d e8          	mov    %rbx,-0x18(%rbp)
    8d6f:	4c 89 65 f0          	mov    %r12,-0x10(%rbp)
    8d73:	49 89 f4             	mov    %rsi,%r12
    8d76:	4c 89 6d f8          	mov    %r13,-0x8(%rbp)
    8d7a:	48 83 ec 30          	sub    $0x30,%rsp
    8d7e:	48 85 f6             	test   %rsi,%rsi
    8d81:	4c 0f 44 e0          	cmove  %rax,%r12
    8d85:	48 89 fb             	mov    %rdi,%rbx
    8d88:	41 8b 04 24          	mov    (%r12),%eax
    8d8c:	48 89 c2             	mov    %rax,%rdx
    8d8f:	81 e2 00 00 00 30    	and    $0x30000000,%edx
    8d95:	74 19                	je     8db0 <__pthread_mutex_init+0x50>
    8d97:	48 81 fa 00 00 00 10 	cmp    $0x10000000,%rdx
    8d9e:	0f 84 d4 00 00 00    	je     8e78 <__pthread_mutex_init+0x118>
    8da4:	a9 00 00 00 40       	test   $0x40000000,%eax
    8da9:	0f 85 e1 00 00 00    	jne    8e90 <__pthread_mutex_init+0x130>
    8daf:	90                   	nop
    8db0:	48 c7 43 10 00 00 00 	movq   $0x0,0x10(%rbx)
    8db7:	00 
    8db8:	48 c7 03 00 00 00 00 	movq   $0x0,(%rbx)
    8dbf:	48 c7 43 08 00 00 00 	movq   $0x0,0x8(%rbx)
    8dc6:	00 
    8dc7:	48 c7 43 18 00 00 00 	movq   $0x0,0x18(%rbx)
    8dce:	00 
    8dcf:	48 c7 43 20 00 00 00 	movq   $0x0,0x20(%rbx)
    8dd6:	00 
    8dd7:	41 8b 04 24          	mov    (%r12),%eax
    8ddb:	25 ff 0f 00 0f       	and    $0xf000fff,%eax
    8de0:	89 43 10             	mov    %eax,0x10(%rbx)
    8de3:	41 8b 14 24          	mov    (%r12),%edx
    8de7:	f7 c2 00 00 00 40    	test   $0x40000000,%edx
    8ded:	74 12                	je     8e01 <__pthread_mutex_init+0xa1>
    8def:	85 d2                	test   %edx,%edx
    8df1:	0f 88 b9 00 00 00    	js     8eb0 <__pthread_mutex_init+0x150>
    8df7:	83 c8 10             	or     $0x10,%eax
    8dfa:	89 43 10             	mov    %eax,0x10(%rbx)
    8dfd:	41 8b 14 24          	mov    (%r12),%edx
    8e01:	89 d0                	mov    %edx,%eax
    8e03:	25 00 00 00 30       	and    $0x30000000,%eax
    8e08:	3d 00 00 00 10       	cmp    $0x10000000,%eax
    8e0d:	0f 84 8d 00 00 00    	je     8ea0 <__pthread_mutex_init+0x140>
    8e13:	3d 00 00 00 20       	cmp    $0x20000000,%eax
    8e18:	74 26                	je     8e40 <__pthread_mutex_init+0xe0>
    8e1a:	31 c0                	xor    %eax,%eax
    8e1c:	81 e2 00 00 00 c0    	and    $0xc0000000,%edx
    8e22:	74 07                	je     8e2b <__pthread_mutex_init+0xcb>
    8e24:	81 4b 10 80 00 00 00 	orl    $0x80,0x10(%rbx)
    8e2b:	48 8b 5d e8          	mov    -0x18(%rbp),%rbx
    8e2f:	4c 8b 65 f0          	mov    -0x10(%rbp),%r12
    8e33:	4c 8b 6d f8          	mov    -0x8(%rbp),%r13
    8e37:	c9                   	leaveq 
    8e38:	c3                   	retq   
    8e39:	0f 1f 80 00 00 00 00 	nopl   0x0(%rax)
    8e40:	83 4b 10 40          	orl    $0x40,0x10(%rbx)
    8e44:	45 8b 2c 24          	mov    (%r12),%r13d
    8e48:	41 81 e5 00 f0 ff 00 	and    $0xfff000,%r13d
    8e4f:	41 c1 fd 0c          	sar    $0xc,%r13d
    8e53:	45 85 ed             	test   %r13d,%r13d
    8e56:	75 0f                	jne    8e67 <__pthread_mutex_init+0x107>
    8e58:	8b 05 0a f4 20 00    	mov    0x20f40a(%rip),%eax        # 218268 <__sched_fifo_min_prio>
    8e5e:	83 f8 ff             	cmp    $0xffffffff,%eax
    8e61:	74 5d                	je     8ec0 <__pthread_mutex_init+0x160>
    8e63:	85 c0                	test   %eax,%eax
    8e65:	7f 03                	jg     8e6a <__pthread_mutex_init+0x10a>
    8e67:	44 89 e8             	mov    %r13d,%eax
    8e6a:	c1 e0 13             	shl    $0x13,%eax
    8e6d:	89 03                	mov    %eax,(%rbx)
    8e6f:	41 8b 14 24          	mov    (%r12),%edx
    8e73:	eb a5                	jmp    8e1a <__pthread_mutex_init+0xba>
    8e75:	0f 1f 00             	nopl   (%rax)
    8e78:	8b 05 5e 34 21 00    	mov    0x21345e(%rip),%eax        # 21c2dc <tpi_supported>
    8e7e:	85 c0                	test   %eax,%eax
    8e80:	74 4b                	je     8ecd <__pthread_mutex_init+0x16d>
    8e82:	85 c0                	test   %eax,%eax
    8e84:	0f 89 26 ff ff ff    	jns    8db0 <__pthread_mutex_init+0x50>
    8e8a:	66 0f 1f 44 00 00    	nopw   0x0(%rax,%rax,1)
    8e90:	b8 5f 00 00 00       	mov    $0x5f,%eax
    8e95:	eb 94                	jmp    8e2b <__pthread_mutex_init+0xcb>
    8e97:	66 0f 1f 84 00 00 00 	nopw   0x0(%rax,%rax,1)
    8e9e:	00 00 
    8ea0:	83 4b 10 20          	orl    $0x20,0x10(%rbx)
    8ea4:	41 8b 14 24          	mov    (%r12),%edx
    8ea8:	e9 6d ff ff ff       	jmpq   8e1a <__pthread_mutex_init+0xba>
    8ead:	0f 1f 00             	nopl   (%rax)
    8eb0:	8b 15 82 34 21 00    	mov    0x213482(%rip),%edx        # 21c338 <__set_robust_list_avail>
    8eb6:	85 d2                	test   %edx,%edx
    8eb8:	0f 89 39 ff ff ff    	jns    8df7 <__pthread_mutex_init+0x97>
    8ebe:	eb d0                	jmp    8e90 <__pthread_mutex_init+0x130>
    8ec0:	e8 4b 74 00 00       	callq  10310 <__init_sched_fifo_prio>
    8ec5:	8b 05 9d f3 20 00    	mov    0x20f39d(%rip),%eax        # 218268 <__sched_fifo_min_prio>
    8ecb:	eb 96                	jmp    8e63 <__pthread_mutex_init+0x103>
    8ecd:	c7 45 dc 00 00 00 00 	movl   $0x0,-0x24(%rbp)
    8ed4:	45 31 d2             	xor    %r10d,%r10d
    8ed7:	31 d2                	xor    %edx,%edx
    8ed9:	be 07 00 00 00       	mov    $0x7,%esi
    8ede:	48 8d 7d dc          	lea    -0x24(%rbp),%rdi
    8ee2:	b0 ca                	mov    $0xca,%al
    8ee4:	0f 05                	syscall 
    8ee6:	3d 00 f0 ff ff       	cmp    $0xfffff000,%eax
    8eeb:	76 15                	jbe    8f02 <__pthread_mutex_init+0x1a2>
    8eed:	83 f8 da             	cmp    $0xffffffda,%eax
    8ef0:	0f 95 c0             	setne  %al
    8ef3:	0f b6 c0             	movzbl %al,%eax
    8ef6:	8d 44 00 ff          	lea    -0x1(%rax,%rax,1),%eax
    8efa:	89 05 dc 33 21 00    	mov    %eax,0x2133dc(%rip)        # 21c2dc <tpi_supported>
    8f00:	eb 80                	jmp    8e82 <__pthread_mutex_init+0x122>
    8f02:	48 8d 0d b7 8b 00 00 	lea    0x8bb7(%rip),%rcx        # 11ac0 <__PRETTY_FUNCTION__.7538>
    8f09:	48 8d 35 63 8b 00 00 	lea    0x8b63(%rip),%rsi        # 11a73 <__PRETTY_FUNCTION__.9858+0x13>
    8f10:	48 8d 3d 71 8b 00 00 	lea    0x8b71(%rip),%rdi        # 11a88 <__PRETTY_FUNCTION__.9858+0x28>
    8f17:	b2 43                	mov    $0x43,%dl
    8f19:	e8 c2 c4 ff ff       	callq  53e0 <__assert_fail@plt>
    8f1e:	90                   	nop
    8f1f:	90                   	nop

0000000000008f20 <__pthread_mutex_destroy>:
    8f20:	f6 47 10 10          	testb  $0x10,0x10(%rdi)
    8f24:	55                   	push   %rbp
    8f25:	48 89 e5             	mov    %rsp,%rbp
    8f28:	75 0c                	jne    8f36 <__pthread_mutex_destroy+0x16>
    8f2a:	8b 57 0c             	mov    0xc(%rdi),%edx
    8f2d:	b8 10 00 00 00       	mov    $0x10,%eax
    8f32:	85 d2                	test   %edx,%edx
    8f34:	75 09                	jne    8f3f <__pthread_mutex_destroy+0x1f>
    8f36:	c7 47 10 ff ff ff ff 	movl   $0xffffffff,0x10(%rdi)
    8f3d:	31 c0                	xor    %eax,%eax
    8f3f:	c9                   	leaveq 
    8f40:	c3                   	retq   
    8f41:	90                   	nop
    8f42:	90                   	nop
    8f43:	90                   	nop
    8f44:	90                   	nop
    8f45:	90                   	nop
    8f46:	90                   	nop
    8f47:	90                   	nop
    8f48:	90                   	nop
    8f49:	90                   	nop
    8f4a:	90                   	nop
    8f4b:	90                   	nop
    8f4c:	90                   	nop
    8f4d:	90                   	nop
    8f4e:	90                   	nop
    8f4f:	90                   	nop

0000000000008f50 <__pthread_mutex_lock_full>:
    8f50:	55                   	push   %rbp
    8f51:	48 89 e5             	mov    %rsp,%rbp
    8f54:	41 57                	push   %r15
    8f56:	41 56                	push   %r14
    8f58:	41 55                	push   %r13
    8f5a:	41 54                	push   %r12
    8f5c:	53                   	push   %rbx
    8f5d:	48 89 fb             	mov    %rdi,%rbx
    8f60:	48 83 ec 08          	sub    $0x8,%rsp
    8f64:	64 44 8b 24 25 d0 02 	mov    %fs:0x2d0,%r12d
    8f6b:	00 00 
    8f6d:	44 8b 47 10          	mov    0x10(%rdi),%r8d
    8f71:	44 89 c1             	mov    %r8d,%ecx
    8f74:	83 e1 7f             	and    $0x7f,%ecx
    8f77:	83 e9 10             	sub    $0x10,%ecx
    8f7a:	83 f9 33             	cmp    $0x33,%ecx
    8f7d:	76 14                	jbe    8f93 <__pthread_mutex_lock_full+0x43>
    8f7f:	b8 16 00 00 00       	mov    $0x16,%eax
    8f84:	48 83 c4 08          	add    $0x8,%rsp
    8f88:	5b                   	pop    %rbx
    8f89:	41 5c                	pop    %r12
    8f8b:	41 5d                	pop    %r13
    8f8d:	41 5e                	pop    %r14
    8f8f:	41 5f                	pop    %r15
    8f91:	c9                   	leaveq 
    8f92:	c3                   	retq   
    8f93:	b8 01 00 00 00       	mov    $0x1,%eax
    8f98:	48 ba 00 00 0f 00 0f 	movabs $0xf000f0000,%rdx
    8f9f:	00 00 00 
    8fa2:	48 d3 e0             	shl    %cl,%rax
    8fa5:	48 85 d0             	test   %rdx,%rax
    8fa8:	0f 84 ab 00 00 00    	je     9059 <__pthread_mutex_lock_full+0x109>
    8fae:	45 89 c1             	mov    %r8d,%r9d
    8fb1:	41 83 e1 03          	and    $0x3,%r9d
    8fb5:	41 83 e0 10          	and    $0x10,%r8d
    8fb9:	0f 85 eb 02 00 00    	jne    92aa <__pthread_mutex_lock_full+0x35a>
    8fbf:	8b 03                	mov    (%rbx),%eax
    8fc1:	25 ff ff ff 3f       	and    $0x3fffffff,%eax
    8fc6:	41 39 c4             	cmp    %eax,%r12d
    8fc9:	0f 84 e2 03 00 00    	je     93b1 <__pthread_mutex_lock_full+0x461>
    8fcf:	31 c0                	xor    %eax,%eax
    8fd1:	f0 44 0f b1 23       	lock cmpxchg %r12d,(%rbx)
    8fd6:	85 c0                	test   %eax,%eax
    8fd8:	0f 84 18 02 00 00    	je     91f6 <__pthread_mutex_lock_full+0x2a6>
    8fde:	45 85 c0             	test   %r8d,%r8d
    8fe1:	be 80 00 00 00       	mov    $0x80,%esi
    8fe6:	75 09                	jne    8ff1 <__pthread_mutex_lock_full+0xa1>
    8fe8:	8b 73 10             	mov    0x10(%rbx),%esi
    8feb:	81 e6 80 00 00 00    	and    $0x80,%esi
    8ff1:	40 80 f6 80          	xor    $0x80,%sil
    8ff5:	45 31 d2             	xor    %r10d,%r10d
    8ff8:	ba 01 00 00 00       	mov    $0x1,%edx
    8ffd:	64 23 34 25 48 00 00 	and    %fs:0x48,%esi
    9004:	00 
    9005:	48 89 df             	mov    %rbx,%rdi
    9008:	83 ce 06             	or     $0x6,%esi
    900b:	b8 ca 00 00 00       	mov    $0xca,%eax
    9010:	0f 05                	syscall 
    9012:	3d 00 f0 ff ff       	cmp    $0xfffff000,%eax
    9017:	0f 86 bb 01 00 00    	jbe    91d8 <__pthread_mutex_lock_full+0x288>
    901d:	83 f8 fd             	cmp    $0xfffffffd,%eax
    9020:	0f 94 c2             	sete   %dl
    9023:	83 f8 dd             	cmp    $0xffffffdd,%eax
    9026:	0f 85 46 03 00 00    	jne    9372 <__pthread_mutex_lock_full+0x422>
    902c:	41 83 e9 01          	sub    $0x1,%r9d
    9030:	41 83 f9 01          	cmp    $0x1,%r9d
    9034:	0f 87 40 03 00 00    	ja     937a <__pthread_mutex_lock_full+0x42a>
    903a:	48 8d 0d 9f 8b 00 00 	lea    0x8b9f(%rip),%rcx        # 11be0 <__PRETTY_FUNCTION__.8738>
    9041:	48 8d 35 66 91 00 00 	lea    0x9166(%rip),%rsi        # 121ae <__PRETTY_FUNCTION__.7549+0x3e>
    9048:	48 8d 3d b9 8a 00 00 	lea    0x8ab9(%rip),%rdi        # 11b08 <__PRETTY_FUNCTION__.7538+0x48>
    904f:	ba 3a 01 00 00       	mov    $0x13a,%edx
    9054:	e8 87 c3 ff ff       	callq  53e0 <__assert_fail@plt>
    9059:	48 ba 00 00 00 00 00 	movabs $0xf000000000000,%rdx
    9060:	00 0f 00 
    9063:	48 85 d0             	test   %rdx,%rax
    9066:	0f 85 8e 00 00 00    	jne    90fa <__pthread_mutex_lock_full+0x1aa>
    906c:	a8 0f                	test   $0xf,%al
    906e:	0f 84 0b ff ff ff    	je     8f7f <__pthread_mutex_lock_full+0x2f>
    9074:	4c 8d 4f 20          	lea    0x20(%rdi),%r9
    9078:	64 4c 89 0c 25 f0 02 	mov    %r9,%fs:0x2f0
    907f:	00 00 
    9081:	8b 0f                	mov    (%rdi),%ecx
    9083:	31 d2                	xor    %edx,%edx
    9085:	41 b8 80 00 00 00    	mov    $0x80,%r8d
    908b:	0f 1f 44 00 00       	nopl   0x0(%rax,%rax,1)
    9090:	f7 c1 00 00 00 40    	test   $0x40000000,%ecx
    9096:	75 43                	jne    90db <__pthread_mutex_lock_full+0x18b>
    9098:	81 e1 ff ff ff 3f    	and    $0x3fffffff,%ecx
    909e:	41 39 cc             	cmp    %ecx,%r12d
    90a1:	0f 84 8b 04 00 00    	je     9532 <__pthread_mutex_lock_full+0x5e2>
    90a7:	44 89 e7             	mov    %r12d,%edi
    90aa:	89 d0                	mov    %edx,%eax
    90ac:	44 89 c6             	mov    %r8d,%esi
    90af:	f0 0f b1 3b          	lock cmpxchg %edi,(%rbx)
    90b3:	0f 85 97 06 00 00    	jne    9750 <_L_robust_lock_133>
    90b9:	81 7b 08 fe ff ff 7f 	cmpl   $0x7ffffffe,0x8(%rbx)
    90c0:	0f 84 40 04 00 00    	je     9506 <__pthread_mutex_lock_full+0x5b6>
    90c6:	a9 00 00 00 40       	test   $0x40000000,%eax
    90cb:	0f 84 ef 01 00 00    	je     92c0 <__pthread_mutex_lock_full+0x370>
    90d1:	89 c1                	mov    %eax,%ecx
    90d3:	f7 c1 00 00 00 40    	test   $0x40000000,%ecx
    90d9:	74 bd                	je     9098 <__pthread_mutex_lock_full+0x148>
    90db:	89 ce                	mov    %ecx,%esi
    90dd:	89 c8                	mov    %ecx,%eax
    90df:	81 e6 00 00 00 80    	and    $0x80000000,%esi
    90e5:	44 09 e6             	or     %r12d,%esi
    90e8:	f0 0f b1 33          	lock cmpxchg %esi,(%rbx)
    90ec:	39 c8                	cmp    %ecx,%eax
    90ee:	89 c6                	mov    %eax,%esi
    90f0:	0f 84 1d 02 00 00    	je     9313 <__pthread_mutex_lock_full+0x3c3>
    90f6:	89 f1                	mov    %esi,%ecx
    90f8:	eb 96                	jmp    9090 <__pthread_mutex_lock_full+0x140>
    90fa:	44 3b 67 08          	cmp    0x8(%rdi),%r12d
    90fe:	8b 0f                	mov    (%rdi),%ecx
    9100:	0f 84 6e 01 00 00    	je     9274 <__pthread_mutex_lock_full+0x324>
    9106:	41 bd ff ff ff ff    	mov    $0xffffffff,%r13d
    910c:	41 be ca 00 00 00    	mov    $0xca,%r14d
    9112:	41 89 cf             	mov    %ecx,%r15d
    9115:	41 c1 ef 13          	shr    $0x13,%r15d
    9119:	e8 f2 70 00 00       	callq  10210 <__pthread_current_priority>
    911e:	41 39 c7             	cmp    %eax,%r15d
    9121:	0f 8c 6b 02 00 00    	jl     9392 <__pthread_mutex_lock_full+0x442>
    9127:	44 89 fe             	mov    %r15d,%esi
    912a:	44 89 ef             	mov    %r13d,%edi
    912d:	e8 0e 72 00 00       	callq  10340 <__pthread_tpp_change_priority>
    9132:	85 c0                	test   %eax,%eax
    9134:	0f 85 4a fe ff ff    	jne    8f84 <__pthread_mutex_lock_full+0x34>
    913a:	45 89 f8             	mov    %r15d,%r8d
    913d:	41 c1 e0 13          	shl    $0x13,%r8d
    9141:	45 89 c5             	mov    %r8d,%r13d
    9144:	44 89 c0             	mov    %r8d,%eax
    9147:	41 83 cd 01          	or     $0x1,%r13d
    914b:	f0 44 0f b1 2b       	lock cmpxchg %r13d,(%rbx)
    9150:	44 39 c0             	cmp    %r8d,%eax
    9153:	74 59                	je     91ae <__pthread_mutex_lock_full+0x25e>
    9155:	45 89 c1             	mov    %r8d,%r9d
    9158:	41 83 c9 02          	or     $0x2,%r9d
    915c:	0f 1f 40 00          	nopl   0x0(%rax)
    9160:	44 89 e8             	mov    %r13d,%eax
    9163:	f0 44 0f b1 0b       	lock cmpxchg %r9d,(%rbx)
    9168:	89 c2                	mov    %eax,%edx
    916a:	89 c1                	mov    %eax,%ecx
    916c:	81 e2 00 00 f8 ff    	and    $0xfff80000,%edx
    9172:	41 39 d0             	cmp    %edx,%r8d
    9175:	0f 85 e8 00 00 00    	jne    9263 <__pthread_mutex_lock_full+0x313>
    917b:	44 39 c0             	cmp    %r8d,%eax
    917e:	74 21                	je     91a1 <__pthread_mutex_lock_full+0x251>
    9180:	8b 73 10             	mov    0x10(%rbx),%esi
    9183:	45 31 d2             	xor    %r10d,%r10d
    9186:	44 89 ca             	mov    %r9d,%edx
    9189:	44 89 f0             	mov    %r14d,%eax
    918c:	48 89 df             	mov    %rbx,%rdi
    918f:	f7 d6                	not    %esi
    9191:	81 e6 80 00 00 00    	and    $0x80,%esi
    9197:	64 23 34 25 48 00 00 	and    %fs:0x48,%esi
    919e:	00 
    919f:	0f 05                	syscall 
    91a1:	44 89 c0             	mov    %r8d,%eax
    91a4:	f0 44 0f b1 0b       	lock cmpxchg %r9d,(%rbx)
    91a9:	44 39 c0             	cmp    %r8d,%eax
    91ac:	75 b2                	jne    9160 <__pthread_mutex_lock_full+0x210>
    91ae:	83 7b 08 00          	cmpl   $0x0,0x8(%rbx)
    91b2:	0f 85 31 02 00 00    	jne    93e9 <__pthread_mutex_lock_full+0x499>
    91b8:	c7 43 04 01 00 00 00 	movl   $0x1,0x4(%rbx)
    91bf:	83 43 0c 01          	addl   $0x1,0xc(%rbx)
    91c3:	44 89 63 08          	mov    %r12d,0x8(%rbx)
    91c7:	48 83 c4 08          	add    $0x8,%rsp
    91cb:	5b                   	pop    %rbx
    91cc:	41 5c                	pop    %r12
    91ce:	41 5d                	pop    %r13
    91d0:	41 5e                	pop    %r14
    91d2:	31 c0                	xor    %eax,%eax
    91d4:	41 5f                	pop    %r15
    91d6:	c9                   	leaveq 
    91d7:	c3                   	retq   
    91d8:	45 85 c0             	test   %r8d,%r8d
    91db:	8b 03                	mov    (%rbx),%eax
    91dd:	75 0b                	jne    91ea <__pthread_mutex_lock_full+0x29a>
    91df:	a9 00 00 00 40       	test   $0x40000000,%eax
    91e4:	0f 85 cb 02 00 00    	jne    94b5 <__pthread_mutex_lock_full+0x565>
    91ea:	a9 00 00 00 40       	test   $0x40000000,%eax
    91ef:	90                   	nop
    91f0:	0f 85 51 02 00 00    	jne    9447 <__pthread_mutex_lock_full+0x4f7>
    91f6:	45 85 c0             	test   %r8d,%r8d
    91f9:	74 bd                	je     91b8 <__pthread_mutex_lock_full+0x268>
    91fb:	81 7b 08 fe ff ff 7f 	cmpl   $0x7ffffffe,0x8(%rbx)
    9202:	0f 84 cc 02 00 00    	je     94d4 <__pthread_mutex_lock_full+0x584>
    9208:	c7 43 04 01 00 00 00 	movl   $0x1,0x4(%rbx)
    920f:	64 48 8b 04 25 e0 02 	mov    %fs:0x2e0,%rax
    9216:	00 00 
    9218:	48 8d 53 20          	lea    0x20(%rbx),%rdx
    921c:	48 83 e0 fe          	and    $0xfffffffffffffffe,%rax
    9220:	48 89 50 f8          	mov    %rdx,-0x8(%rax)
    9224:	64 48 8b 04 25 e0 02 	mov    %fs:0x2e0,%rax
    922b:	00 00 
    922d:	48 89 43 20          	mov    %rax,0x20(%rbx)
    9231:	48 83 ca 01          	or     $0x1,%rdx
    9235:	64 48 8b 04 25 10 00 	mov    %fs:0x10,%rax
    923c:	00 00 
    923e:	48 05 e0 02 00 00    	add    $0x2e0,%rax
    9244:	48 89 43 18          	mov    %rax,0x18(%rbx)
    9248:	64 48 89 14 25 e0 02 	mov    %rdx,%fs:0x2e0
    924f:	00 00 
    9251:	64 48 c7 04 25 f0 02 	movq   $0x0,%fs:0x2f0
    9258:	00 00 00 00 00 00 
    925e:	e9 5c ff ff ff       	jmpq   91bf <__pthread_mutex_lock_full+0x26f>
    9263:	44 39 c2             	cmp    %r8d,%edx
    9266:	45 89 fd             	mov    %r15d,%r13d
    9269:	0f 85 a3 fe ff ff    	jne    9112 <__pthread_mutex_lock_full+0x1c2>
    926f:	e9 3a ff ff ff       	jmpq   91ae <__pthread_mutex_lock_full+0x25e>
    9274:	41 83 e0 03          	and    $0x3,%r8d
    9278:	b8 23 00 00 00       	mov    $0x23,%eax
    927d:	41 83 f8 02          	cmp    $0x2,%r8d
    9281:	0f 84 fd fc ff ff    	je     8f84 <__pthread_mutex_lock_full+0x34>
    9287:	41 83 f8 01          	cmp    $0x1,%r8d
    928b:	0f 85 75 fe ff ff    	jne    9106 <__pthread_mutex_lock_full+0x1b6>
    9291:	8b 47 04             	mov    0x4(%rdi),%eax
    9294:	83 f8 ff             	cmp    $0xffffffff,%eax
    9297:	0f 84 42 01 00 00    	je     93df <__pthread_mutex_lock_full+0x48f>
    929d:	83 c0 01             	add    $0x1,%eax
    92a0:	89 43 04             	mov    %eax,0x4(%rbx)
    92a3:	31 c0                	xor    %eax,%eax
    92a5:	e9 da fc ff ff       	jmpq   8f84 <__pthread_mutex_lock_full+0x34>
    92aa:	48 8d 47 20          	lea    0x20(%rdi),%rax
    92ae:	48 83 c8 01          	or     $0x1,%rax
    92b2:	64 48 89 04 25 f0 02 	mov    %rax,%fs:0x2f0
    92b9:	00 00 
    92bb:	e9 ff fc ff ff       	jmpq   8fbf <__pthread_mutex_lock_full+0x6f>
    92c0:	c7 43 04 01 00 00 00 	movl   $0x1,0x4(%rbx)
    92c7:	64 48 8b 04 25 e0 02 	mov    %fs:0x2e0,%rax
    92ce:	00 00 
    92d0:	48 83 e0 fe          	and    $0xfffffffffffffffe,%rax
    92d4:	4c 89 48 f8          	mov    %r9,-0x8(%rax)
    92d8:	64 48 8b 04 25 e0 02 	mov    %fs:0x2e0,%rax
    92df:	00 00 
    92e1:	48 89 43 20          	mov    %rax,0x20(%rbx)
    92e5:	64 48 8b 04 25 10 00 	mov    %fs:0x10,%rax
    92ec:	00 00 
    92ee:	48 05 e0 02 00 00    	add    $0x2e0,%rax
    92f4:	48 89 43 18          	mov    %rax,0x18(%rbx)
    92f8:	64 4c 89 0c 25 e0 02 	mov    %r9,%fs:0x2e0
    92ff:	00 00 
    9301:	64 48 c7 04 25 f0 02 	movq   $0x0,%fs:0x2f0
    9308:	00 00 00 00 00 00 
    930e:	e9 ac fe ff ff       	jmpq   91bf <__pthread_mutex_lock_full+0x26f>
    9313:	c7 43 04 01 00 00 00 	movl   $0x1,0x4(%rbx)
    931a:	c7 43 08 ff ff ff 7f 	movl   $0x7fffffff,0x8(%rbx)
    9321:	64 48 8b 04 25 e0 02 	mov    %fs:0x2e0,%rax
    9328:	00 00 
    932a:	48 83 e0 fe          	and    $0xfffffffffffffffe,%rax
    932e:	4c 89 48 f8          	mov    %r9,-0x8(%rax)
    9332:	64 48 8b 04 25 e0 02 	mov    %fs:0x2e0,%rax
    9339:	00 00 
    933b:	48 89 43 20          	mov    %rax,0x20(%rbx)
    933f:	64 48 8b 04 25 10 00 	mov    %fs:0x10,%rax
    9346:	00 00 
    9348:	48 05 e0 02 00 00    	add    $0x2e0,%rax
    934e:	48 89 43 18          	mov    %rax,0x18(%rbx)
    9352:	64 4c 89 0c 25 e0 02 	mov    %r9,%fs:0x2e0
    9359:	00 00 
    935b:	64 48 c7 04 25 f0 02 	movq   $0x0,%fs:0x2f0
    9362:	00 00 00 00 00 00 
    9368:	b8 82 00 00 00       	mov    $0x82,%eax
    936d:	e9 12 fc ff ff       	jmpq   8f84 <__pthread_mutex_lock_full+0x34>
    9372:	84 d2                	test   %dl,%dl
    9374:	0f 84 5e fe ff ff    	je     91d8 <__pthread_mutex_lock_full+0x288>
    937a:	84 d2                	test   %dl,%dl
    937c:	0f 85 86 00 00 00    	jne    9408 <__pthread_mutex_lock_full+0x4b8>
    9382:	66 0f 1f 44 00 00    	nopw   0x0(%rax,%rax,1)
    9388:	e8 0c 5d 00 00       	callq  f099 <__pause_nocancel>
    938d:	0f 1f 00             	nopl   (%rax)
    9390:	eb f6                	jmp    9388 <__pthread_mutex_lock_full+0x438>
    9392:	41 83 fd ff          	cmp    $0xffffffff,%r13d
    9396:	0f 84 e3 fb ff ff    	je     8f7f <__pthread_mutex_lock_full+0x2f>
    939c:	83 ce ff             	or     $0xffffffff,%esi
    939f:	44 89 ef             	mov    %r13d,%edi
    93a2:	e8 99 6f 00 00       	callq  10340 <__pthread_tpp_change_priority>
    93a7:	b8 16 00 00 00       	mov    $0x16,%eax
    93ac:	e9 d3 fb ff ff       	jmpq   8f84 <__pthread_mutex_lock_full+0x34>
    93b1:	41 83 f9 02          	cmp    $0x2,%r9d
    93b5:	74 79                	je     9430 <__pthread_mutex_lock_full+0x4e0>
    93b7:	41 83 f9 01          	cmp    $0x1,%r9d
    93bb:	0f 1f 44 00 00       	nopl   0x0(%rax,%rax,1)
    93c0:	0f 85 09 fc ff ff    	jne    8fcf <__pthread_mutex_lock_full+0x7f>
    93c6:	64 48 c7 04 25 f0 02 	movq   $0x0,%fs:0x2f0
    93cd:	00 00 00 00 00 00 
    93d3:	8b 43 04             	mov    0x4(%rbx),%eax
    93d6:	83 f8 ff             	cmp    $0xffffffff,%eax
    93d9:	0f 85 be fe ff ff    	jne    929d <__pthread_mutex_lock_full+0x34d>
    93df:	b8 0b 00 00 00       	mov    $0xb,%eax
    93e4:	e9 9b fb ff ff       	jmpq   8f84 <__pthread_mutex_lock_full+0x34>
    93e9:	48 8d 0d f0 87 00 00 	lea    0x87f0(%rip),%rcx        # 11be0 <__PRETTY_FUNCTION__.8738>
    93f0:	48 8d 35 b7 8d 00 00 	lea    0x8db7(%rip),%rsi        # 121ae <__PRETTY_FUNCTION__.7549+0x3e>
    93f7:	48 8d 3d ee 86 00 00 	lea    0x86ee(%rip),%rdi        # 11aec <__PRETTY_FUNCTION__.7538+0x2c>
    93fe:	ba cb 01 00 00       	mov    $0x1cb,%edx
    9403:	e8 d8 bf ff ff       	callq  53e0 <__assert_fail@plt>
    9408:	45 85 c0             	test   %r8d,%r8d
    940b:	0f 84 77 ff ff ff    	je     9388 <__pthread_mutex_lock_full+0x438>
    9411:	48 8d 0d c8 87 00 00 	lea    0x87c8(%rip),%rcx        # 11be0 <__PRETTY_FUNCTION__.8738>
    9418:	48 8d 35 8f 8d 00 00 	lea    0x8d8f(%rip),%rsi        # 121ae <__PRETTY_FUNCTION__.7549+0x3e>
    941f:	48 8d 3d af 86 00 00 	lea    0x86af(%rip),%rdi        # 11ad5 <__PRETTY_FUNCTION__.7538+0x15>
    9426:	ba 3d 01 00 00       	mov    $0x13d,%edx
    942b:	e8 b0 bf ff ff       	callq  53e0 <__assert_fail@plt>
    9430:	64 48 c7 04 25 f0 02 	movq   $0x0,%fs:0x2f0
    9437:	00 00 00 00 00 00 
    943d:	b8 23 00 00 00       	mov    $0x23,%eax
    9442:	e9 3d fb ff ff       	jmpq   8f84 <__pthread_mutex_lock_full+0x34>
    9447:	f0 81 23 ff ff ff bf 	lock andl $0xbfffffff,(%rbx)
    944e:	c7 43 04 01 00 00 00 	movl   $0x1,0x4(%rbx)
    9455:	c7 43 08 ff ff ff 7f 	movl   $0x7fffffff,0x8(%rbx)
    945c:	64 48 8b 04 25 e0 02 	mov    %fs:0x2e0,%rax
    9463:	00 00 
    9465:	48 8d 53 20          	lea    0x20(%rbx),%rdx
    9469:	48 83 e0 fe          	and    $0xfffffffffffffffe,%rax
    946d:	48 89 50 f8          	mov    %rdx,-0x8(%rax)
    9471:	64 48 8b 04 25 e0 02 	mov    %fs:0x2e0,%rax
    9478:	00 00 
    947a:	48 89 43 20          	mov    %rax,0x20(%rbx)
    947e:	48 83 ca 01          	or     $0x1,%rdx
    9482:	64 48 8b 04 25 10 00 	mov    %fs:0x10,%rax
    9489:	00 00 
    948b:	48 05 e0 02 00 00    	add    $0x2e0,%rax
    9491:	48 89 43 18          	mov    %rax,0x18(%rbx)
    9495:	64 48 89 14 25 e0 02 	mov    %rdx,%fs:0x2e0
    949c:	00 00 
    949e:	64 48 c7 04 25 f0 02 	movq   $0x0,%fs:0x2f0
    94a5:	00 00 00 00 00 00 
    94ab:	b8 82 00 00 00       	mov    $0x82,%eax
    94b0:	e9 cf fa ff ff       	jmpq   8f84 <__pthread_mutex_lock_full+0x34>
    94b5:	48 8d 0d 24 87 00 00 	lea    0x8724(%rip),%rcx        # 11be0 <__PRETTY_FUNCTION__.8738>
    94bc:	48 8d 35 eb 8c 00 00 	lea    0x8ceb(%rip),%rsi        # 121ae <__PRETTY_FUNCTION__.7549+0x3e>
    94c3:	48 8d 3d 9e 86 00 00 	lea    0x869e(%rip),%rdi        # 11b68 <__PRETTY_FUNCTION__.7538+0xa8>
    94ca:	ba 46 01 00 00       	mov    $0x146,%edx
    94cf:	e8 0c bf ff ff       	callq  53e0 <__assert_fail@plt>
    94d4:	c7 43 04 00 00 00 00 	movl   $0x0,0x4(%rbx)
    94db:	45 31 d2             	xor    %r10d,%r10d
    94de:	31 d2                	xor    %edx,%edx
    94e0:	be 07 00 00 00       	mov    $0x7,%esi
    94e5:	48 89 df             	mov    %rbx,%rdi
    94e8:	b8 ca 00 00 00       	mov    $0xca,%eax
    94ed:	0f 05                	syscall 
    94ef:	64 48 c7 04 25 f0 02 	movq   $0x0,%fs:0x2f0
    94f6:	00 00 00 00 00 00 
    94fc:	b8 83 00 00 00       	mov    $0x83,%eax
    9501:	e9 7e fa ff ff       	jmpq   8f84 <__pthread_mutex_lock_full+0x34>
    9506:	c7 43 04 00 00 00 00 	movl   $0x0,0x4(%rbx)
    950d:	be 80 00 00 00       	mov    $0x80,%esi
    9512:	f0 ff 0b             	lock decl (%rbx)
    9515:	0f 85 50 02 00 00    	jne    976b <_L_unlock_467>
    951b:	64 48 c7 04 25 f0 02 	movq   $0x0,%fs:0x2f0
    9522:	00 00 00 00 00 00 
    9528:	b8 83 00 00 00       	mov    $0x83,%eax
    952d:	e9 52 fa ff ff       	jmpq   8f84 <__pthread_mutex_lock_full+0x34>
    9532:	8b 43 10             	mov    0x10(%rbx),%eax
    9535:	83 e0 7f             	and    $0x7f,%eax
    9538:	83 f8 12             	cmp    $0x12,%eax
    953b:	74 28                	je     9565 <__pthread_mutex_lock_full+0x615>
    953d:	83 f8 11             	cmp    $0x11,%eax
    9540:	0f 85 61 fb ff ff    	jne    90a7 <__pthread_mutex_lock_full+0x157>
    9546:	64 48 c7 04 25 f0 02 	movq   $0x0,%fs:0x2f0
    954d:	00 00 00 00 00 00 
    9553:	8b 43 04             	mov    0x4(%rbx),%eax
    9556:	83 f8 ff             	cmp    $0xffffffff,%eax
    9559:	0f 85 3e fd ff ff    	jne    929d <__pthread_mutex_lock_full+0x34d>
    955f:	90                   	nop
    9560:	e9 7a fe ff ff       	jmpq   93df <__pthread_mutex_lock_full+0x48f>
    9565:	64 48 c7 04 25 f0 02 	movq   $0x0,%fs:0x2f0
    956c:	00 00 00 00 00 00 
    9572:	b0 23                	mov    $0x23,%al
    9574:	e9 0b fa ff ff       	jmpq   8f84 <__pthread_mutex_lock_full+0x34>
    9579:	0f 1f 80 00 00 00 00 	nopl   0x0(%rax)

0000000000009580 <__pthread_mutex_lock>:
    9580:	55                   	push   %rbp
    9581:	8b 77 10             	mov    0x10(%rdi),%esi
    9584:	49 89 f8             	mov    %rdi,%r8
    9587:	48 89 e5             	mov    %rsp,%rbp
    958a:	89 f7                	mov    %esi,%edi
    958c:	89 f0                	mov    %esi,%eax
    958e:	83 e7 7f             	and    $0x7f,%edi
    9591:	83 e0 7c             	and    $0x7c,%eax
    9594:	75 3a                	jne    95d0 <__pthread_mutex_lock+0x50>
    9596:	64 44 8b 0c 25 d0 02 	mov    %fs:0x2d0,%r9d
    959d:	00 00 
    959f:	85 ff                	test   %edi,%edi
    95a1:	75 55                	jne    95f8 <__pthread_mutex_lock+0x78>
    95a3:	81 e6 80 00 00 00    	and    $0x80,%esi
    95a9:	bf 01 00 00 00       	mov    $0x1,%edi
    95ae:	31 c0                	xor    %eax,%eax
    95b0:	f0 41 0f b1 38       	lock cmpxchg %edi,(%r8)
    95b5:	0f 85 cb 01 00 00    	jne    9786 <_L_lock_520>
    95bb:	41 8b 40 08          	mov    0x8(%r8),%eax
    95bf:	85 c0                	test   %eax,%eax
    95c1:	75 16                	jne    95d9 <__pthread_mutex_lock+0x59>
    95c3:	41 83 40 0c 01       	addl   $0x1,0xc(%r8)
    95c8:	45 89 48 08          	mov    %r9d,0x8(%r8)
    95cc:	31 c0                	xor    %eax,%eax
    95ce:	c9                   	leaveq 
    95cf:	c3                   	retq   
    95d0:	c9                   	leaveq 
    95d1:	4c 89 c7             	mov    %r8,%rdi
    95d4:	e9 77 f9 ff ff       	jmpq   8f50 <__pthread_mutex_lock_full>
    95d9:	48 8d 0d e0 85 00 00 	lea    0x85e0(%rip),%rcx        # 11bc0 <__PRETTY_FUNCTION__.8486>
    95e0:	48 8d 35 c7 8b 00 00 	lea    0x8bc7(%rip),%rsi        # 121ae <__PRETTY_FUNCTION__.7549+0x3e>
    95e7:	48 8d 3d fe 84 00 00 	lea    0x84fe(%rip),%rdi        # 11aec <__PRETTY_FUNCTION__.7538+0x2c>
    95ee:	ba 41 00 00 00       	mov    $0x41,%edx
    95f3:	e8 e8 bd ff ff       	callq  53e0 <__assert_fail@plt>
    95f8:	83 ff 01             	cmp    $0x1,%edi
    95fb:	75 45                	jne    9642 <__pthread_mutex_lock+0xc2>
    95fd:	45 3b 48 08          	cmp    0x8(%r8),%r9d
    9601:	74 26                	je     9629 <__pthread_mutex_lock+0xa9>
    9603:	81 e6 80 00 00 00    	and    $0x80,%esi
    9609:	f0 41 0f b1 38       	lock cmpxchg %edi,(%r8)
    960e:	0f 85 8d 01 00 00    	jne    97a1 <_L_lock_559>
    9614:	41 83 78 08 00       	cmpl   $0x0,0x8(%r8)
    9619:	0f 85 bd 00 00 00    	jne    96dc <__pthread_mutex_lock+0x15c>
    961f:	41 c7 40 04 01 00 00 	movl   $0x1,0x4(%r8)
    9626:	00 
    9627:	eb 9a                	jmp    95c3 <__pthread_mutex_lock+0x43>
    9629:	41 8b 50 04          	mov    0x4(%r8),%edx
    962d:	b8 0b 00 00 00       	mov    $0xb,%eax
    9632:	83 fa ff             	cmp    $0xffffffff,%edx
    9635:	74 97                	je     95ce <__pthread_mutex_lock+0x4e>
    9637:	83 c2 01             	add    $0x1,%edx
    963a:	30 c0                	xor    %al,%al
    963c:	41 89 50 04          	mov    %edx,0x4(%r8)
    9640:	c9                   	leaveq 
    9641:	c3                   	retq   
    9642:	83 ff 03             	cmp    $0x3,%edi
    9645:	0f 85 ce 00 00 00    	jne    9719 <__pthread_mutex_lock+0x199>
    964b:	83 3d 0a 2d 21 00 00 	cmpl   $0x0,0x212d0a(%rip)        # 21c35c <__is_smp>
    9652:	0f 84 4b ff ff ff    	je     95a3 <__pthread_mutex_lock+0x23>
    9658:	ba 01 00 00 00       	mov    $0x1,%edx
    965d:	f0 41 0f b1 10       	lock cmpxchg %edx,(%r8)
    9662:	85 c0                	test   %eax,%eax
    9664:	74 4c                	je     96b2 <__pthread_mutex_lock+0x132>
    9666:	41 8b 48 14          	mov    0x14(%r8),%ecx
    966a:	b8 64 00 00 00       	mov    $0x64,%eax
    966f:	be 01 00 00 00       	mov    $0x1,%esi
    9674:	8d 4c 09 0a          	lea    0xa(%rcx,%rcx,1),%ecx
    9678:	83 f9 64             	cmp    $0x64,%ecx
    967b:	0f 4f c8             	cmovg  %eax,%ecx
    967e:	30 d2                	xor    %dl,%dl
    9680:	40 30 ff             	xor    %dil,%dil
    9683:	83 c2 01             	add    $0x1,%edx
    9686:	8d 42 ff             	lea    -0x1(%rdx),%eax
    9689:	39 c8                	cmp    %ecx,%eax
    968b:	7d 6e                	jge    96fb <__pthread_mutex_lock+0x17b>
    968d:	f3 90                	pause  
    968f:	89 f8                	mov    %edi,%eax
    9691:	f0 41 0f b1 30       	lock cmpxchg %esi,(%r8)
    9696:	85 c0                	test   %eax,%eax
    9698:	75 e9                	jne    9683 <__pthread_mutex_lock+0x103>
    969a:	41 8b 48 14          	mov    0x14(%r8),%ecx
    969e:	be 08 00 00 00       	mov    $0x8,%esi
    96a3:	29 ca                	sub    %ecx,%edx
    96a5:	89 d0                	mov    %edx,%eax
    96a7:	c1 fa 1f             	sar    $0x1f,%edx
    96aa:	f7 fe                	idiv   %esi
    96ac:	01 c8                	add    %ecx,%eax
    96ae:	41 89 40 14          	mov    %eax,0x14(%r8)
    96b2:	41 83 78 08 00       	cmpl   $0x0,0x8(%r8)
    96b7:	0f 84 06 ff ff ff    	je     95c3 <__pthread_mutex_lock+0x43>
    96bd:	48 8d 0d fc 84 00 00 	lea    0x84fc(%rip),%rcx        # 11bc0 <__PRETTY_FUNCTION__.8486>
    96c4:	48 8d 35 e3 8a 00 00 	lea    0x8ae3(%rip),%rsi        # 121ae <__PRETTY_FUNCTION__.7549+0x3e>
    96cb:	48 8d 3d 1a 84 00 00 	lea    0x841a(%rip),%rdi        # 11aec <__PRETTY_FUNCTION__.7538+0x2c>
    96d2:	ba 74 00 00 00       	mov    $0x74,%edx
    96d7:	e8 04 bd ff ff       	callq  53e0 <__assert_fail@plt>
    96dc:	48 8d 0d dd 84 00 00 	lea    0x84dd(%rip),%rcx        # 11bc0 <__PRETTY_FUNCTION__.8486>
    96e3:	48 8d 35 c4 8a 00 00 	lea    0x8ac4(%rip),%rsi        # 121ae <__PRETTY_FUNCTION__.7549+0x3e>
    96ea:	48 8d 3d fb 83 00 00 	lea    0x83fb(%rip),%rdi        # 11aec <__PRETTY_FUNCTION__.7538+0x2c>
    96f1:	ba 57 00 00 00       	mov    $0x57,%edx
    96f6:	e8 e5 bc ff ff       	callq  53e0 <__assert_fail@plt>
    96fb:	41 8b 70 10          	mov    0x10(%r8),%esi
    96ff:	bf 01 00 00 00       	mov    $0x1,%edi
    9704:	31 c0                	xor    %eax,%eax
    9706:	81 e6 80 00 00 00    	and    $0x80,%esi
    970c:	f0 41 0f b1 38       	lock cmpxchg %edi,(%r8)
    9711:	0f 85 a5 00 00 00    	jne    97bc <_L_lock_649>
    9717:	eb 81                	jmp    969a <__pthread_mutex_lock+0x11a>
    9719:	83 ff 02             	cmp    $0x2,%edi
    971c:	75 13                	jne    9731 <__pthread_mutex_lock+0x1b1>
    971e:	45 3b 48 08          	cmp    0x8(%r8),%r9d
    9722:	b8 23 00 00 00       	mov    $0x23,%eax
    9727:	0f 85 76 fe ff ff    	jne    95a3 <__pthread_mutex_lock+0x23>
    972d:	c9                   	leaveq 
    972e:	66 90                	xchg   %ax,%ax
    9730:	c3                   	retq   
    9731:	48 8d 0d 88 84 00 00 	lea    0x8488(%rip),%rcx        # 11bc0 <__PRETTY_FUNCTION__.8486>
    9738:	48 8d 35 6f 8a 00 00 	lea    0x8a6f(%rip),%rsi        # 121ae <__PRETTY_FUNCTION__.7549+0x3e>
    973f:	48 8d 3d 4a 84 00 00 	lea    0x844a(%rip),%rdi        # 11b90 <__PRETTY_FUNCTION__.7538+0xd0>
    9746:	ba 78 00 00 00       	mov    $0x78,%edx
    974b:	e8 90 bc ff ff       	callq  53e0 <__assert_fail@plt>

0000000000009750 <_L_robust_lock_133>:
    9750:	48 8d 3b             	lea    (%rbx),%rdi
    9753:	48 81 ec 80 00 00 00 	sub    $0x80,%rsp
    975a:	e8 c1 4e 00 00       	callq  e620 <__lll_robust_lock_wait>
    975f:	48 81 c4 80 00 00 00 	add    $0x80,%rsp
    9766:	e9 4e f9 ff ff       	jmpq   90b9 <__pthread_mutex_lock_full+0x169>

000000000000976b <_L_unlock_467>:
    976b:	48 8d 3b             	lea    (%rbx),%rdi
    976e:	48 81 ec 80 00 00 00 	sub    $0x80,%rsp
    9775:	e8 e6 4d 00 00       	callq  e560 <__lll_unlock_wake>
    977a:	48 81 c4 80 00 00 00 	add    $0x80,%rsp
    9781:	e9 95 fd ff ff       	jmpq   951b <__pthread_mutex_lock_full+0x5cb>

0000000000009786 <_L_lock_520>:
    9786:	49 8d 38             	lea    (%r8),%rdi
    9789:	48 81 ec 80 00 00 00 	sub    $0x80,%rsp
    9790:	e8 3b 4c 00 00       	callq  e3d0 <__lll_lock_wait>
    9795:	48 81 c4 80 00 00 00 	add    $0x80,%rsp
    979c:	e9 1a fe ff ff       	jmpq   95bb <__pthread_mutex_lock+0x3b>

00000000000097a1 <_L_lock_559>:
    97a1:	49 8d 38             	lea    (%r8),%rdi
    97a4:	48 81 ec 80 00 00 00 	sub    $0x80,%rsp
    97ab:	e8 20 4c 00 00       	callq  e3d0 <__lll_lock_wait>
    97b0:	48 81 c4 80 00 00 00 	add    $0x80,%rsp
    97b7:	e9 58 fe ff ff       	jmpq   9614 <__pthread_mutex_lock+0x94>

00000000000097bc <_L_lock_649>:
    97bc:	49 8d 38             	lea    (%r8),%rdi
    97bf:	48 81 ec 80 00 00 00 	sub    $0x80,%rsp
    97c6:	e8 05 4c 00 00       	callq  e3d0 <__lll_lock_wait>
    97cb:	48 81 c4 80 00 00 00 	add    $0x80,%rsp
    97d2:	e9 40 ff ff ff       	jmpq   9717 <__pthread_mutex_lock+0x197>
    97d7:	90                   	nop
    97d8:	90                   	nop
    97d9:	90                   	nop
    97da:	90                   	nop
    97db:	90                   	nop
    97dc:	90                   	nop
    97dd:	90                   	nop
    97de:	90                   	nop
    97df:	90                   	nop

00000000000097e0 <__pthread_mutex_trylock>:
    97e0:	55                   	push   %rbp
    97e1:	48 89 e5             	mov    %rsp,%rbp
    97e4:	41 56                	push   %r14
    97e6:	41 55                	push   %r13
    97e8:	41 54                	push   %r12
    97ea:	53                   	push   %rbx
    97eb:	48 89 fb             	mov    %rdi,%rbx
    97ee:	64 44 8b 24 25 d0 02 	mov    %fs:0x2d0,%r12d
    97f5:	00 00 
    97f7:	8b 4f 10             	mov    0x10(%rdi),%ecx
    97fa:	48 89 c8             	mov    %rcx,%rax
    97fd:	83 e0 7f             	and    $0x7f,%eax
    9800:	48 83 f8 43          	cmp    $0x43,%rax
    9804:	76 1a                	jbe    9820 <__pthread_mutex_trylock+0x40>
    9806:	ba 16 00 00 00       	mov    $0x16,%edx
    980b:	0f 1f 44 00 00       	nopl   0x0(%rax,%rax,1)
    9810:	5b                   	pop    %rbx
    9811:	41 5c                	pop    %r12
    9813:	41 5d                	pop    %r13
    9815:	89 d0                	mov    %edx,%eax
    9817:	41 5e                	pop    %r14
    9819:	c9                   	leaveq 
    981a:	c3                   	retq   
    981b:	0f 1f 44 00 00       	nopl   0x0(%rax,%rax,1)
    9820:	48 8d 15 ed 83 00 00 	lea    0x83ed(%rip),%rdx        # 11c14 <__PRETTY_FUNCTION__.8738+0x34>
    9827:	48 63 04 82          	movslq (%rdx,%rax,4),%rax
    982b:	48 8d 14 10          	lea    (%rax,%rdx,1),%rdx
    982f:	ff e2                	jmpq   *%rdx
    9831:	0f 1f 80 00 00 00 00 	nopl   0x0(%rax)
    9838:	44 3b 67 08          	cmp    0x8(%rdi),%r12d
    983c:	8b 37                	mov    (%rdi),%esi
    983e:	0f 84 5c 02 00 00    	je     9aa0 <__pthread_mutex_trylock+0x2c0>
    9844:	41 be ff ff ff ff    	mov    $0xffffffff,%r14d
    984a:	66 0f 1f 44 00 00    	nopw   0x0(%rax,%rax,1)
    9850:	41 89 f5             	mov    %esi,%r13d
    9853:	41 c1 ed 13          	shr    $0x13,%r13d
    9857:	e8 b4 69 00 00       	callq  10210 <__pthread_current_priority>
    985c:	41 39 c5             	cmp    %eax,%r13d
    985f:	0f 8c c6 03 00 00    	jl     9c2b <__pthread_mutex_trylock+0x44b>
    9865:	44 89 ee             	mov    %r13d,%esi
    9868:	44 89 f7             	mov    %r14d,%edi
    986b:	e8 d0 6a 00 00       	callq  10340 <__pthread_tpp_change_priority>
    9870:	85 c0                	test   %eax,%eax
    9872:	89 c2                	mov    %eax,%edx
    9874:	75 9a                	jne    9810 <__pthread_mutex_trylock+0x30>
    9876:	44 89 e9             	mov    %r13d,%ecx
    9879:	c1 e1 13             	shl    $0x13,%ecx
    987c:	89 ce                	mov    %ecx,%esi
    987e:	89 c8                	mov    %ecx,%eax
    9880:	83 ce 01             	or     $0x1,%esi
    9883:	f0 0f b1 33          	lock cmpxchg %esi,(%rbx)
    9887:	39 c8                	cmp    %ecx,%eax
    9889:	89 c6                	mov    %eax,%esi
    988b:	0f 84 bc 03 00 00    	je     9c4d <__pthread_mutex_trylock+0x46d>
    9891:	25 00 00 f8 ff       	and    $0xfff80000,%eax
    9896:	45 89 ee             	mov    %r13d,%r14d
    9899:	39 c1                	cmp    %eax,%ecx
    989b:	75 b3                	jne    9850 <__pthread_mutex_trylock+0x70>
    989d:	be ff ff ff ff       	mov    $0xffffffff,%esi
    98a2:	44 89 ef             	mov    %r13d,%edi
    98a5:	e8 96 6a 00 00       	callq  10340 <__pthread_tpp_change_priority>
    98aa:	ba 10 00 00 00       	mov    $0x10,%edx
    98af:	e9 5c ff ff ff       	jmpq   9810 <__pthread_mutex_trylock+0x30>
    98b4:	0f 1f 40 00          	nopl   0x0(%rax)
    98b8:	31 c0                	xor    %eax,%eax
    98ba:	ba 01 00 00 00       	mov    $0x1,%edx
    98bf:	f0 0f b1 17          	lock cmpxchg %edx,(%rdi)
    98c3:	85 c0                	test   %eax,%eax
    98c5:	0f 85 3d 01 00 00    	jne    9a08 <__pthread_mutex_trylock+0x228>
    98cb:	44 89 67 08          	mov    %r12d,0x8(%rdi)
    98cf:	83 47 0c 01          	addl   $0x1,0xc(%rdi)
    98d3:	30 d2                	xor    %dl,%dl
    98d5:	e9 36 ff ff ff       	jmpq   9810 <__pthread_mutex_trylock+0x30>
    98da:	66 0f 1f 44 00 00    	nopw   0x0(%rax,%rax,1)
    98e0:	44 3b 67 08          	cmp    0x8(%rdi),%r12d
    98e4:	0f 84 76 02 00 00    	je     9b60 <__pthread_mutex_trylock+0x380>
    98ea:	31 c0                	xor    %eax,%eax
    98ec:	ba 01 00 00 00       	mov    $0x1,%edx
    98f1:	f0 0f b1 17          	lock cmpxchg %edx,(%rdi)
    98f5:	85 c0                	test   %eax,%eax
    98f7:	0f 85 0b 01 00 00    	jne    9a08 <__pthread_mutex_trylock+0x228>
    98fd:	44 89 67 08          	mov    %r12d,0x8(%rdi)
    9901:	c7 47 04 01 00 00 00 	movl   $0x1,0x4(%rdi)
    9908:	30 d2                	xor    %dl,%dl
    990a:	83 47 0c 01          	addl   $0x1,0xc(%rdi)
    990e:	e9 fd fe ff ff       	jmpq   9810 <__pthread_mutex_trylock+0x30>
    9913:	0f 1f 44 00 00       	nopl   0x0(%rax,%rax,1)
    9918:	48 8d 7f 20          	lea    0x20(%rdi),%rdi
    991c:	64 48 89 3c 25 f0 02 	mov    %rdi,%fs:0x2f0
    9923:	00 00 
    9925:	8b 13                	mov    (%rbx),%edx
    9927:	31 f6                	xor    %esi,%esi
    9929:	0f 1f 80 00 00 00 00 	nopl   0x0(%rax)
    9930:	f7 c2 00 00 00 40    	test   $0x40000000,%edx
    9936:	75 4a                	jne    9982 <__pthread_mutex_trylock+0x1a2>
    9938:	81 e2 ff ff ff 3f    	and    $0x3fffffff,%edx
    993e:	41 39 d4             	cmp    %edx,%r12d
    9941:	0f 84 99 03 00 00    	je     9ce0 <__pthread_mutex_trylock+0x500>
    9947:	89 f0                	mov    %esi,%eax
    9949:	f0 44 0f b1 23       	lock cmpxchg %r12d,(%rbx)
    994e:	85 c0                	test   %eax,%eax
    9950:	74 0b                	je     995d <__pthread_mutex_trylock+0x17d>
    9952:	a9 00 00 00 40       	test   $0x40000000,%eax
    9957:	0f 84 1c 02 00 00    	je     9b79 <__pthread_mutex_trylock+0x399>
    995d:	81 7b 08 fe ff ff 7f 	cmpl   $0x7ffffffe,0x8(%rbx)
    9964:	0f 84 ad 03 00 00    	je     9d17 <__pthread_mutex_trylock+0x537>
    996a:	a9 00 00 00 40       	test   $0x40000000,%eax
    996f:	90                   	nop
    9970:	0f 84 aa 00 00 00    	je     9a20 <__pthread_mutex_trylock+0x240>
    9976:	89 c2                	mov    %eax,%edx
    9978:	f7 c2 00 00 00 40    	test   $0x40000000,%edx
    997e:	66 90                	xchg   %ax,%ax
    9980:	74 b6                	je     9938 <__pthread_mutex_trylock+0x158>
    9982:	89 d1                	mov    %edx,%ecx
    9984:	89 d0                	mov    %edx,%eax
    9986:	81 e1 00 00 00 80    	and    $0x80000000,%ecx
    998c:	44 09 e1             	or     %r12d,%ecx
    998f:	f0 0f b1 0b          	lock cmpxchg %ecx,(%rbx)
    9993:	39 d0                	cmp    %edx,%eax
    9995:	89 c1                	mov    %eax,%ecx
    9997:	0f 84 f3 01 00 00    	je     9b90 <__pthread_mutex_trylock+0x3b0>
    999d:	89 ca                	mov    %ecx,%edx
    999f:	eb 8f                	jmp    9930 <__pthread_mutex_trylock+0x150>
    99a1:	0f 1f 80 00 00 00 00 	nopl   0x0(%rax)
    99a8:	89 ca                	mov    %ecx,%edx
    99aa:	83 e2 10             	and    $0x10,%edx
    99ad:	74 11                	je     99c0 <__pthread_mutex_trylock+0x1e0>
    99af:	48 8d 47 20          	lea    0x20(%rdi),%rax
    99b3:	48 83 c8 01          	or     $0x1,%rax
    99b7:	64 48 89 04 25 f0 02 	mov    %rax,%fs:0x2f0
    99be:	00 00 
    99c0:	8b 03                	mov    (%rbx),%eax
    99c2:	25 ff ff ff 3f       	and    $0x3fffffff,%eax
    99c7:	41 39 c4             	cmp    %eax,%r12d
    99ca:	0f 84 69 01 00 00    	je     9b39 <__pthread_mutex_trylock+0x359>
    99d0:	31 c0                	xor    %eax,%eax
    99d2:	f0 44 0f b1 23       	lock cmpxchg %r12d,(%rbx)
    99d7:	85 c0                	test   %eax,%eax
    99d9:	0f 84 a1 00 00 00    	je     9a80 <__pthread_mutex_trylock+0x2a0>
    99df:	a9 00 00 00 40       	test   $0x40000000,%eax
    99e4:	0f 85 05 02 00 00    	jne    9bef <__pthread_mutex_trylock+0x40f>
    99ea:	64 48 c7 04 25 f0 02 	movq   $0x0,%fs:0x2f0
    99f1:	00 00 00 00 00 00 
    99f7:	ba 10 00 00 00       	mov    $0x10,%edx
    99fc:	e9 0f fe ff ff       	jmpq   9810 <__pthread_mutex_trylock+0x30>
    9a01:	0f 1f 80 00 00 00 00 	nopl   0x0(%rax)
    9a08:	5b                   	pop    %rbx
    9a09:	41 5c                	pop    %r12
    9a0b:	41 5d                	pop    %r13
    9a0d:	ba 10 00 00 00       	mov    $0x10,%edx
    9a12:	89 d0                	mov    %edx,%eax
    9a14:	41 5e                	pop    %r14
    9a16:	c9                   	leaveq 
    9a17:	c3                   	retq   
    9a18:	0f 1f 84 00 00 00 00 	nopl   0x0(%rax,%rax,1)
    9a1f:	00 
    9a20:	64 48 8b 04 25 e0 02 	mov    %fs:0x2e0,%rax
    9a27:	00 00 
    9a29:	48 83 e0 fe          	and    $0xfffffffffffffffe,%rax
    9a2d:	48 89 78 f8          	mov    %rdi,-0x8(%rax)
    9a31:	64 48 8b 04 25 e0 02 	mov    %fs:0x2e0,%rax
    9a38:	00 00 
    9a3a:	48 89 43 20          	mov    %rax,0x20(%rbx)
    9a3e:	64 48 8b 04 25 10 00 	mov    %fs:0x10,%rax
    9a45:	00 00 
    9a47:	48 05 e0 02 00 00    	add    $0x2e0,%rax
    9a4d:	48 89 43 18          	mov    %rax,0x18(%rbx)
    9a51:	64 48 89 3c 25 e0 02 	mov    %rdi,%fs:0x2e0
    9a58:	00 00 
    9a5a:	64 48 c7 04 25 f0 02 	movq   $0x0,%fs:0x2f0
    9a61:	00 00 00 00 00 00 
    9a67:	31 d2                	xor    %edx,%edx
    9a69:	44 89 63 08          	mov    %r12d,0x8(%rbx)
    9a6d:	83 43 0c 01          	addl   $0x1,0xc(%rbx)
    9a71:	c7 43 04 01 00 00 00 	movl   $0x1,0x4(%rbx)
    9a78:	e9 93 fd ff ff       	jmpq   9810 <__pthread_mutex_trylock+0x30>
    9a7d:	0f 1f 00             	nopl   (%rax)
    9a80:	85 d2                	test   %edx,%edx
    9a82:	75 54                	jne    9ad8 <__pthread_mutex_trylock+0x2f8>
    9a84:	44 89 63 08          	mov    %r12d,0x8(%rbx)
    9a88:	83 43 0c 01          	addl   $0x1,0xc(%rbx)
    9a8c:	31 d2                	xor    %edx,%edx
    9a8e:	c7 43 04 01 00 00 00 	movl   $0x1,0x4(%rbx)
    9a95:	e9 76 fd ff ff       	jmpq   9810 <__pthread_mutex_trylock+0x30>
    9a9a:	66 0f 1f 44 00 00    	nopw   0x0(%rax,%rax,1)
    9aa0:	83 e1 03             	and    $0x3,%ecx
    9aa3:	ba 23 00 00 00       	mov    $0x23,%edx
    9aa8:	83 f9 02             	cmp    $0x2,%ecx
    9aab:	0f 84 5f fd ff ff    	je     9810 <__pthread_mutex_trylock+0x30>
    9ab1:	83 f9 01             	cmp    $0x1,%ecx
    9ab4:	0f 85 8a fd ff ff    	jne    9844 <__pthread_mutex_trylock+0x64>
    9aba:	8b 47 04             	mov    0x4(%rdi),%eax
    9abd:	83 f8 ff             	cmp    $0xffffffff,%eax
    9ac0:	0f 84 47 02 00 00    	je     9d0d <__pthread_mutex_trylock+0x52d>
    9ac6:	83 c0 01             	add    $0x1,%eax
    9ac9:	30 d2                	xor    %dl,%dl
    9acb:	89 47 04             	mov    %eax,0x4(%rdi)
    9ace:	e9 3d fd ff ff       	jmpq   9810 <__pthread_mutex_trylock+0x30>
    9ad3:	0f 1f 44 00 00       	nopl   0x0(%rax,%rax,1)
    9ad8:	81 7b 08 fe ff ff 7f 	cmpl   $0x7ffffffe,0x8(%rbx)
    9adf:	0f 84 b5 02 00 00    	je     9d9a <__pthread_mutex_trylock+0x5ba>
    9ae5:	64 48 8b 04 25 e0 02 	mov    %fs:0x2e0,%rax
    9aec:	00 00 
    9aee:	48 8d 53 20          	lea    0x20(%rbx),%rdx
    9af2:	48 83 e0 fe          	and    $0xfffffffffffffffe,%rax
    9af6:	48 89 50 f8          	mov    %rdx,-0x8(%rax)
    9afa:	64 48 8b 04 25 e0 02 	mov    %fs:0x2e0,%rax
    9b01:	00 00 
    9b03:	48 89 43 20          	mov    %rax,0x20(%rbx)
    9b07:	48 83 ca 01          	or     $0x1,%rdx
    9b0b:	64 48 8b 04 25 10 00 	mov    %fs:0x10,%rax
    9b12:	00 00 
    9b14:	48 05 e0 02 00 00    	add    $0x2e0,%rax
    9b1a:	48 89 43 18          	mov    %rax,0x18(%rbx)
    9b1e:	64 48 89 14 25 e0 02 	mov    %rdx,%fs:0x2e0
    9b25:	00 00 
    9b27:	64 48 c7 04 25 f0 02 	movq   $0x0,%fs:0x2f0
    9b2e:	00 00 00 00 00 00 
    9b34:	e9 4b ff ff ff       	jmpq   9a84 <__pthread_mutex_trylock+0x2a4>
    9b39:	83 e1 03             	and    $0x3,%ecx
    9b3c:	83 f9 02             	cmp    $0x2,%ecx
    9b3f:	0f 84 84 02 00 00    	je     9dc9 <__pthread_mutex_trylock+0x5e9>
    9b45:	83 f9 01             	cmp    $0x1,%ecx
    9b48:	0f 85 82 fe ff ff    	jne    99d0 <__pthread_mutex_trylock+0x1f0>
    9b4e:	64 48 c7 04 25 f0 02 	movq   $0x0,%fs:0x2f0
    9b55:	00 00 00 00 00 00 
    9b5b:	0f 1f 44 00 00       	nopl   0x0(%rax,%rax,1)
    9b60:	8b 43 04             	mov    0x4(%rbx),%eax
    9b63:	83 f8 ff             	cmp    $0xffffffff,%eax
    9b66:	0f 84 a1 01 00 00    	je     9d0d <__pthread_mutex_trylock+0x52d>
    9b6c:	83 c0 01             	add    $0x1,%eax
    9b6f:	31 d2                	xor    %edx,%edx
    9b71:	89 43 04             	mov    %eax,0x4(%rbx)
    9b74:	e9 97 fc ff ff       	jmpq   9810 <__pthread_mutex_trylock+0x30>
    9b79:	64 48 c7 04 25 f0 02 	movq   $0x0,%fs:0x2f0
    9b80:	00 00 00 00 00 00 
    9b86:	ba 10 00 00 00       	mov    $0x10,%edx
    9b8b:	e9 80 fc ff ff       	jmpq   9810 <__pthread_mutex_trylock+0x30>
    9b90:	c7 43 04 01 00 00 00 	movl   $0x1,0x4(%rbx)
    9b97:	c7 43 08 ff ff ff 7f 	movl   $0x7fffffff,0x8(%rbx)
    9b9e:	64 48 8b 04 25 e0 02 	mov    %fs:0x2e0,%rax
    9ba5:	00 00 
    9ba7:	48 83 e0 fe          	and    $0xfffffffffffffffe,%rax
    9bab:	48 89 78 f8          	mov    %rdi,-0x8(%rax)
    9baf:	64 48 8b 04 25 e0 02 	mov    %fs:0x2e0,%rax
    9bb6:	00 00 
    9bb8:	48 89 43 20          	mov    %rax,0x20(%rbx)
    9bbc:	64 48 8b 04 25 10 00 	mov    %fs:0x10,%rax
    9bc3:	00 00 
    9bc5:	48 05 e0 02 00 00    	add    $0x2e0,%rax
    9bcb:	48 89 43 18          	mov    %rax,0x18(%rbx)
    9bcf:	64 48 89 3c 25 e0 02 	mov    %rdi,%fs:0x2e0
    9bd6:	00 00 
    9bd8:	64 48 c7 04 25 f0 02 	movq   $0x0,%fs:0x2f0
    9bdf:	00 00 00 00 00 00 
    9be5:	ba 82 00 00 00       	mov    $0x82,%edx
    9bea:	e9 21 fc ff ff       	jmpq   9810 <__pthread_mutex_trylock+0x30>
    9bef:	85 d2                	test   %edx,%edx
    9bf1:	0f 84 68 01 00 00    	je     9d5f <__pthread_mutex_trylock+0x57f>
    9bf7:	45 31 d2             	xor    %r10d,%r10d
    9bfa:	31 d2                	xor    %edx,%edx
    9bfc:	be 08 00 00 00       	mov    $0x8,%esi
    9c01:	48 89 df             	mov    %rbx,%rdi
    9c04:	b8 ca 00 00 00       	mov    $0xca,%eax
    9c09:	0f 05                	syscall 
    9c0b:	3d 00 f0 ff ff       	cmp    $0xfffff000,%eax
    9c10:	76 5a                	jbe    9c6c <__pthread_mutex_trylock+0x48c>
    9c12:	83 f8 f5             	cmp    $0xfffffff5,%eax
    9c15:	75 55                	jne    9c6c <__pthread_mutex_trylock+0x48c>
    9c17:	64 48 c7 04 25 f0 02 	movq   $0x0,%fs:0x2f0
    9c1e:	00 00 00 00 00 00 
    9c24:	b2 10                	mov    $0x10,%dl
    9c26:	e9 e5 fb ff ff       	jmpq   9810 <__pthread_mutex_trylock+0x30>
    9c2b:	41 83 fe ff          	cmp    $0xffffffff,%r14d
    9c2f:	90                   	nop
    9c30:	0f 84 d0 fb ff ff    	je     9806 <__pthread_mutex_trylock+0x26>
    9c36:	be ff ff ff ff       	mov    $0xffffffff,%esi
    9c3b:	44 89 f7             	mov    %r14d,%edi
    9c3e:	e8 fd 66 00 00       	callq  10340 <__pthread_tpp_change_priority>
    9c43:	ba 16 00 00 00       	mov    $0x16,%edx
    9c48:	e9 c3 fb ff ff       	jmpq   9810 <__pthread_mutex_trylock+0x30>
    9c4d:	8b 43 08             	mov    0x8(%rbx),%eax
    9c50:	85 c0                	test   %eax,%eax
    9c52:	0f 85 23 01 00 00    	jne    9d7b <__pthread_mutex_trylock+0x59b>
    9c58:	44 89 63 08          	mov    %r12d,0x8(%rbx)
    9c5c:	83 43 0c 01          	addl   $0x1,0xc(%rbx)
    9c60:	c7 43 04 01 00 00 00 	movl   $0x1,0x4(%rbx)
    9c67:	e9 a4 fb ff ff       	jmpq   9810 <__pthread_mutex_trylock+0x30>
    9c6c:	f6 43 03 40          	testb  $0x40,0x3(%rbx)
    9c70:	0f 84 62 fe ff ff    	je     9ad8 <__pthread_mutex_trylock+0x2f8>
    9c76:	f0 81 23 ff ff ff bf 	lock andl $0xbfffffff,(%rbx)
    9c7d:	c7 43 04 01 00 00 00 	movl   $0x1,0x4(%rbx)
    9c84:	c7 43 08 ff ff ff 7f 	movl   $0x7fffffff,0x8(%rbx)
    9c8b:	64 48 8b 04 25 e0 02 	mov    %fs:0x2e0,%rax
    9c92:	00 00 
    9c94:	48 8d 53 20          	lea    0x20(%rbx),%rdx
    9c98:	48 83 e0 fe          	and    $0xfffffffffffffffe,%rax
    9c9c:	48 89 50 f8          	mov    %rdx,-0x8(%rax)
    9ca0:	64 48 8b 04 25 e0 02 	mov    %fs:0x2e0,%rax
    9ca7:	00 00 
    9ca9:	48 89 43 20          	mov    %rax,0x20(%rbx)
    9cad:	64 48 8b 04 25 10 00 	mov    %fs:0x10,%rax
    9cb4:	00 00 
    9cb6:	48 05 e0 02 00 00    	add    $0x2e0,%rax
    9cbc:	48 89 43 18          	mov    %rax,0x18(%rbx)
    9cc0:	64 48 89 14 25 e0 02 	mov    %rdx,%fs:0x2e0
    9cc7:	00 00 
    9cc9:	64 48 c7 04 25 f0 02 	movq   $0x0,%fs:0x2f0
    9cd0:	00 00 00 00 00 00 
    9cd6:	ba 82 00 00 00       	mov    $0x82,%edx
    9cdb:	e9 30 fb ff ff       	jmpq   9810 <__pthread_mutex_trylock+0x30>
    9ce0:	8b 43 10             	mov    0x10(%rbx),%eax
    9ce3:	83 e0 7f             	and    $0x7f,%eax
    9ce6:	83 f8 12             	cmp    $0x12,%eax
    9ce9:	74 5d                	je     9d48 <__pthread_mutex_trylock+0x568>
    9ceb:	83 f8 11             	cmp    $0x11,%eax
    9cee:	0f 85 53 fc ff ff    	jne    9947 <__pthread_mutex_trylock+0x167>
    9cf4:	64 48 c7 04 25 f0 02 	movq   $0x0,%fs:0x2f0
    9cfb:	00 00 00 00 00 00 
    9d01:	8b 43 04             	mov    0x4(%rbx),%eax
    9d04:	83 f8 ff             	cmp    $0xffffffff,%eax
    9d07:	0f 85 5f fe ff ff    	jne    9b6c <__pthread_mutex_trylock+0x38c>
    9d0d:	ba 0b 00 00 00       	mov    $0xb,%edx
    9d12:	e9 f9 fa ff ff       	jmpq   9810 <__pthread_mutex_trylock+0x30>
    9d17:	41 39 c4             	cmp    %eax,%r12d
    9d1a:	c7 43 04 00 00 00 00 	movl   $0x0,0x4(%rbx)
    9d21:	75 0e                	jne    9d31 <__pthread_mutex_trylock+0x551>
    9d23:	be 80 00 00 00       	mov    $0x80,%esi
    9d28:	f0 ff 0b             	lock decl (%rbx)
    9d2b:	0f 85 af 00 00 00    	jne    9de0 <_L_unlock_423>
    9d31:	64 48 c7 04 25 f0 02 	movq   $0x0,%fs:0x2f0
    9d38:	00 00 00 00 00 00 
    9d3e:	ba 83 00 00 00       	mov    $0x83,%edx
    9d43:	e9 c8 fa ff ff       	jmpq   9810 <__pthread_mutex_trylock+0x30>
    9d48:	64 48 c7 04 25 f0 02 	movq   $0x0,%fs:0x2f0
    9d4f:	00 00 00 00 00 00 
    9d55:	ba 23 00 00 00       	mov    $0x23,%edx
    9d5a:	e9 b1 fa ff ff       	jmpq   9810 <__pthread_mutex_trylock+0x30>
    9d5f:	48 8d 0d ca 7f 00 00 	lea    0x7fca(%rip),%rcx        # 11d30 <__PRETTY_FUNCTION__.7671>
    9d66:	48 8d 35 8d 7e 00 00 	lea    0x7e8d(%rip),%rsi        # 11bfa <__PRETTY_FUNCTION__.8738+0x1a>
    9d6d:	48 8d 3d 71 7d 00 00 	lea    0x7d71(%rip),%rdi        # 11ae5 <__PRETTY_FUNCTION__.7538+0x25>
    9d74:	b2 e5                	mov    $0xe5,%dl
    9d76:	e8 65 b6 ff ff       	callq  53e0 <__assert_fail@plt>
    9d7b:	48 8d 0d ae 7f 00 00 	lea    0x7fae(%rip),%rcx        # 11d30 <__PRETTY_FUNCTION__.7671>
    9d82:	48 8d 35 71 7e 00 00 	lea    0x7e71(%rip),%rsi        # 11bfa <__PRETTY_FUNCTION__.8738+0x1a>
    9d89:	48 8d 3d 5c 7d 00 00 	lea    0x7d5c(%rip),%rdi        # 11aec <__PRETTY_FUNCTION__.7538+0x2c>
    9d90:	ba 6c 01 00 00       	mov    $0x16c,%edx
    9d95:	e8 46 b6 ff ff       	callq  53e0 <__assert_fail@plt>
    9d9a:	c7 43 04 00 00 00 00 	movl   $0x0,0x4(%rbx)
    9da1:	45 31 d2             	xor    %r10d,%r10d
    9da4:	31 d2                	xor    %edx,%edx
    9da6:	be 07 00 00 00       	mov    $0x7,%esi
    9dab:	48 89 df             	mov    %rbx,%rdi
    9dae:	b8 ca 00 00 00       	mov    $0xca,%eax
    9db3:	0f 05                	syscall 
    9db5:	64 48 c7 04 25 f0 02 	movq   $0x0,%fs:0x2f0
    9dbc:	00 00 00 00 00 00 
    9dc2:	b2 83                	mov    $0x83,%dl
    9dc4:	e9 47 fa ff ff       	jmpq   9810 <__pthread_mutex_trylock+0x30>
    9dc9:	64 48 c7 04 25 f0 02 	movq   $0x0,%fs:0x2f0
    9dd0:	00 00 00 00 00 00 
    9dd6:	ba 23 00 00 00       	mov    $0x23,%edx
    9ddb:	e9 30 fa ff ff       	jmpq   9810 <__pthread_mutex_trylock+0x30>

0000000000009de0 <_L_unlock_423>:
    9de0:	48 8d 3b             	lea    (%rbx),%rdi
    9de3:	48 81 ec 80 00 00 00 	sub    $0x80,%rsp
    9dea:	e8 71 47 00 00       	callq  e560 <__lll_unlock_wake>
    9def:	48 81 c4 80 00 00 00 	add    $0x80,%rsp
    9df6:	e9 36 ff ff ff       	jmpq   9d31 <__pthread_mutex_trylock+0x551>
    9dfb:	90                   	nop
    9dfc:	90                   	nop
    9dfd:	90                   	nop
    9dfe:	90                   	nop
    9dff:	90                   	nop

0000000000009e00 <pthread_mutex_timedlock>:
    9e00:	55                   	push   %rbp
    9e01:	48 89 e5             	mov    %rsp,%rbp
    9e04:	41 57                	push   %r15
    9e06:	41 56                	push   %r14
    9e08:	41 55                	push   %r13
    9e0a:	41 54                	push   %r12
    9e0c:	53                   	push   %rbx
    9e0d:	48 89 fb             	mov    %rdi,%rbx
    9e10:	48 83 ec 68          	sub    $0x68,%rsp
    9e14:	48 89 75 98          	mov    %rsi,-0x68(%rbp)
    9e18:	64 44 8b 34 25 d0 02 	mov    %fs:0x2d0,%r14d
    9e1f:	00 00 
    9e21:	44 8b 47 10          	mov    0x10(%rdi),%r8d
    9e25:	4c 89 c0             	mov    %r8,%rax
    9e28:	83 e0 7f             	and    $0x7f,%eax
    9e2b:	48 83 f8 43          	cmp    $0x43,%rax
    9e2f:	76 27                	jbe    9e58 <pthread_mutex_timedlock+0x58>
    9e31:	41 bc 16 00 00 00    	mov    $0x16,%r12d
    9e37:	66 0f 1f 84 00 00 00 	nopw   0x0(%rax,%rax,1)
    9e3e:	00 00 
    9e40:	48 83 c4 68          	add    $0x68,%rsp
    9e44:	44 89 e0             	mov    %r12d,%eax
    9e47:	5b                   	pop    %rbx
    9e48:	41 5c                	pop    %r12
    9e4a:	41 5d                	pop    %r13
    9e4c:	41 5e                	pop    %r14
    9e4e:	41 5f                	pop    %r15
    9e50:	c9                   	leaveq 
    9e51:	c3                   	retq   
    9e52:	66 0f 1f 44 00 00    	nopw   0x0(%rax,%rax,1)
    9e58:	48 8d 15 05 7f 00 00 	lea    0x7f05(%rip),%rdx        # 11d64 <__PRETTY_FUNCTION__.7671+0x34>
    9e5f:	48 63 04 82          	movslq (%rdx,%rax,4),%rax
    9e63:	48 8d 14 10          	lea    (%rax,%rdx,1),%rdx
    9e67:	ff e2                	jmpq   *%rdx
    9e69:	0f 1f 80 00 00 00 00 	nopl   0x0(%rax)
    9e70:	44 3b 77 08          	cmp    0x8(%rdi),%r14d
    9e74:	0f 84 d6 05 00 00    	je     a450 <pthread_mutex_timedlock+0x650>
    9e7a:	44 89 c6             	mov    %r8d,%esi
    9e7d:	45 31 e4             	xor    %r12d,%r12d
    9e80:	bf 01 00 00 00       	mov    $0x1,%edi
    9e85:	81 e6 80 00 00 00    	and    $0x80,%esi
    9e8b:	44 89 e0             	mov    %r12d,%eax
    9e8e:	f0 0f b1 3b          	lock cmpxchg %edi,(%rbx)
    9e92:	0f 85 24 08 00 00    	jne    a6bc <_L_timedlock_61>
    9e98:	41 89 c4             	mov    %eax,%r12d
    9e9b:	45 85 e4             	test   %r12d,%r12d
    9e9e:	75 a0                	jne    9e40 <pthread_mutex_timedlock+0x40>
    9ea0:	44 89 73 08          	mov    %r14d,0x8(%rbx)
    9ea4:	83 43 0c 01          	addl   $0x1,0xc(%rbx)
    9ea8:	45 31 e4             	xor    %r12d,%r12d
    9eab:	eb 93                	jmp    9e40 <pthread_mutex_timedlock+0x40>
    9ead:	0f 1f 00             	nopl   (%rax)
    9eb0:	44 3b 77 08          	cmp    0x8(%rdi),%r14d
    9eb4:	8b 0f                	mov    (%rdi),%ecx
    9eb6:	0f 84 4c 04 00 00    	je     a308 <pthread_mutex_timedlock+0x508>
    9ebc:	48 8d 45 b0          	lea    -0x50(%rbp),%rax
    9ec0:	48 8d 7d a0          	lea    -0x60(%rbp),%rdi
    9ec4:	41 bd ff ff ff ff    	mov    $0xffffffff,%r13d
    9eca:	45 89 f7             	mov    %r14d,%r15d
    9ecd:	48 89 45 90          	mov    %rax,-0x70(%rbp)
    9ed1:	48 89 7d 88          	mov    %rdi,-0x78(%rbp)
    9ed5:	c1 e9 13             	shr    $0x13,%ecx
    9ed8:	89 4d 84             	mov    %ecx,-0x7c(%rbp)
    9edb:	e8 30 63 00 00       	callq  10210 <__pthread_current_priority>
    9ee0:	39 45 84             	cmp    %eax,-0x7c(%rbp)
    9ee3:	0f 8c 79 06 00 00    	jl     a562 <pthread_mutex_timedlock+0x762>
    9ee9:	8b 75 84             	mov    -0x7c(%rbp),%esi
    9eec:	44 89 ef             	mov    %r13d,%edi
    9eef:	e8 4c 64 00 00       	callq  10340 <__pthread_tpp_change_priority>
    9ef4:	85 c0                	test   %eax,%eax
    9ef6:	0f 85 44 04 00 00    	jne    a340 <pthread_mutex_timedlock+0x540>
    9efc:	44 8b 65 84          	mov    -0x7c(%rbp),%r12d
    9f00:	41 c1 e4 13          	shl    $0x13,%r12d
    9f04:	45 89 e6             	mov    %r12d,%r14d
    9f07:	44 89 e0             	mov    %r12d,%eax
    9f0a:	41 83 ce 01          	or     $0x1,%r14d
    9f0e:	f0 44 0f b1 33       	lock cmpxchg %r14d,(%rbx)
    9f13:	44 39 e0             	cmp    %r12d,%eax
    9f16:	0f 84 44 03 00 00    	je     a260 <pthread_mutex_timedlock+0x460>
    9f1c:	45 89 e5             	mov    %r12d,%r13d
    9f1f:	41 83 cd 02          	or     $0x2,%r13d
    9f23:	eb 41                	jmp    9f66 <pthread_mutex_timedlock+0x166>
    9f25:	0f 1f 00             	nopl   (%rax)
    9f28:	48 85 c0             	test   %rax,%rax
    9f2b:	0f 88 54 05 00 00    	js     a485 <pthread_mutex_timedlock+0x685>
    9f31:	8b 73 10             	mov    0x10(%rbx),%esi
    9f34:	4c 8b 55 88          	mov    -0x78(%rbp),%r10
    9f38:	44 89 ea             	mov    %r13d,%edx
    9f3b:	b8 ca 00 00 00       	mov    $0xca,%eax
    9f40:	48 89 df             	mov    %rbx,%rdi
    9f43:	f7 d6                	not    %esi
    9f45:	81 e6 80 00 00 00    	and    $0x80,%esi
    9f4b:	64 23 34 25 48 00 00 	and    %fs:0x48,%esi
    9f52:	00 
    9f53:	0f 05                	syscall 
    9f55:	44 89 e0             	mov    %r12d,%eax
    9f58:	f0 44 0f b1 2b       	lock cmpxchg %r13d,(%rbx)
    9f5d:	44 39 e0             	cmp    %r12d,%eax
    9f60:	0f 84 fa 02 00 00    	je     a260 <pthread_mutex_timedlock+0x460>
    9f66:	44 89 f0             	mov    %r14d,%eax
    9f69:	f0 44 0f b1 2b       	lock cmpxchg %r13d,(%rbx)
    9f6e:	89 c2                	mov    %eax,%edx
    9f70:	89 c1                	mov    %eax,%ecx
    9f72:	81 e2 00 00 f8 ff    	and    $0xfff80000,%edx
    9f78:	41 39 d4             	cmp    %edx,%r12d
    9f7b:	0f 85 df 04 00 00    	jne    a460 <pthread_mutex_timedlock+0x660>
    9f81:	44 39 e0             	cmp    %r12d,%eax
    9f84:	74 cf                	je     9f55 <pthread_mutex_timedlock+0x155>
    9f86:	48 8b 55 98          	mov    -0x68(%rbp),%rdx
    9f8a:	48 81 7a 08 ff c9 9a 	cmpq   $0x3b9ac9ff,0x8(%rdx)
    9f91:	3b 
    9f92:	0f 87 d1 04 00 00    	ja     a469 <pthread_mutex_timedlock+0x669>
    9f98:	48 8b 7d 90          	mov    -0x70(%rbp),%rdi
    9f9c:	31 f6                	xor    %esi,%esi
    9f9e:	48 89 95 78 ff ff ff 	mov    %rdx,-0x88(%rbp)
    9fa5:	e8 26 b4 ff ff       	callq  53d0 <__gettimeofday@plt>
    9faa:	48 8b 4d b8          	mov    -0x48(%rbp),%rcx
    9fae:	48 8b 95 78 ff ff ff 	mov    -0x88(%rbp),%rdx
    9fb5:	48 69 c9 18 fc ff ff 	imul   $0xfffffffffffffc18,%rcx,%rcx
    9fbc:	48 8b 02             	mov    (%rdx),%rax
    9fbf:	48 2b 45 b0          	sub    -0x50(%rbp),%rax
    9fc3:	48 03 4a 08          	add    0x8(%rdx),%rcx
    9fc7:	48 89 45 a0          	mov    %rax,-0x60(%rbp)
    9fcb:	48 85 c9             	test   %rcx,%rcx
    9fce:	48 89 4d a8          	mov    %rcx,-0x58(%rbp)
    9fd2:	0f 89 50 ff ff ff    	jns    9f28 <pthread_mutex_timedlock+0x128>
    9fd8:	48 81 c1 00 ca 9a 3b 	add    $0x3b9aca00,%rcx
    9fdf:	48 83 e8 01          	sub    $0x1,%rax
    9fe3:	48 89 4d a8          	mov    %rcx,-0x58(%rbp)
    9fe7:	48 89 45 a0          	mov    %rax,-0x60(%rbp)
    9feb:	e9 38 ff ff ff       	jmpq   9f28 <pthread_mutex_timedlock+0x128>
    9ff0:	44 3b 77 08          	cmp    0x8(%rdi),%r14d
    9ff4:	0f 84 26 03 00 00    	je     a320 <pthread_mutex_timedlock+0x520>
    9ffa:	44 89 c6             	mov    %r8d,%esi
    9ffd:	31 c0                	xor    %eax,%eax
    9fff:	bf 01 00 00 00       	mov    $0x1,%edi
    a004:	81 e6 80 00 00 00    	and    $0x80,%esi
    a00a:	f0 0f b1 3b          	lock cmpxchg %edi,(%rbx)
    a00e:	0f 85 c7 06 00 00    	jne    a6db <_L_timedlock_184>
    a014:	85 c0                	test   %eax,%eax
    a016:	41 89 c4             	mov    %eax,%r12d
    a019:	0f 85 21 fe ff ff    	jne    9e40 <pthread_mutex_timedlock+0x40>
    a01f:	90                   	nop
    a020:	c7 43 04 01 00 00 00 	movl   $0x1,0x4(%rbx)
    a027:	44 89 73 08          	mov    %r14d,0x8(%rbx)
    a02b:	45 31 e4             	xor    %r12d,%r12d
    a02e:	83 43 0c 01          	addl   $0x1,0xc(%rbx)
    a032:	e9 09 fe ff ff       	jmpq   9e40 <pthread_mutex_timedlock+0x40>
    a037:	66 0f 1f 84 00 00 00 	nopw   0x0(%rax,%rax,1)
    a03e:	00 00 
    a040:	8b 35 16 23 21 00    	mov    0x212316(%rip),%esi        # 21c35c <__is_smp>
    a046:	85 f6                	test   %esi,%esi
    a048:	0f 84 2c fe ff ff    	je     9e7a <pthread_mutex_timedlock+0x7a>
    a04e:	31 c0                	xor    %eax,%eax
    a050:	ba 01 00 00 00       	mov    $0x1,%edx
    a055:	f0 0f b1 17          	lock cmpxchg %edx,(%rdi)
    a059:	85 c0                	test   %eax,%eax
    a05b:	0f 84 3f fe ff ff    	je     9ea0 <pthread_mutex_timedlock+0xa0>
    a061:	8b 4f 14             	mov    0x14(%rdi),%ecx
    a064:	b8 64 00 00 00       	mov    $0x64,%eax
    a069:	8d 4c 09 0a          	lea    0xa(%rcx,%rcx,1),%ecx
    a06d:	83 f9 64             	cmp    $0x64,%ecx
    a070:	0f 4f c8             	cmovg  %eax,%ecx
    a073:	45 31 c0             	xor    %r8d,%r8d
    a076:	31 f6                	xor    %esi,%esi
    a078:	0f 1f 84 00 00 00 00 	nopl   0x0(%rax,%rax,1)
    a07f:	00 
    a080:	41 83 c0 01          	add    $0x1,%r8d
    a084:	41 8d 40 ff          	lea    -0x1(%r8),%eax
    a088:	39 c1                	cmp    %eax,%ecx
    a08a:	0f 8e ac 04 00 00    	jle    a53c <pthread_mutex_timedlock+0x73c>
    a090:	f3 90                	pause  
    a092:	89 f0                	mov    %esi,%eax
    a094:	f0 0f b1 13          	lock cmpxchg %edx,(%rbx)
    a098:	85 c0                	test   %eax,%eax
    a09a:	75 e4                	jne    a080 <pthread_mutex_timedlock+0x280>
    a09c:	45 31 e4             	xor    %r12d,%r12d
    a09f:	8b 53 14             	mov    0x14(%rbx),%edx
    a0a2:	41 29 d0             	sub    %edx,%r8d
    a0a5:	41 8d 40 07          	lea    0x7(%r8),%eax
    a0a9:	45 85 c0             	test   %r8d,%r8d
    a0ac:	41 0f 49 c0          	cmovns %r8d,%eax
    a0b0:	c1 f8 03             	sar    $0x3,%eax
    a0b3:	01 d0                	add    %edx,%eax
    a0b5:	89 43 14             	mov    %eax,0x14(%rbx)
    a0b8:	e9 de fd ff ff       	jmpq   9e9b <pthread_mutex_timedlock+0x9b>
    a0bd:	0f 1f 00             	nopl   (%rax)
    a0c0:	4c 8d 67 20          	lea    0x20(%rdi),%r12
    a0c4:	64 4c 89 24 25 f0 02 	mov    %r12,%fs:0x2f0
    a0cb:	00 00 
    a0cd:	8b 17                	mov    (%rdi),%edx
    a0cf:	45 31 c0             	xor    %r8d,%r8d
    a0d2:	41 b9 80 00 00 00    	mov    $0x80,%r9d
    a0d8:	0f 1f 84 00 00 00 00 	nopl   0x0(%rax,%rax,1)
    a0df:	00 
    a0e0:	f7 c2 00 00 00 40    	test   $0x40000000,%edx
    a0e6:	75 5a                	jne    a142 <pthread_mutex_timedlock+0x342>
    a0e8:	81 e2 ff ff ff 3f    	and    $0x3fffffff,%edx
    a0ee:	41 39 d6             	cmp    %edx,%r14d
    a0f1:	0f 84 96 03 00 00    	je     a48d <pthread_mutex_timedlock+0x68d>
    a0f7:	44 89 c0             	mov    %r8d,%eax
    a0fa:	44 89 f7             	mov    %r14d,%edi
    a0fd:	44 89 ce             	mov    %r9d,%esi
    a100:	f0 0f b1 3b          	lock cmpxchg %edi,(%rbx)
    a104:	0f 85 f0 05 00 00    	jne    a6fa <_L_robust_timedlock_264>
    a10a:	81 7b 08 fe ff ff 7f 	cmpl   $0x7ffffffe,0x8(%rbx)
    a111:	0f 84 81 04 00 00    	je     a598 <pthread_mutex_timedlock+0x798>
    a117:	83 f8 16             	cmp    $0x16,%eax
    a11a:	0f 84 20 02 00 00    	je     a340 <pthread_mutex_timedlock+0x540>
    a120:	83 f8 6e             	cmp    $0x6e,%eax
    a123:	0f 84 17 02 00 00    	je     a340 <pthread_mutex_timedlock+0x540>
    a129:	a9 00 00 00 40       	test   $0x40000000,%eax
    a12e:	66 90                	xchg   %ax,%ax
    a130:	0f 84 1a 02 00 00    	je     a350 <pthread_mutex_timedlock+0x550>
    a136:	89 c2                	mov    %eax,%edx
    a138:	f7 c2 00 00 00 40    	test   $0x40000000,%edx
    a13e:	66 90                	xchg   %ax,%ax
    a140:	74 a6                	je     a0e8 <pthread_mutex_timedlock+0x2e8>
    a142:	89 d1                	mov    %edx,%ecx
    a144:	89 d0                	mov    %edx,%eax
    a146:	81 e1 00 00 00 80    	and    $0x80000000,%ecx
    a14c:	44 09 f1             	or     %r14d,%ecx
    a14f:	f0 0f b1 0b          	lock cmpxchg %ecx,(%rbx)
    a153:	39 d0                	cmp    %edx,%eax
    a155:	89 c1                	mov    %eax,%ecx
    a157:	0f 84 6c 03 00 00    	je     a4c9 <pthread_mutex_timedlock+0x6c9>
    a15d:	89 ca                	mov    %ecx,%edx
    a15f:	e9 7c ff ff ff       	jmpq   a0e0 <pthread_mutex_timedlock+0x2e0>
    a164:	0f 1f 40 00          	nopl   0x0(%rax)
    a168:	45 89 c1             	mov    %r8d,%r9d
    a16b:	41 83 e1 03          	and    $0x3,%r9d
    a16f:	41 83 e0 10          	and    $0x10,%r8d
    a173:	74 11                	je     a186 <pthread_mutex_timedlock+0x386>
    a175:	48 8d 47 20          	lea    0x20(%rdi),%rax
    a179:	48 83 c8 01          	or     $0x1,%rax
    a17d:	64 48 89 04 25 f0 02 	mov    %rax,%fs:0x2f0
    a184:	00 00 
    a186:	8b 03                	mov    (%rbx),%eax
    a188:	25 ff ff ff 3f       	and    $0x3fffffff,%eax
    a18d:	41 39 c6             	cmp    %eax,%r14d
    a190:	0f 84 62 04 00 00    	je     a5f8 <pthread_mutex_timedlock+0x7f8>
    a196:	31 c0                	xor    %eax,%eax
    a198:	f0 44 0f b1 33       	lock cmpxchg %r14d,(%rbx)
    a19d:	85 c0                	test   %eax,%eax
    a19f:	0f 84 eb 00 00 00    	je     a290 <pthread_mutex_timedlock+0x490>
    a1a5:	45 85 c0             	test   %r8d,%r8d
    a1a8:	be 80 00 00 00       	mov    $0x80,%esi
    a1ad:	0f 84 fd 01 00 00    	je     a3b0 <pthread_mutex_timedlock+0x5b0>
    a1b3:	40 80 f6 80          	xor    $0x80,%sil
    a1b7:	4c 8b 55 98          	mov    -0x68(%rbp),%r10
    a1bb:	ba 01 00 00 00       	mov    $0x1,%edx
    a1c0:	64 23 34 25 48 00 00 	and    %fs:0x48,%esi
    a1c7:	00 
    a1c8:	48 89 df             	mov    %rbx,%rdi
    a1cb:	83 ce 06             	or     $0x6,%esi
    a1ce:	b8 ca 00 00 00       	mov    $0xca,%eax
    a1d3:	0f 05                	syscall 
    a1d5:	3d 00 f0 ff ff       	cmp    $0xfffff000,%eax
    a1da:	0f 86 de 01 00 00    	jbe    a3be <pthread_mutex_timedlock+0x5be>
    a1e0:	83 f8 92             	cmp    $0xffffff92,%eax
    a1e3:	74 6e                	je     a253 <pthread_mutex_timedlock+0x453>
    a1e5:	83 f8 fd             	cmp    $0xfffffffd,%eax
    a1e8:	0f 94 c2             	sete   %dl
    a1eb:	83 f8 dd             	cmp    $0xffffffdd,%eax
    a1ee:	0f 85 35 03 00 00    	jne    a529 <pthread_mutex_timedlock+0x729>
    a1f4:	41 83 e9 01          	sub    $0x1,%r9d
    a1f8:	41 83 f9 01          	cmp    $0x1,%r9d
    a1fc:	0f 86 7c 04 00 00    	jbe    a67e <pthread_mutex_timedlock+0x87e>
    a202:	84 d2                	test   %dl,%dl
    a204:	0f 85 4c 04 00 00    	jne    a656 <pthread_mutex_timedlock+0x856>
    a20a:	48 8d 75 a0          	lea    -0x60(%rbp),%rsi
    a20e:	31 ff                	xor    %edi,%edi
    a210:	b8 e4 00 00 00       	mov    $0xe4,%eax
    a215:	0f 05                	syscall 
    a217:	48 8b 55 98          	mov    -0x68(%rbp),%rdx
    a21b:	48 8b 02             	mov    (%rdx),%rax
    a21e:	48 8b 52 08          	mov    0x8(%rdx),%rdx
    a222:	48 2b 55 a8          	sub    -0x58(%rbp),%rdx
    a226:	48 2b 45 a0          	sub    -0x60(%rbp),%rax
    a22a:	48 85 d2             	test   %rdx,%rdx
    a22d:	48 89 45 c0          	mov    %rax,-0x40(%rbp)
    a231:	48 89 55 c8          	mov    %rdx,-0x38(%rbp)
    a235:	0f 88 45 03 00 00    	js     a580 <pthread_mutex_timedlock+0x780>
    a23b:	48 85 c0             	test   %rax,%rax
    a23e:	78 13                	js     a253 <pthread_mutex_timedlock+0x453>
    a240:	48 8d 5d c0          	lea    -0x40(%rbp),%rbx
    a244:	48 89 de             	mov    %rbx,%rsi
    a247:	48 89 df             	mov    %rbx,%rdi
    a24a:	e8 8a 4d 00 00       	callq  efd9 <__nanosleep_nocancel>
    a24f:	85 c0                	test   %eax,%eax
    a251:	75 f1                	jne    a244 <pthread_mutex_timedlock+0x444>
    a253:	41 bc 6e 00 00 00    	mov    $0x6e,%r12d
    a259:	e9 e2 fb ff ff       	jmpq   9e40 <pthread_mutex_timedlock+0x40>
    a25e:	66 90                	xchg   %ax,%ax
    a260:	8b 43 08             	mov    0x8(%rbx),%eax
    a263:	45 89 fe             	mov    %r15d,%r14d
    a266:	85 c0                	test   %eax,%eax
    a268:	0f 84 b2 fd ff ff    	je     a020 <pthread_mutex_timedlock+0x220>
    a26e:	48 8d 0d 0b 7c 00 00 	lea    0x7c0b(%rip),%rcx        # 11e80 <__PRETTY_FUNCTION__.7736>
    a275:	48 8d 35 cc 7a 00 00 	lea    0x7acc(%rip),%rsi        # 11d48 <__PRETTY_FUNCTION__.7671+0x18>
    a27c:	48 8d 3d 69 78 00 00 	lea    0x7869(%rip),%rdi        # 11aec <__PRETTY_FUNCTION__.7538+0x2c>
    a283:	ba da 01 00 00       	mov    $0x1da,%edx
    a288:	e8 53 b1 ff ff       	callq  53e0 <__assert_fail@plt>
    a28d:	0f 1f 00             	nopl   (%rax)
    a290:	45 85 c0             	test   %r8d,%r8d
    a293:	0f 84 87 fd ff ff    	je     a020 <pthread_mutex_timedlock+0x220>
    a299:	81 7b 08 fe ff ff 7f 	cmpl   $0x7ffffffe,0x8(%rbx)
    a2a0:	0f 84 1f 03 00 00    	je     a5c5 <pthread_mutex_timedlock+0x7c5>
    a2a6:	c7 43 04 01 00 00 00 	movl   $0x1,0x4(%rbx)
    a2ad:	64 48 8b 04 25 e0 02 	mov    %fs:0x2e0,%rax
    a2b4:	00 00 
    a2b6:	48 8d 53 20          	lea    0x20(%rbx),%rdx
    a2ba:	48 83 e0 fe          	and    $0xfffffffffffffffe,%rax
    a2be:	48 89 50 f8          	mov    %rdx,-0x8(%rax)
    a2c2:	64 48 8b 04 25 e0 02 	mov    %fs:0x2e0,%rax
    a2c9:	00 00 
    a2cb:	48 89 43 20          	mov    %rax,0x20(%rbx)
    a2cf:	48 83 ca 01          	or     $0x1,%rdx
    a2d3:	64 48 8b 04 25 10 00 	mov    %fs:0x10,%rax
    a2da:	00 00 
    a2dc:	48 05 e0 02 00 00    	add    $0x2e0,%rax
    a2e2:	48 89 43 18          	mov    %rax,0x18(%rbx)
    a2e6:	64 48 89 14 25 e0 02 	mov    %rdx,%fs:0x2e0
    a2ed:	00 00 
    a2ef:	64 48 c7 04 25 f0 02 	movq   $0x0,%fs:0x2f0
    a2f6:	00 00 00 00 00 00 
    a2fc:	e9 9f fb ff ff       	jmpq   9ea0 <pthread_mutex_timedlock+0xa0>
    a301:	0f 1f 80 00 00 00 00 	nopl   0x0(%rax)
    a308:	41 83 e0 03          	and    $0x3,%r8d
    a30c:	41 83 f8 02          	cmp    $0x2,%r8d
    a310:	0f 84 3a 01 00 00    	je     a450 <pthread_mutex_timedlock+0x650>
    a316:	41 83 f8 01          	cmp    $0x1,%r8d
    a31a:	0f 85 9c fb ff ff    	jne    9ebc <pthread_mutex_timedlock+0xbc>
    a320:	8b 43 04             	mov    0x4(%rbx),%eax
    a323:	83 f8 ff             	cmp    $0xffffffff,%eax
    a326:	0f 84 92 01 00 00    	je     a4be <pthread_mutex_timedlock+0x6be>
    a32c:	83 c0 01             	add    $0x1,%eax
    a32f:	45 31 e4             	xor    %r12d,%r12d
    a332:	89 43 04             	mov    %eax,0x4(%rbx)
    a335:	e9 06 fb ff ff       	jmpq   9e40 <pthread_mutex_timedlock+0x40>
    a33a:	66 0f 1f 44 00 00    	nopw   0x0(%rax,%rax,1)
    a340:	41 89 c4             	mov    %eax,%r12d
    a343:	e9 f8 fa ff ff       	jmpq   9e40 <pthread_mutex_timedlock+0x40>
    a348:	0f 1f 84 00 00 00 00 	nopl   0x0(%rax,%rax,1)
    a34f:	00 
    a350:	c7 43 04 01 00 00 00 	movl   $0x1,0x4(%rbx)
    a357:	64 48 8b 14 25 e0 02 	mov    %fs:0x2e0,%rdx
    a35e:	00 00 
    a360:	48 83 e2 fe          	and    $0xfffffffffffffffe,%rdx
    a364:	4c 89 62 f8          	mov    %r12,-0x8(%rdx)
    a368:	64 48 8b 14 25 e0 02 	mov    %fs:0x2e0,%rdx
    a36f:	00 00 
    a371:	48 89 53 20          	mov    %rdx,0x20(%rbx)
    a375:	64 48 8b 14 25 10 00 	mov    %fs:0x10,%rdx
    a37c:	00 00 
    a37e:	48 81 c2 e0 02 00 00 	add    $0x2e0,%rdx
    a385:	48 89 53 18          	mov    %rdx,0x18(%rbx)
    a389:	64 4c 89 24 25 e0 02 	mov    %r12,%fs:0x2e0
    a390:	00 00 
    a392:	64 48 c7 04 25 f0 02 	movq   $0x0,%fs:0x2f0
    a399:	00 00 00 00 00 00 
    a39f:	41 89 c4             	mov    %eax,%r12d
    a3a2:	e9 f4 fa ff ff       	jmpq   9e9b <pthread_mutex_timedlock+0x9b>
    a3a7:	66 0f 1f 84 00 00 00 	nopw   0x0(%rax,%rax,1)
    a3ae:	00 00 
    a3b0:	8b 73 10             	mov    0x10(%rbx),%esi
    a3b3:	81 e6 80 00 00 00    	and    $0x80,%esi
    a3b9:	e9 f5 fd ff ff       	jmpq   a1b3 <pthread_mutex_timedlock+0x3b3>
    a3be:	45 85 c0             	test   %r8d,%r8d
    a3c1:	8b 03                	mov    (%rbx),%eax
    a3c3:	75 0b                	jne    a3d0 <pthread_mutex_timedlock+0x5d0>
    a3c5:	a9 00 00 00 40       	test   $0x40000000,%eax
    a3ca:	0f 85 cd 02 00 00    	jne    a69d <pthread_mutex_timedlock+0x89d>
    a3d0:	a9 00 00 00 40       	test   $0x40000000,%eax
    a3d5:	0f 84 b5 fe ff ff    	je     a290 <pthread_mutex_timedlock+0x490>
    a3db:	f0 81 23 ff ff ff bf 	lock andl $0xbfffffff,(%rbx)
    a3e2:	c7 43 04 01 00 00 00 	movl   $0x1,0x4(%rbx)
    a3e9:	c7 43 08 ff ff ff 7f 	movl   $0x7fffffff,0x8(%rbx)
    a3f0:	64 48 8b 04 25 e0 02 	mov    %fs:0x2e0,%rax
    a3f7:	00 00 
    a3f9:	48 8d 53 20          	lea    0x20(%rbx),%rdx
    a3fd:	48 83 e0 fe          	and    $0xfffffffffffffffe,%rax
    a401:	48 89 50 f8          	mov    %rdx,-0x8(%rax)
    a405:	64 48 8b 04 25 e0 02 	mov    %fs:0x2e0,%rax
    a40c:	00 00 
    a40e:	48 89 43 20          	mov    %rax,0x20(%rbx)
    a412:	48 83 ca 01          	or     $0x1,%rdx
    a416:	64 48 8b 04 25 10 00 	mov    %fs:0x10,%rax
    a41d:	00 00 
    a41f:	48 05 e0 02 00 00    	add    $0x2e0,%rax
    a425:	48 89 43 18          	mov    %rax,0x18(%rbx)
    a429:	64 48 89 14 25 e0 02 	mov    %rdx,%fs:0x2e0
    a430:	00 00 
    a432:	64 48 c7 04 25 f0 02 	movq   $0x0,%fs:0x2f0
    a439:	00 00 00 00 00 00 
    a43f:	41 bc 82 00 00 00    	mov    $0x82,%r12d
    a445:	e9 f6 f9 ff ff       	jmpq   9e40 <pthread_mutex_timedlock+0x40>
    a44a:	66 0f 1f 44 00 00    	nopw   0x0(%rax,%rax,1)
    a450:	41 bc 23 00 00 00    	mov    $0x23,%r12d
    a456:	e9 e5 f9 ff ff       	jmpq   9e40 <pthread_mutex_timedlock+0x40>
    a45b:	0f 1f 44 00 00       	nopl   0x0(%rax,%rax,1)
    a460:	44 8b 6d 84          	mov    -0x7c(%rbp),%r13d
    a464:	e9 6c fa ff ff       	jmpq   9ed5 <pthread_mutex_timedlock+0xd5>
    a469:	41 bc 16 00 00 00    	mov    $0x16,%r12d
    a46f:	44 8b 6d 84          	mov    -0x7c(%rbp),%r13d
    a473:	be ff ff ff ff       	mov    $0xffffffff,%esi
    a478:	44 89 ef             	mov    %r13d,%edi
    a47b:	e8 c0 5e 00 00       	callq  10340 <__pthread_tpp_change_priority>
    a480:	e9 bb f9 ff ff       	jmpq   9e40 <pthread_mutex_timedlock+0x40>
    a485:	41 bc 6e 00 00 00    	mov    $0x6e,%r12d
    a48b:	eb e2                	jmp    a46f <pthread_mutex_timedlock+0x66f>
    a48d:	8b 43 10             	mov    0x10(%rbx),%eax
    a490:	83 e0 7f             	and    $0x7f,%eax
    a493:	83 f8 12             	cmp    $0x12,%eax
    a496:	0f 84 8a 01 00 00    	je     a626 <pthread_mutex_timedlock+0x826>
    a49c:	83 f8 11             	cmp    $0x11,%eax
    a49f:	0f 85 52 fc ff ff    	jne    a0f7 <pthread_mutex_timedlock+0x2f7>
    a4a5:	64 48 c7 04 25 f0 02 	movq   $0x0,%fs:0x2f0
    a4ac:	00 00 00 00 00 00 
    a4b2:	8b 43 04             	mov    0x4(%rbx),%eax
    a4b5:	83 f8 ff             	cmp    $0xffffffff,%eax
    a4b8:	0f 85 6e fe ff ff    	jne    a32c <pthread_mutex_timedlock+0x52c>
    a4be:	41 bc 0b 00 00 00    	mov    $0xb,%r12d
    a4c4:	e9 77 f9 ff ff       	jmpq   9e40 <pthread_mutex_timedlock+0x40>
    a4c9:	c7 43 04 01 00 00 00 	movl   $0x1,0x4(%rbx)
    a4d0:	c7 43 08 ff ff ff 7f 	movl   $0x7fffffff,0x8(%rbx)
    a4d7:	64 48 8b 04 25 e0 02 	mov    %fs:0x2e0,%rax
    a4de:	00 00 
    a4e0:	48 83 e0 fe          	and    $0xfffffffffffffffe,%rax
    a4e4:	4c 89 60 f8          	mov    %r12,-0x8(%rax)
    a4e8:	64 48 8b 04 25 e0 02 	mov    %fs:0x2e0,%rax
    a4ef:	00 00 
    a4f1:	48 89 43 20          	mov    %rax,0x20(%rbx)
    a4f5:	64 48 8b 04 25 10 00 	mov    %fs:0x10,%rax
    a4fc:	00 00 
    a4fe:	48 05 e0 02 00 00    	add    $0x2e0,%rax
    a504:	48 89 43 18          	mov    %rax,0x18(%rbx)
    a508:	64 4c 89 24 25 e0 02 	mov    %r12,%fs:0x2e0
    a50f:	00 00 
    a511:	64 48 c7 04 25 f0 02 	movq   $0x0,%fs:0x2f0
    a518:	00 00 00 00 00 00 
    a51e:	41 bc 82 00 00 00    	mov    $0x82,%r12d
    a524:	e9 17 f9 ff ff       	jmpq   9e40 <pthread_mutex_timedlock+0x40>
    a529:	84 d2                	test   %dl,%dl
    a52b:	0f 85 d1 fc ff ff    	jne    a202 <pthread_mutex_timedlock+0x402>
    a531:	41 89 c4             	mov    %eax,%r12d
    a534:	41 f7 dc             	neg    %r12d
    a537:	e9 04 f9 ff ff       	jmpq   9e40 <pthread_mutex_timedlock+0x40>
    a53c:	8b 73 10             	mov    0x10(%rbx),%esi
    a53f:	45 31 e4             	xor    %r12d,%r12d
    a542:	bf 01 00 00 00       	mov    $0x1,%edi
    a547:	44 89 e0             	mov    %r12d,%eax
    a54a:	81 e6 80 00 00 00    	and    $0x80,%esi
    a550:	f0 0f b1 3b          	lock cmpxchg %edi,(%rbx)
    a554:	0f 85 bf 01 00 00    	jne    a719 <_L_timedlock_590>
    a55a:	41 89 c4             	mov    %eax,%r12d
    a55d:	e9 3d fb ff ff       	jmpq   a09f <pthread_mutex_timedlock+0x29f>
    a562:	41 83 fd ff          	cmp    $0xffffffff,%r13d
    a566:	0f 84 c5 f8 ff ff    	je     9e31 <pthread_mutex_timedlock+0x31>
    a56c:	41 bc 16 00 00 00    	mov    $0x16,%r12d
    a572:	e9 fc fe ff ff       	jmpq   a473 <pthread_mutex_timedlock+0x673>
    a577:	66 0f 1f 84 00 00 00 	nopw   0x0(%rax,%rax,1)
    a57e:	00 00 
    a580:	48 81 c2 00 ca 9a 3b 	add    $0x3b9aca00,%rdx
    a587:	48 83 e8 01          	sub    $0x1,%rax
    a58b:	48 89 55 c8          	mov    %rdx,-0x38(%rbp)
    a58f:	48 89 45 c0          	mov    %rax,-0x40(%rbp)
    a593:	e9 a3 fc ff ff       	jmpq   a23b <pthread_mutex_timedlock+0x43b>
    a598:	c7 43 04 00 00 00 00 	movl   $0x0,0x4(%rbx)
    a59f:	be 80 00 00 00       	mov    $0x80,%esi
    a5a4:	f0 ff 0b             	lock decl (%rbx)
    a5a7:	0f 85 8b 01 00 00    	jne    a738 <_L_unlock_615>
    a5ad:	64 48 c7 04 25 f0 02 	movq   $0x0,%fs:0x2f0
    a5b4:	00 00 00 00 00 00 
    a5ba:	41 bc 83 00 00 00    	mov    $0x83,%r12d
    a5c0:	e9 7b f8 ff ff       	jmpq   9e40 <pthread_mutex_timedlock+0x40>
    a5c5:	c7 43 04 00 00 00 00 	movl   $0x0,0x4(%rbx)
    a5cc:	45 31 d2             	xor    %r10d,%r10d
    a5cf:	31 d2                	xor    %edx,%edx
    a5d1:	be 07 00 00 00       	mov    $0x7,%esi
    a5d6:	48 89 df             	mov    %rbx,%rdi
    a5d9:	b8 ca 00 00 00       	mov    $0xca,%eax
    a5de:	0f 05                	syscall 
    a5e0:	64 48 c7 04 25 f0 02 	movq   $0x0,%fs:0x2f0
    a5e7:	00 00 00 00 00 00 
    a5ed:	41 bc 83 00 00 00    	mov    $0x83,%r12d
    a5f3:	e9 48 f8 ff ff       	jmpq   9e40 <pthread_mutex_timedlock+0x40>
    a5f8:	41 83 f9 02          	cmp    $0x2,%r9d
    a5fc:	74 40                	je     a63e <pthread_mutex_timedlock+0x83e>
    a5fe:	41 83 f9 01          	cmp    $0x1,%r9d
    a602:	0f 85 8e fb ff ff    	jne    a196 <pthread_mutex_timedlock+0x396>
    a608:	64 48 c7 04 25 f0 02 	movq   $0x0,%fs:0x2f0
    a60f:	00 00 00 00 00 00 
    a615:	8b 43 04             	mov    0x4(%rbx),%eax
    a618:	83 f8 ff             	cmp    $0xffffffff,%eax
    a61b:	0f 85 0b fd ff ff    	jne    a32c <pthread_mutex_timedlock+0x52c>
    a621:	e9 98 fe ff ff       	jmpq   a4be <pthread_mutex_timedlock+0x6be>
    a626:	64 48 c7 04 25 f0 02 	movq   $0x0,%fs:0x2f0
    a62d:	00 00 00 00 00 00 
    a633:	41 bc 23 00 00 00    	mov    $0x23,%r12d
    a639:	e9 02 f8 ff ff       	jmpq   9e40 <pthread_mutex_timedlock+0x40>
    a63e:	64 48 c7 04 25 f0 02 	movq   $0x0,%fs:0x2f0
    a645:	00 00 00 00 00 00 
    a64b:	41 bc 23 00 00 00    	mov    $0x23,%r12d
    a651:	e9 ea f7 ff ff       	jmpq   9e40 <pthread_mutex_timedlock+0x40>
    a656:	45 85 c0             	test   %r8d,%r8d
    a659:	0f 84 ab fb ff ff    	je     a20a <pthread_mutex_timedlock+0x40a>
    a65f:	48 8d 0d 1a 78 00 00 	lea    0x781a(%rip),%rcx        # 11e80 <__PRETTY_FUNCTION__.7736>
    a666:	48 8d 35 db 76 00 00 	lea    0x76db(%rip),%rsi        # 11d48 <__PRETTY_FUNCTION__.7671+0x18>
    a66d:	48 8d 3d 61 74 00 00 	lea    0x7461(%rip),%rdi        # 11ad5 <__PRETTY_FUNCTION__.7538+0x15>
    a674:	ba 1f 01 00 00       	mov    $0x11f,%edx
    a679:	e8 62 ad ff ff       	callq  53e0 <__assert_fail@plt>
    a67e:	48 8d 0d fb 77 00 00 	lea    0x77fb(%rip),%rcx        # 11e80 <__PRETTY_FUNCTION__.7736>
    a685:	48 8d 35 bc 76 00 00 	lea    0x76bc(%rip),%rsi        # 11d48 <__PRETTY_FUNCTION__.7671+0x18>
    a68c:	48 8d 3d 75 74 00 00 	lea    0x7475(%rip),%rdi        # 11b08 <__PRETTY_FUNCTION__.7538+0x48>
    a693:	ba 1b 01 00 00       	mov    $0x11b,%edx
    a698:	e8 43 ad ff ff       	callq  53e0 <__assert_fail@plt>
    a69d:	48 8d 0d dc 77 00 00 	lea    0x77dc(%rip),%rcx        # 11e80 <__PRETTY_FUNCTION__.7736>
    a6a4:	48 8d 35 9d 76 00 00 	lea    0x769d(%rip),%rsi        # 11d48 <__PRETTY_FUNCTION__.7671+0x18>
    a6ab:	48 8d 3d b6 74 00 00 	lea    0x74b6(%rip),%rdi        # 11b68 <__PRETTY_FUNCTION__.7538+0xa8>
    a6b2:	ba 3b 01 00 00       	mov    $0x13b,%edx
    a6b7:	e8 24 ad ff ff       	callq  53e0 <__assert_fail@plt>

000000000000a6bc <_L_timedlock_61>:
    a6bc:	48 8d 3b             	lea    (%rbx),%rdi
    a6bf:	48 8b 55 98          	mov    -0x68(%rbp),%rdx
    a6c3:	48 81 ec 80 00 00 00 	sub    $0x80,%rsp
    a6ca:	e8 31 3d 00 00       	callq  e400 <__lll_timedlock_wait>
    a6cf:	48 81 c4 80 00 00 00 	add    $0x80,%rsp
    a6d6:	e9 bd f7 ff ff       	jmpq   9e98 <pthread_mutex_timedlock+0x98>

000000000000a6db <_L_timedlock_184>:
    a6db:	48 8d 3b             	lea    (%rbx),%rdi
    a6de:	48 8b 55 98          	mov    -0x68(%rbp),%rdx
    a6e2:	48 81 ec 80 00 00 00 	sub    $0x80,%rsp
    a6e9:	e8 12 3d 00 00       	callq  e400 <__lll_timedlock_wait>
    a6ee:	48 81 c4 80 00 00 00 	add    $0x80,%rsp
    a6f5:	e9 1a f9 ff ff       	jmpq   a014 <pthread_mutex_timedlock+0x214>

000000000000a6fa <_L_robust_timedlock_264>:
    a6fa:	48 8d 3b             	lea    (%rbx),%rdi
    a6fd:	48 8b 55 98          	mov    -0x68(%rbp),%rdx
    a701:	48 81 ec 80 00 00 00 	sub    $0x80,%rsp
    a708:	e8 73 3f 00 00       	callq  e680 <__lll_robust_timedlock_wait>
    a70d:	48 81 c4 80 00 00 00 	add    $0x80,%rsp
    a714:	e9 f1 f9 ff ff       	jmpq   a10a <pthread_mutex_timedlock+0x30a>

000000000000a719 <_L_timedlock_590>:
    a719:	48 8d 3b             	lea    (%rbx),%rdi
    a71c:	48 8b 55 98          	mov    -0x68(%rbp),%rdx
    a720:	48 81 ec 80 00 00 00 	sub    $0x80,%rsp
    a727:	e8 d4 3c 00 00       	callq  e400 <__lll_timedlock_wait>
    a72c:	48 81 c4 80 00 00 00 	add    $0x80,%rsp
    a733:	e9 22 fe ff ff       	jmpq   a55a <pthread_mutex_timedlock+0x75a>

000000000000a738 <_L_unlock_615>:
    a738:	48 8d 3b             	lea    (%rbx),%rdi
    a73b:	48 81 ec 80 00 00 00 	sub    $0x80,%rsp
    a742:	e8 19 3e 00 00       	callq  e560 <__lll_unlock_wake>
    a747:	48 81 c4 80 00 00 00 	add    $0x80,%rsp
    a74e:	e9 5a fe ff ff       	jmpq   a5ad <pthread_mutex_timedlock+0x7ad>
    a753:	90                   	nop
    a754:	90                   	nop
    a755:	90                   	nop
    a756:	90                   	nop
    a757:	90                   	nop
    a758:	90                   	nop
    a759:	90                   	nop
    a75a:	90                   	nop
    a75b:	90                   	nop
    a75c:	90                   	nop
    a75d:	90                   	nop
    a75e:	90                   	nop
    a75f:	90                   	nop

000000000000a760 <__pthread_mutex_unlock_full>:
    a760:	55                   	push   %rbp
    a761:	8b 57 10             	mov    0x10(%rdi),%edx
    a764:	49 89 f8             	mov    %rdi,%r8
    a767:	48 89 e5             	mov    %rsp,%rbp
    a76a:	89 d0                	mov    %edx,%eax
    a76c:	83 e0 7f             	and    $0x7f,%eax
    a76f:	83 e8 10             	sub    $0x10,%eax
    a772:	83 f8 33             	cmp    $0x33,%eax
    a775:	76 09                	jbe    a780 <__pthread_mutex_unlock_full+0x20>
    a777:	b8 16 00 00 00       	mov    $0x16,%eax
    a77c:	c9                   	leaveq 
    a77d:	c3                   	retq   
    a77e:	66 90                	xchg   %ax,%ax
    a780:	48 8d 0d 11 77 00 00 	lea    0x7711(%rip),%rcx        # 11e98 <__PRETTY_FUNCTION__.7736+0x18>
    a787:	89 c0                	mov    %eax,%eax
    a789:	48 63 04 81          	movslq (%rcx,%rax,4),%rax
    a78d:	48 8d 0c 08          	lea    (%rax,%rcx,1),%rcx
    a791:	ff e1                	jmpq   *%rcx
    a793:	0f 1f 44 00 00       	nopl   0x0(%rax,%rax,1)
    a798:	64 8b 04 25 d0 02 00 	mov    %fs:0x2d0,%eax
    a79f:	00 
    a7a0:	39 47 08             	cmp    %eax,0x8(%rdi)
    a7a3:	0f 84 e7 02 00 00    	je     aa90 <__pthread_mutex_unlock_full+0x330>
    a7a9:	0f 1f 80 00 00 00 00 	nopl   0x0(%rax)
    a7b0:	b8 01 00 00 00       	mov    $0x1,%eax
    a7b5:	c9                   	leaveq 
    a7b6:	c3                   	retq   
    a7b7:	66 0f 1f 84 00 00 00 	nopw   0x0(%rax,%rax,1)
    a7be:	00 00 
    a7c0:	8b 07                	mov    (%rdi),%eax
    a7c2:	64 8b 14 25 d0 02 00 	mov    %fs:0x2d0,%edx
    a7c9:	00 
    a7ca:	89 c1                	mov    %eax,%ecx
    a7cc:	81 e1 ff ff ff 3f    	and    $0x3fffffff,%ecx
    a7d2:	39 d1                	cmp    %edx,%ecx
    a7d4:	75 da                	jne    a7b0 <__pthread_mutex_unlock_full+0x50>
    a7d6:	85 c0                	test   %eax,%eax
    a7d8:	74 d6                	je     a7b0 <__pthread_mutex_unlock_full+0x50>
    a7da:	81 7f 08 ff ff ff 7f 	cmpl   $0x7fffffff,0x8(%rdi)
    a7e1:	0f 84 dc 02 00 00    	je     aac3 <__pthread_mutex_unlock_full+0x363>
    a7e7:	31 c9                	xor    %ecx,%ecx
    a7e9:	49 8d 40 20          	lea    0x20(%r8),%rax
    a7ed:	64 48 89 04 25 f0 02 	mov    %rax,%fs:0x2f0
    a7f4:	00 00 
    a7f6:	49 8b 50 20          	mov    0x20(%r8),%rdx
    a7fa:	49 8b 78 18          	mov    0x18(%r8),%rdi
    a7fe:	48 89 d0             	mov    %rdx,%rax
    a801:	48 83 e0 fe          	and    $0xfffffffffffffffe,%rax
    a805:	48 89 78 f8          	mov    %rdi,-0x8(%rax)
    a809:	49 8b 40 18          	mov    0x18(%r8),%rax
    a80d:	49 c7 40 18 00 00 00 	movq   $0x0,0x18(%r8)
    a814:	00 
    a815:	48 83 e0 fe          	and    $0xfffffffffffffffe,%rax
    a819:	85 f6                	test   %esi,%esi
    a81b:	48 89 10             	mov    %rdx,(%rax)
    a81e:	49 c7 40 20 00 00 00 	movq   $0x0,0x20(%r8)
    a825:	00 
    a826:	41 89 48 08          	mov    %ecx,0x8(%r8)
    a82a:	74 05                	je     a831 <__pthread_mutex_unlock_full+0xd1>
    a82c:	41 83 68 0c 01       	subl   $0x1,0xc(%r8)
    a831:	be 80 00 00 00       	mov    $0x80,%esi
    a836:	f0 41 81 20 00 00 00 	lock andl $0x80000000,(%r8)
    a83d:	80 
    a83e:	0f 85 9b 03 00 00    	jne    abdf <_L_robust_unlock_84>
    a844:	64 48 c7 04 25 f0 02 	movq   $0x0,%fs:0x2f0
    a84b:	00 00 00 00 00 00 
    a851:	31 c0                	xor    %eax,%eax
    a853:	c9                   	leaveq 
    a854:	c3                   	retq   
    a855:	0f 1f 00             	nopl   (%rax)
    a858:	64 8b 14 25 d0 02 00 	mov    %fs:0x2d0,%edx
    a85f:	00 
    a860:	8b 07                	mov    (%rdi),%eax
    a862:	25 ff ff ff 3f       	and    $0x3fffffff,%eax
    a867:	39 d0                	cmp    %edx,%eax
    a869:	0f 84 39 02 00 00    	je     aaa8 <__pthread_mutex_unlock_full+0x348>
    a86f:	8b 47 08             	mov    0x8(%rdi),%eax
    a872:	64 8b 14 25 d0 02 00 	mov    %fs:0x2d0,%edx
    a879:	00 
    a87a:	39 c2                	cmp    %eax,%edx
    a87c:	0f 85 2e ff ff ff    	jne    a7b0 <__pthread_mutex_unlock_full+0x50>
    a882:	41 8b 40 04          	mov    0x4(%r8),%eax
    a886:	83 e8 01             	sub    $0x1,%eax
    a889:	85 c0                	test   %eax,%eax
    a88b:	41 89 40 04          	mov    %eax,0x4(%r8)
    a88f:	0f 84 52 ff ff ff    	je     a7e7 <__pthread_mutex_unlock_full+0x87>
    a895:	31 c0                	xor    %eax,%eax
    a897:	c9                   	leaveq 
    a898:	c3                   	retq   
    a899:	0f 1f 80 00 00 00 00 	nopl   0x0(%rax)
    a8a0:	8b 07                	mov    (%rdi),%eax
    a8a2:	64 8b 0c 25 d0 02 00 	mov    %fs:0x2d0,%ecx
    a8a9:	00 
    a8aa:	89 c7                	mov    %eax,%edi
    a8ac:	81 e7 ff ff ff 3f    	and    $0x3fffffff,%edi
    a8b2:	39 cf                	cmp    %ecx,%edi
    a8b4:	0f 85 f6 fe ff ff    	jne    a7b0 <__pthread_mutex_unlock_full+0x50>
    a8ba:	85 c0                	test   %eax,%eax
    a8bc:	0f 84 ee fe ff ff    	je     a7b0 <__pthread_mutex_unlock_full+0x50>
    a8c2:	83 e2 10             	and    $0x10,%edx
    a8c5:	74 37                	je     a8fe <__pthread_mutex_unlock_full+0x19e>
    a8c7:	41 81 78 08 ff ff ff 	cmpl   $0x7fffffff,0x8(%r8)
    a8ce:	7f 
    a8cf:	b8 fe ff ff 7f       	mov    $0x7ffffffe,%eax
    a8d4:	ba 00 00 00 00       	mov    $0x0,%edx
    a8d9:	0f 45 c2             	cmovne %edx,%eax
    a8dc:	eb 69                	jmp    a947 <__pthread_mutex_unlock_full+0x1e7>
    a8de:	66 90                	xchg   %ax,%ax
    a8e0:	64 8b 04 25 d0 02 00 	mov    %fs:0x2d0,%eax
    a8e7:	00 
    a8e8:	39 47 08             	cmp    %eax,0x8(%rdi)
    a8eb:	0f 85 bf fe ff ff    	jne    a7b0 <__pthread_mutex_unlock_full+0x50>
    a8f1:	8b 47 04             	mov    0x4(%rdi),%eax
    a8f4:	83 e8 01             	sub    $0x1,%eax
    a8f7:	85 c0                	test   %eax,%eax
    a8f9:	89 47 04             	mov    %eax,0x4(%rdi)
    a8fc:	75 97                	jne    a895 <__pthread_mutex_unlock_full+0x135>
    a8fe:	31 c0                	xor    %eax,%eax
    a900:	e9 81 00 00 00       	jmpq   a986 <__pthread_mutex_unlock_full+0x226>
    a905:	0f 1f 00             	nopl   (%rax)
    a908:	64 8b 0c 25 d0 02 00 	mov    %fs:0x2d0,%ecx
    a90f:	00 
    a910:	8b 07                	mov    (%rdi),%eax
    a912:	25 ff ff ff 3f       	and    $0x3fffffff,%eax
    a917:	39 c8                	cmp    %ecx,%eax
    a919:	0f 84 b1 01 00 00    	je     aad0 <__pthread_mutex_unlock_full+0x370>
    a91f:	8b 47 08             	mov    0x8(%rdi),%eax
    a922:	64 8b 14 25 d0 02 00 	mov    %fs:0x2d0,%edx
    a929:	00 
    a92a:	39 c2                	cmp    %eax,%edx
    a92c:	0f 85 7e fe ff ff    	jne    a7b0 <__pthread_mutex_unlock_full+0x50>
    a932:	41 8b 50 04          	mov    0x4(%r8),%edx
    a936:	31 c0                	xor    %eax,%eax
    a938:	83 ea 01             	sub    $0x1,%edx
    a93b:	85 d2                	test   %edx,%edx
    a93d:	41 89 50 04          	mov    %edx,0x4(%r8)
    a941:	0f 85 4e ff ff ff    	jne    a895 <__pthread_mutex_unlock_full+0x135>
    a947:	49 8d 50 20          	lea    0x20(%r8),%rdx
    a94b:	48 83 ca 01          	or     $0x1,%rdx
    a94f:	64 48 89 14 25 f0 02 	mov    %rdx,%fs:0x2f0
    a956:	00 00 
    a958:	49 8b 48 20          	mov    0x20(%r8),%rcx
    a95c:	49 8b 78 18          	mov    0x18(%r8),%rdi
    a960:	48 89 ca             	mov    %rcx,%rdx
    a963:	48 83 e2 fe          	and    $0xfffffffffffffffe,%rdx
    a967:	48 89 7a f8          	mov    %rdi,-0x8(%rdx)
    a96b:	49 8b 50 18          	mov    0x18(%r8),%rdx
    a96f:	49 c7 40 18 00 00 00 	movq   $0x0,0x18(%r8)
    a976:	00 
    a977:	48 83 e2 fe          	and    $0xfffffffffffffffe,%rdx
    a97b:	48 89 0a             	mov    %rcx,(%rdx)
    a97e:	49 c7 40 20 00 00 00 	movq   $0x0,0x20(%r8)
    a985:	00 
    a986:	85 f6                	test   %esi,%esi
    a988:	41 89 40 08          	mov    %eax,0x8(%r8)
    a98c:	74 05                	je     a993 <__pthread_mutex_unlock_full+0x233>
    a98e:	41 83 68 0c 01       	subl   $0x1,0xc(%r8)
    a993:	41 8b 00             	mov    (%r8),%eax
    a996:	85 c0                	test   %eax,%eax
    a998:	78 11                	js     a9ab <__pthread_mutex_unlock_full+0x24b>
    a99a:	64 8b 04 25 d0 02 00 	mov    %fs:0x2d0,%eax
    a9a1:	00 
    a9a2:	31 d2                	xor    %edx,%edx
    a9a4:	f0 41 0f b1 10       	lock cmpxchg %edx,(%r8)
    a9a9:	74 2f                	je     a9da <__pthread_mutex_unlock_full+0x27a>
    a9ab:	41 8b 40 10          	mov    0x10(%r8),%eax
    a9af:	be 80 00 00 00       	mov    $0x80,%esi
    a9b4:	4c 89 c7             	mov    %r8,%rdi
    a9b7:	89 c2                	mov    %eax,%edx
    a9b9:	81 e2 80 00 00 00    	and    $0x80,%edx
    a9bf:	a8 10                	test   $0x10,%al
    a9c1:	b8 ca 00 00 00       	mov    $0xca,%eax
    a9c6:	0f 44 f2             	cmove  %edx,%esi
    a9c9:	40 80 f6 80          	xor    $0x80,%sil
    a9cd:	64 23 34 25 48 00 00 	and    %fs:0x48,%esi
    a9d4:	00 
    a9d5:	83 ce 07             	or     $0x7,%esi
    a9d8:	0f 05                	syscall 
    a9da:	64 48 c7 04 25 f0 02 	movq   $0x0,%fs:0x2f0
    a9e1:	00 00 00 00 00 00 
    a9e7:	31 c0                	xor    %eax,%eax
    a9e9:	c9                   	leaveq 
    a9ea:	c3                   	retq   
    a9eb:	0f 1f 44 00 00       	nopl   0x0(%rax,%rax,1)
    a9f0:	64 8b 04 25 d0 02 00 	mov    %fs:0x2d0,%eax
    a9f7:	00 
    a9f8:	39 47 08             	cmp    %eax,0x8(%rdi)
    a9fb:	0f 85 af fd ff ff    	jne    a7b0 <__pthread_mutex_unlock_full+0x50>
    aa01:	8b 47 04             	mov    0x4(%rdi),%eax
    aa04:	83 e8 01             	sub    $0x1,%eax
    aa07:	85 c0                	test   %eax,%eax
    aa09:	89 47 04             	mov    %eax,0x4(%rdi)
    aa0c:	0f 85 83 fe ff ff    	jne    a895 <__pthread_mutex_unlock_full+0x135>
    aa12:	41 8b 10             	mov    (%r8),%edx
    aa15:	85 f6                	test   %esi,%esi
    aa17:	41 c7 40 08 00 00 00 	movl   $0x0,0x8(%r8)
    aa1e:	00 
    aa1f:	74 12                	je     aa33 <__pthread_mutex_unlock_full+0x2d3>
    aa21:	41 83 68 0c 01       	subl   $0x1,0xc(%r8)
    aa26:	eb 0b                	jmp    aa33 <__pthread_mutex_unlock_full+0x2d3>
    aa28:	0f 1f 84 00 00 00 00 	nopl   0x0(%rax,%rax,1)
    aa2f:	00 
    aa30:	41 8b 10             	mov    (%r8),%edx
    aa33:	41 89 d1             	mov    %edx,%r9d
    aa36:	89 d0                	mov    %edx,%eax
    aa38:	41 81 e1 00 00 f8 ff 	and    $0xfff80000,%r9d
    aa3f:	f0 45 0f b1 08       	lock cmpxchg %r9d,(%r8)
    aa44:	75 ea                	jne    aa30 <__pthread_mutex_unlock_full+0x2d0>
    aa46:	81 e2 ff ff 07 00    	and    $0x7ffff,%edx
    aa4c:	83 fa 01             	cmp    $0x1,%edx
    aa4f:	76 26                	jbe    aa77 <__pthread_mutex_unlock_full+0x317>
    aa51:	41 8b 70 10          	mov    0x10(%r8),%esi
    aa55:	ba 01 00 00 00       	mov    $0x1,%edx
    aa5a:	b8 ca 00 00 00       	mov    $0xca,%eax
    aa5f:	4c 89 c7             	mov    %r8,%rdi
    aa62:	f7 d6                	not    %esi
    aa64:	81 e6 80 00 00 00    	and    $0x80,%esi
    aa6a:	64 23 34 25 48 00 00 	and    %fs:0x48,%esi
    aa71:	00 
    aa72:	83 ce 01             	or     $0x1,%esi
    aa75:	0f 05                	syscall 
    aa77:	c9                   	leaveq 
    aa78:	44 89 cf             	mov    %r9d,%edi
    aa7b:	c1 ff 13             	sar    $0x13,%edi
    aa7e:	be ff ff ff ff       	mov    $0xffffffff,%esi
    aa83:	e9 b8 58 00 00       	jmpq   10340 <__pthread_tpp_change_priority>
    aa88:	0f 1f 84 00 00 00 00 	nopl   0x0(%rax,%rax,1)
    aa8f:	00 
    aa90:	8b 17                	mov    (%rdi),%edx
    aa92:	f7 c2 ff ff 07 00    	test   $0x7ffff,%edx
    aa98:	0f 85 77 ff ff ff    	jne    aa15 <__pthread_mutex_unlock_full+0x2b5>
    aa9e:	e9 0d fd ff ff       	jmpq   a7b0 <__pthread_mutex_unlock_full+0x50>
    aaa3:	0f 1f 44 00 00       	nopl   0x0(%rax,%rax,1)
    aaa8:	8b 47 08             	mov    0x8(%rdi),%eax
    aaab:	3d ff ff ff 7f       	cmp    $0x7fffffff,%eax
    aab0:	0f 85 bc fd ff ff    	jne    a872 <__pthread_mutex_unlock_full+0x112>
    aab6:	8b 47 04             	mov    0x4(%rdi),%eax
    aab9:	83 e8 01             	sub    $0x1,%eax
    aabc:	85 c0                	test   %eax,%eax
    aabe:	89 47 04             	mov    %eax,0x4(%rdi)
    aac1:	75 3b                	jne    aafe <__pthread_mutex_unlock_full+0x39e>
    aac3:	b9 fe ff ff 7f       	mov    $0x7ffffffe,%ecx
    aac8:	e9 1c fd ff ff       	jmpq   a7e9 <__pthread_mutex_unlock_full+0x89>
    aacd:	0f 1f 00             	nopl   (%rax)
    aad0:	8b 47 08             	mov    0x8(%rdi),%eax
    aad3:	3d ff ff ff 7f       	cmp    $0x7fffffff,%eax
    aad8:	0f 85 44 fe ff ff    	jne    a922 <__pthread_mutex_unlock_full+0x1c2>
    aade:	8b 47 04             	mov    0x4(%rdi),%eax
    aae1:	83 e8 01             	sub    $0x1,%eax
    aae4:	85 c0                	test   %eax,%eax
    aae6:	89 47 04             	mov    %eax,0x4(%rdi)
    aae9:	75 13                	jne    aafe <__pthread_mutex_unlock_full+0x39e>
    aaeb:	80 e2 10             	and    $0x10,%dl
    aaee:	b8 fe ff ff 7f       	mov    $0x7ffffffe,%eax
    aaf3:	0f 85 4e fe ff ff    	jne    a947 <__pthread_mutex_unlock_full+0x1e7>
    aaf9:	e9 88 fe ff ff       	jmpq   a986 <__pthread_mutex_unlock_full+0x226>
    aafe:	b8 83 00 00 00       	mov    $0x83,%eax
    ab03:	c9                   	leaveq 
    ab04:	c3                   	retq   
    ab05:	66 66 2e 0f 1f 84 00 	data32 nopw %cs:0x0(%rax,%rax,1)
    ab0c:	00 00 00 00 

000000000000ab10 <__pthread_mutex_unlock_usercnt>:
    ab10:	55                   	push   %rbp
    ab11:	8b 4f 10             	mov    0x10(%rdi),%ecx
    ab14:	48 89 fa             	mov    %rdi,%rdx
    ab17:	48 89 e5             	mov    %rsp,%rbp
    ab1a:	89 c8                	mov    %ecx,%eax
    ab1c:	83 e0 7f             	and    $0x7f,%eax
    ab1f:	f6 c1 7c             	test   $0x7c,%cl
    ab22:	75 41                	jne    ab65 <__pthread_mutex_unlock_usercnt+0x55>
    ab24:	85 c0                	test   %eax,%eax
    ab26:	75 24                	jne    ab4c <__pthread_mutex_unlock_usercnt+0x3c>
    ab28:	85 f6                	test   %esi,%esi
    ab2a:	c7 42 08 00 00 00 00 	movl   $0x0,0x8(%rdx)
    ab31:	74 04                	je     ab37 <__pthread_mutex_unlock_usercnt+0x27>
    ab33:	83 6a 0c 01          	subl   $0x1,0xc(%rdx)
    ab37:	89 ce                	mov    %ecx,%esi
    ab39:	81 e6 80 00 00 00    	and    $0x80,%esi
    ab3f:	f0 ff 0a             	lock decl (%rdx)
    ab42:	0f 85 b2 00 00 00    	jne    abfa <_L_unlock_373>
    ab48:	31 c0                	xor    %eax,%eax
    ab4a:	c9                   	leaveq 
    ab4b:	c3                   	retq   
    ab4c:	83 f8 01             	cmp    $0x1,%eax
    ab4f:	75 2b                	jne    ab7c <__pthread_mutex_unlock_usercnt+0x6c>
    ab51:	64 8b 04 25 d0 02 00 	mov    %fs:0x2d0,%eax
    ab58:	00 
    ab59:	39 47 08             	cmp    %eax,0x8(%rdi)
    ab5c:	74 0d                	je     ab6b <__pthread_mutex_unlock_usercnt+0x5b>
    ab5e:	b8 01 00 00 00       	mov    $0x1,%eax
    ab63:	c9                   	leaveq 
    ab64:	c3                   	retq   
    ab65:	c9                   	leaveq 
    ab66:	e9 f5 fb ff ff       	jmpq   a760 <__pthread_mutex_unlock_full>
    ab6b:	8b 7f 04             	mov    0x4(%rdi),%edi
    ab6e:	31 c0                	xor    %eax,%eax
    ab70:	83 ef 01             	sub    $0x1,%edi
    ab73:	85 ff                	test   %edi,%edi
    ab75:	89 7a 04             	mov    %edi,0x4(%rdx)
    ab78:	74 ae                	je     ab28 <__pthread_mutex_unlock_usercnt+0x18>
    ab7a:	c9                   	leaveq 
    ab7b:	c3                   	retq   
    ab7c:	83 f8 03             	cmp    $0x3,%eax
    ab7f:	74 a7                	je     ab28 <__pthread_mutex_unlock_usercnt+0x18>
    ab81:	83 f8 02             	cmp    $0x2,%eax
    ab84:	0f 1f 40 00          	nopl   0x0(%rax)
    ab88:	75 18                	jne    aba2 <__pthread_mutex_unlock_usercnt+0x92>
    ab8a:	64 8b 04 25 d0 02 00 	mov    %fs:0x2d0,%eax
    ab91:	00 
    ab92:	39 47 08             	cmp    %eax,0x8(%rdi)
    ab95:	75 c7                	jne    ab5e <__pthread_mutex_unlock_usercnt+0x4e>
    ab97:	83 3f 00             	cmpl   $0x0,(%rdi)
    ab9a:	75 8c                	jne    ab28 <__pthread_mutex_unlock_usercnt+0x18>
    ab9c:	0f 1f 40 00          	nopl   0x0(%rax)
    aba0:	eb bc                	jmp    ab5e <__pthread_mutex_unlock_usercnt+0x4e>
    aba2:	48 8d 0d d7 73 00 00 	lea    0x73d7(%rip),%rcx        # 11f80 <__PRETTY_FUNCTION__.7547>
    aba9:	48 8d 35 b8 73 00 00 	lea    0x73b8(%rip),%rsi        # 11f68 <__PRETTY_FUNCTION__.7736+0xe8>
    abb0:	48 8d 3d d9 6f 00 00 	lea    0x6fd9(%rip),%rdi        # 11b90 <__PRETTY_FUNCTION__.7538+0xd0>
    abb7:	ba 4a 00 00 00       	mov    $0x4a,%edx
    abbc:	e8 1f a8 ff ff       	callq  53e0 <__assert_fail@plt>
    abc1:	66 66 66 66 66 66 2e 	data32 data32 data32 data32 data32 nopw %cs:0x0(%rax,%rax,1)
    abc8:	0f 1f 84 00 00 00 00 
    abcf:	00 

000000000000abd0 <__pthread_mutex_unlock>:
    abd0:	55                   	push   %rbp
    abd1:	be 01 00 00 00       	mov    $0x1,%esi
    abd6:	48 89 e5             	mov    %rsp,%rbp
    abd9:	c9                   	leaveq 
    abda:	e9 31 ff ff ff       	jmpq   ab10 <__pthread_mutex_unlock_usercnt>

000000000000abdf <_L_robust_unlock_84>:
    abdf:	49 8d 38             	lea    (%r8),%rdi
    abe2:	48 81 ec 80 00 00 00 	sub    $0x80,%rsp
    abe9:	e8 72 39 00 00       	callq  e560 <__lll_unlock_wake>
    abee:	48 81 c4 80 00 00 00 	add    $0x80,%rsp
    abf5:	e9 4a fc ff ff       	jmpq   a844 <__pthread_mutex_unlock_full+0xe4>

000000000000abfa <_L_unlock_373>:
    abfa:	48 8d 3a             	lea    (%rdx),%rdi
    abfd:	48 81 ec 80 00 00 00 	sub    $0x80,%rsp
    ac04:	e8 57 39 00 00       	callq  e560 <__lll_unlock_wake>
    ac09:	48 81 c4 80 00 00 00 	add    $0x80,%rsp
    ac10:	e9 33 ff ff ff       	jmpq   ab48 <__pthread_mutex_unlock_usercnt+0x38>
    ac15:	90                   	nop
    ac16:	90                   	nop
    ac17:	90                   	nop
    ac18:	90                   	nop
    ac19:	90                   	nop
    ac1a:	90                   	nop
    ac1b:	90                   	nop
    ac1c:	90                   	nop
    ac1d:	90                   	nop
    ac1e:	90                   	nop
    ac1f:	90                   	nop

000000000000ac20 <__pthread_mutexattr_init>:
    ac20:	55                   	push   %rbp
    ac21:	c7 07 00 00 00 00    	movl   $0x0,(%rdi)
    ac27:	31 c0                	xor    %eax,%eax
    ac29:	48 89 e5             	mov    %rsp,%rbp
    ac2c:	c9                   	leaveq 
    ac2d:	c3                   	retq   
    ac2e:	90                   	nop
    ac2f:	90                   	nop

000000000000ac30 <__pthread_mutexattr_destroy>:
    ac30:	55                   	push   %rbp
    ac31:	31 c0                	xor    %eax,%eax
    ac33:	48 89 e5             	mov    %rsp,%rbp
    ac36:	c9                   	leaveq 
    ac37:	c3                   	retq   
    ac38:	90                   	nop
    ac39:	90                   	nop
    ac3a:	90                   	nop
    ac3b:	90                   	nop
    ac3c:	90                   	nop
    ac3d:	90                   	nop
    ac3e:	90                   	nop
    ac3f:	90                   	nop

000000000000ac40 <pthread_mutexattr_getpshared>:
    ac40:	8b 07                	mov    (%rdi),%eax
    ac42:	55                   	push   %rbp
    ac43:	48 89 e5             	mov    %rsp,%rbp
    ac46:	c1 e8 1f             	shr    $0x1f,%eax
    ac49:	89 06                	mov    %eax,(%rsi)
    ac4b:	31 c0                	xor    %eax,%eax
    ac4d:	c9                   	leaveq 
    ac4e:	c3                   	retq   
    ac4f:	90                   	nop

000000000000ac50 <pthread_mutexattr_setpshared>:
    ac50:	55                   	push   %rbp
    ac51:	85 f6                	test   %esi,%esi
    ac53:	48 89 e5             	mov    %rsp,%rbp
    ac56:	74 18                	je     ac70 <pthread_mutexattr_setpshared+0x20>
    ac58:	83 fe 01             	cmp    $0x1,%esi
    ac5b:	75 1d                	jne    ac7a <pthread_mutexattr_setpshared+0x2a>
    ac5d:	81 0f 00 00 00 80    	orl    $0x80000000,(%rdi)
    ac63:	31 c0                	xor    %eax,%eax
    ac65:	c9                   	leaveq 
    ac66:	c3                   	retq   
    ac67:	66 0f 1f 84 00 00 00 	nopw   0x0(%rax,%rax,1)
    ac6e:	00 00 
    ac70:	81 27 ff ff ff 7f    	andl   $0x7fffffff,(%rdi)
    ac76:	31 c0                	xor    %eax,%eax
    ac78:	c9                   	leaveq 
    ac79:	c3                   	retq   
    ac7a:	b8 16 00 00 00       	mov    $0x16,%eax
    ac7f:	c9                   	leaveq 
    ac80:	c3                   	retq   
    ac81:	90                   	nop
    ac82:	90                   	nop
    ac83:	90                   	nop
    ac84:	90                   	nop
    ac85:	90                   	nop
    ac86:	90                   	nop
    ac87:	90                   	nop
    ac88:	90                   	nop
    ac89:	90                   	nop
    ac8a:	90                   	nop
    ac8b:	90                   	nop
    ac8c:	90                   	nop
    ac8d:	90                   	nop
    ac8e:	90                   	nop
    ac8f:	90                   	nop

000000000000ac90 <pthread_mutexattr_gettype>:
    ac90:	8b 07                	mov    (%rdi),%eax
    ac92:	55                   	push   %rbp
    ac93:	48 89 e5             	mov    %rsp,%rbp
    ac96:	25 ff 0f 00 0f       	and    $0xf000fff,%eax
    ac9b:	89 06                	mov    %eax,(%rsi)
    ac9d:	31 c0                	xor    %eax,%eax
    ac9f:	c9                   	leaveq 
    aca0:	c3                   	retq   
    aca1:	90                   	nop
    aca2:	90                   	nop
    aca3:	90                   	nop
    aca4:	90                   	nop
    aca5:	90                   	nop
    aca6:	90                   	nop
    aca7:	90                   	nop
    aca8:	90                   	nop
    aca9:	90                   	nop
    acaa:	90                   	nop
    acab:	90                   	nop
    acac:	90                   	nop
    acad:	90                   	nop
    acae:	90                   	nop
    acaf:	90                   	nop

000000000000acb0 <__pthread_mutexattr_settype>:
    acb0:	55                   	push   %rbp
    acb1:	83 fe 03             	cmp    $0x3,%esi
    acb4:	b8 16 00 00 00       	mov    $0x16,%eax
    acb9:	48 89 e5             	mov    %rsp,%rbp
    acbc:	77 0d                	ja     accb <__pthread_mutexattr_settype+0x1b>
    acbe:	8b 07                	mov    (%rdi),%eax
    acc0:	25 00 f0 ff f0       	and    $0xf0fff000,%eax
    acc5:	09 f0                	or     %esi,%eax
    acc7:	89 07                	mov    %eax,(%rdi)
    acc9:	31 c0                	xor    %eax,%eax
    accb:	c9                   	leaveq 
    accc:	c3                   	retq   
    accd:	90                   	nop
    acce:	90                   	nop
    accf:	90                   	nop

000000000000acd0 <__pthread_rwlock_init>:
    acd0:	48 8d 05 c9 72 00 00 	lea    0x72c9(%rip),%rax        # 11fa0 <default_attr>
    acd7:	48 85 f6             	test   %rsi,%rsi
    acda:	b9 07 00 00 00       	mov    $0x7,%ecx
    acdf:	48 89 fa             	mov    %rdi,%rdx
    ace2:	55                   	push   %rbp
    ace3:	48 0f 44 f0          	cmove  %rax,%rsi
    ace7:	31 c0                	xor    %eax,%eax
    ace9:	f3 48 ab             	rep stos %rax,%es:(%rdi)
    acec:	31 c0                	xor    %eax,%eax
    acee:	48 89 e5             	mov    %rsp,%rbp
    acf1:	83 3e 02             	cmpl   $0x2,(%rsi)
    acf4:	0f 94 c0             	sete   %al
    acf7:	89 42 30             	mov    %eax,0x30(%rdx)
    acfa:	8b 4e 04             	mov    0x4(%rsi),%ecx
    acfd:	31 c0                	xor    %eax,%eax
    acff:	85 c9                	test   %ecx,%ecx
    ad01:	74 08                	je     ad0b <__pthread_rwlock_init+0x3b>
    ad03:	64 8b 04 25 48 00 00 	mov    %fs:0x48,%eax
    ad0a:	00 
    ad0b:	89 42 1c             	mov    %eax,0x1c(%rdx)
    ad0e:	31 c0                	xor    %eax,%eax
    ad10:	c9                   	leaveq 
    ad11:	c3                   	retq   
    ad12:	90                   	nop
    ad13:	90                   	nop
    ad14:	90                   	nop
    ad15:	90                   	nop
    ad16:	90                   	nop
    ad17:	90                   	nop
    ad18:	90                   	nop
    ad19:	90                   	nop
    ad1a:	90                   	nop
    ad1b:	90                   	nop
    ad1c:	90                   	nop
    ad1d:	90                   	nop
    ad1e:	90                   	nop
    ad1f:	90                   	nop

000000000000ad20 <__pthread_rwlock_destroy>:
    ad20:	55                   	push   %rbp
    ad21:	31 c0                	xor    %eax,%eax
    ad23:	48 89 e5             	mov    %rsp,%rbp
    ad26:	c9                   	leaveq 
    ad27:	c3                   	retq   
    ad28:	90                   	nop
    ad29:	90                   	nop
    ad2a:	90                   	nop
    ad2b:	90                   	nop
    ad2c:	90                   	nop
    ad2d:	90                   	nop
    ad2e:	90                   	nop
    ad2f:	90                   	nop

000000000000ad30 <__pthread_rwlock_rdlock>:
    ad30:	4d 31 d2             	xor    %r10,%r10
    ad33:	be 01 00 00 00       	mov    $0x1,%esi
    ad38:	31 c0                	xor    %eax,%eax
    ad3a:	f0 0f b1 37          	lock cmpxchg %esi,(%rdi)
    ad3e:	75 5c                	jne    ad9c <__pthread_rwlock_rdlock+0x6c>
    ad40:	8b 47 18             	mov    0x18(%rdi),%eax
    ad43:	85 c0                	test   %eax,%eax
    ad45:	75 5f                	jne    ada6 <__pthread_rwlock_rdlock+0x76>
    ad47:	83 7f 14 00          	cmpl   $0x0,0x14(%rdi)
    ad4b:	74 3f                	je     ad8c <__pthread_rwlock_rdlock+0x5c>
    ad4d:	83 7f 30 00          	cmpl   $0x0,0x30(%rdi)
    ad51:	74 39                	je     ad8c <__pthread_rwlock_rdlock+0x5c>
    ad53:	ff 47 10             	incl   0x10(%rdi)
    ad56:	74 73                	je     adcb <__pthread_rwlock_rdlock+0x9b>
    ad58:	8b 57 08             	mov    0x8(%rdi),%edx
    ad5b:	f0 ff 0f             	lock decl (%rdi)
    ad5e:	75 75                	jne    add5 <__pthread_rwlock_rdlock+0xa5>
    ad60:	8b 77 1c             	mov    0x1c(%rdi),%esi
    ad63:	64 33 34 25 48 00 00 	xor    %fs:0x48,%esi
    ad6a:	00 
    ad6b:	48 83 c7 08          	add    $0x8,%rdi
    ad6f:	b8 ca 00 00 00       	mov    $0xca,%eax
    ad74:	0f 05                	syscall 
    ad76:	48 83 ef 08          	sub    $0x8,%rdi
    ad7a:	be 01 00 00 00       	mov    $0x1,%esi
    ad7f:	31 c0                	xor    %eax,%eax
    ad81:	f0 0f b1 37          	lock cmpxchg %esi,(%rdi)
    ad85:	75 58                	jne    addf <__pthread_rwlock_rdlock+0xaf>
    ad87:	ff 4f 10             	decl   0x10(%rdi)
    ad8a:	eb b4                	jmp    ad40 <__pthread_rwlock_rdlock+0x10>
    ad8c:	31 d2                	xor    %edx,%edx
    ad8e:	ff 47 04             	incl   0x4(%rdi)
    ad91:	74 2e                	je     adc1 <__pthread_rwlock_rdlock+0x91>
    ad93:	f0 ff 0f             	lock decl (%rdi)
    ad96:	75 1f                	jne    adb7 <__pthread_rwlock_rdlock+0x87>
    ad98:	48 89 d0             	mov    %rdx,%rax
    ad9b:	c3                   	retq   
    ad9c:	8b 77 1c             	mov    0x1c(%rdi),%esi
    ad9f:	e8 2c 36 00 00       	callq  e3d0 <__lll_lock_wait>
    ada4:	eb 9a                	jmp    ad40 <__pthread_rwlock_rdlock+0x10>
    ada6:	64 3b 04 25 d0 02 00 	cmp    %fs:0x2d0,%eax
    adad:	00 
    adae:	75 a3                	jne    ad53 <__pthread_rwlock_rdlock+0x23>
    adb0:	ba 23 00 00 00       	mov    $0x23,%edx
    adb5:	eb dc                	jmp    ad93 <__pthread_rwlock_rdlock+0x63>
    adb7:	8b 77 1c             	mov    0x1c(%rdi),%esi
    adba:	e8 a1 37 00 00       	callq  e560 <__lll_unlock_wake>
    adbf:	eb d7                	jmp    ad98 <__pthread_rwlock_rdlock+0x68>
    adc1:	ff 4f 04             	decl   0x4(%rdi)
    adc4:	ba 0b 00 00 00       	mov    $0xb,%edx
    adc9:	eb c8                	jmp    ad93 <__pthread_rwlock_rdlock+0x63>
    adcb:	ff 4f 10             	decl   0x10(%rdi)
    adce:	ba 0b 00 00 00       	mov    $0xb,%edx
    add3:	eb be                	jmp    ad93 <__pthread_rwlock_rdlock+0x63>
    add5:	8b 77 1c             	mov    0x1c(%rdi),%esi
    add8:	e8 83 37 00 00       	callq  e560 <__lll_unlock_wake>
    addd:	eb 81                	jmp    ad60 <__pthread_rwlock_rdlock+0x30>
    addf:	8b 77 1c             	mov    0x1c(%rdi),%esi
    ade2:	48 83 c7 00          	add    $0x0,%rdi
    ade6:	e8 e5 35 00 00       	callq  e3d0 <__lll_lock_wait>
    adeb:	eb 9a                	jmp    ad87 <__pthread_rwlock_rdlock+0x57>
    aded:	90                   	nop
    adee:	90                   	nop
    adef:	90                   	nop

000000000000adf0 <pthread_rwlock_timedrdlock>:
    adf0:	41 54                	push   %r12
    adf2:	41 55                	push   %r13
    adf4:	41 56                	push   %r14
    adf6:	48 83 ec 10          	sub    $0x10,%rsp
    adfa:	49 89 fc             	mov    %rdi,%r12
    adfd:	49 89 f5             	mov    %rsi,%r13
    ae00:	be 01 00 00 00       	mov    $0x1,%esi
    ae05:	31 c0                	xor    %eax,%eax
    ae07:	f0 0f b1 37          	lock cmpxchg %esi,(%rdi)
    ae0b:	0f 85 d2 00 00 00    	jne    aee3 <pthread_rwlock_timedrdlock+0xf3>
    ae11:	41 8b 44 24 18       	mov    0x18(%r12),%eax
    ae16:	85 c0                	test   %eax,%eax
    ae18:	0f 85 d2 00 00 00    	jne    aef0 <pthread_rwlock_timedrdlock+0x100>
    ae1e:	41 83 7c 24 14 00    	cmpl   $0x0,0x14(%r12)
    ae24:	0f 84 9b 00 00 00    	je     aec5 <pthread_rwlock_timedrdlock+0xd5>
    ae2a:	41 83 7c 24 30 00    	cmpl   $0x0,0x30(%r12)
    ae30:	0f 84 8f 00 00 00    	je     aec5 <pthread_rwlock_timedrdlock+0xd5>
    ae36:	49 81 7d 08 00 ca 9a 	cmpq   $0x3b9aca00,0x8(%r13)
    ae3d:	3b 
    ae3e:	0f 83 18 01 00 00    	jae    af5c <pthread_rwlock_timedrdlock+0x16c>
    ae44:	41 ff 44 24 10       	incl   0x10(%r12)
    ae49:	0f 84 d1 00 00 00    	je     af20 <pthread_rwlock_timedrdlock+0x130>
    ae4f:	45 8b 74 24 08       	mov    0x8(%r12),%r14d
    ae54:	f0 41 ff 0c 24       	lock decl (%r12)
    ae59:	0f 85 cd 00 00 00    	jne    af2c <pthread_rwlock_timedrdlock+0x13c>
    ae5f:	83 3d e2 14 21 00 00 	cmpl   $0x0,0x2114e2(%rip)        # 21c348 <__have_futex_clock_realtime>
    ae66:	0f 84 fa 00 00 00    	je     af66 <pthread_rwlock_timedrdlock+0x176>
    ae6c:	49 83 7d 00 00       	cmpq   $0x0,0x0(%r13)
    ae71:	0f 88 d9 00 00 00    	js     af50 <pthread_rwlock_timedrdlock+0x160>
    ae77:	be 89 01 00 00       	mov    $0x189,%esi
    ae7c:	41 33 74 24 1c       	xor    0x1c(%r12),%esi
    ae81:	4d 89 ea             	mov    %r13,%r10
    ae84:	41 b9 ff ff ff ff    	mov    $0xffffffff,%r9d
    ae8a:	44 89 f2             	mov    %r14d,%edx
    ae8d:	49 8d 7c 24 08       	lea    0x8(%r12),%rdi
    ae92:	b8 ca 00 00 00       	mov    $0xca,%eax
    ae97:	0f 05                	syscall 
    ae99:	48 89 c2             	mov    %rax,%rdx
    ae9c:	be 01 00 00 00       	mov    $0x1,%esi
    aea1:	31 c0                	xor    %eax,%eax
    aea3:	f0 41 0f b1 34 24    	lock cmpxchg %esi,(%r12)
    aea9:	0f 85 8f 00 00 00    	jne    af3e <pthread_rwlock_timedrdlock+0x14e>
    aeaf:	41 ff 4c 24 10       	decl   0x10(%r12)
    aeb4:	48 83 fa 92          	cmp    $0xffffffffffffff92,%rdx
    aeb8:	0f 85 53 ff ff ff    	jne    ae11 <pthread_rwlock_timedrdlock+0x21>
    aebe:	ba 6e 00 00 00       	mov    $0x6e,%edx
    aec3:	eb 09                	jmp    aece <pthread_rwlock_timedrdlock+0xde>
    aec5:	31 d2                	xor    %edx,%edx
    aec7:	41 ff 44 24 04       	incl   0x4(%r12)
    aecc:	74 46                	je     af14 <pthread_rwlock_timedrdlock+0x124>
    aece:	f0 41 ff 0c 24       	lock decl (%r12)
    aed3:	75 30                	jne    af05 <pthread_rwlock_timedrdlock+0x115>
    aed5:	48 89 d0             	mov    %rdx,%rax
    aed8:	48 83 c4 10          	add    $0x10,%rsp
    aedc:	41 5e                	pop    %r14
    aede:	41 5d                	pop    %r13
    aee0:	41 5c                	pop    %r12
    aee2:	c3                   	retq   
    aee3:	8b 77 1c             	mov    0x1c(%rdi),%esi
    aee6:	e8 e5 34 00 00       	callq  e3d0 <__lll_lock_wait>
    aeeb:	e9 21 ff ff ff       	jmpq   ae11 <pthread_rwlock_timedrdlock+0x21>
    aef0:	64 3b 04 25 d0 02 00 	cmp    %fs:0x2d0,%eax
    aef7:	00 
    aef8:	0f 85 38 ff ff ff    	jne    ae36 <pthread_rwlock_timedrdlock+0x46>
    aefe:	ba 23 00 00 00       	mov    $0x23,%edx
    af03:	eb c9                	jmp    aece <pthread_rwlock_timedrdlock+0xde>
    af05:	41 8b 74 24 1c       	mov    0x1c(%r12),%esi
    af0a:	4c 89 e7             	mov    %r12,%rdi
    af0d:	e8 4e 36 00 00       	callq  e560 <__lll_unlock_wake>
    af12:	eb c1                	jmp    aed5 <pthread_rwlock_timedrdlock+0xe5>
    af14:	41 ff 4c 24 04       	decl   0x4(%r12)
    af19:	ba 0b 00 00 00       	mov    $0xb,%edx
    af1e:	eb ae                	jmp    aece <pthread_rwlock_timedrdlock+0xde>
    af20:	41 ff 4c 24 10       	decl   0x10(%r12)
    af25:	ba 0b 00 00 00       	mov    $0xb,%edx
    af2a:	eb a2                	jmp    aece <pthread_rwlock_timedrdlock+0xde>
    af2c:	41 8b 74 24 1c       	mov    0x1c(%r12),%esi
    af31:	4c 89 e7             	mov    %r12,%rdi
    af34:	e8 27 36 00 00       	callq  e560 <__lll_unlock_wake>
    af39:	e9 21 ff ff ff       	jmpq   ae5f <pthread_rwlock_timedrdlock+0x6f>
    af3e:	41 8b 74 24 1c       	mov    0x1c(%r12),%esi
    af43:	4c 89 e7             	mov    %r12,%rdi
    af46:	e8 85 34 00 00       	callq  e3d0 <__lll_lock_wait>
    af4b:	e9 5f ff ff ff       	jmpq   aeaf <pthread_rwlock_timedrdlock+0xbf>
    af50:	48 c7 c2 92 ff ff ff 	mov    $0xffffffffffffff92,%rdx
    af57:	e9 40 ff ff ff       	jmpq   ae9c <pthread_rwlock_timedrdlock+0xac>
    af5c:	ba 16 00 00 00       	mov    $0x16,%edx
    af61:	e9 68 ff ff ff       	jmpq   aece <pthread_rwlock_timedrdlock+0xde>
    af66:	48 89 e7             	mov    %rsp,%rdi
    af69:	31 f6                	xor    %esi,%esi
    af6b:	e8 60 a4 ff ff       	callq  53d0 <__gettimeofday@plt>
    af70:	48 8b 44 24 08       	mov    0x8(%rsp),%rax
    af75:	bf e8 03 00 00       	mov    $0x3e8,%edi
    af7a:	48 f7 e7             	mul    %rdi
    af7d:	49 8b 4d 00          	mov    0x0(%r13),%rcx
    af81:	49 8b 7d 08          	mov    0x8(%r13),%rdi
    af85:	48 2b 0c 24          	sub    (%rsp),%rcx
    af89:	48 29 c7             	sub    %rax,%rdi
    af8c:	79 0a                	jns    af98 <pthread_rwlock_timedrdlock+0x1a8>
    af8e:	48 81 c7 00 ca 9a 3b 	add    $0x3b9aca00,%rdi
    af95:	48 ff c9             	dec    %rcx
    af98:	48 85 c9             	test   %rcx,%rcx
    af9b:	78 b3                	js     af50 <pthread_rwlock_timedrdlock+0x160>
    af9d:	48 89 0c 24          	mov    %rcx,(%rsp)
    afa1:	48 89 7c 24 08       	mov    %rdi,0x8(%rsp)
    afa6:	41 8b 74 24 1c       	mov    0x1c(%r12),%esi
    afab:	64 33 34 25 48 00 00 	xor    %fs:0x48,%esi
    afb2:	00 
    afb3:	49 89 e2             	mov    %rsp,%r10
    afb6:	44 89 f2             	mov    %r14d,%edx
    afb9:	e9 cf fe ff ff       	jmpq   ae8d <pthread_rwlock_timedrdlock+0x9d>
    afbe:	90                   	nop
    afbf:	90                   	nop

000000000000afc0 <__pthread_rwlock_wrlock>:
    afc0:	4d 31 d2             	xor    %r10,%r10
    afc3:	be 01 00 00 00       	mov    $0x1,%esi
    afc8:	31 c0                	xor    %eax,%eax
    afca:	f0 0f b1 37          	lock cmpxchg %esi,(%rdi)
    afce:	75 5c                	jne    b02c <__pthread_rwlock_wrlock+0x6c>
    afd0:	8b 47 18             	mov    0x18(%rdi),%eax
    afd3:	85 c0                	test   %eax,%eax
    afd5:	75 5f                	jne    b036 <__pthread_rwlock_wrlock+0x76>
    afd7:	83 7f 04 00          	cmpl   $0x0,0x4(%rdi)
    afdb:	74 39                	je     b016 <__pthread_rwlock_wrlock+0x56>
    afdd:	ff 47 14             	incl   0x14(%rdi)
    afe0:	74 6f                	je     b051 <__pthread_rwlock_wrlock+0x91>
    afe2:	8b 57 0c             	mov    0xc(%rdi),%edx
    afe5:	f0 ff 0f             	lock decl (%rdi)
    afe8:	75 71                	jne    b05b <__pthread_rwlock_wrlock+0x9b>
    afea:	8b 77 1c             	mov    0x1c(%rdi),%esi
    afed:	64 33 34 25 48 00 00 	xor    %fs:0x48,%esi
    aff4:	00 
    aff5:	48 83 c7 0c          	add    $0xc,%rdi
    aff9:	b8 ca 00 00 00       	mov    $0xca,%eax
    affe:	0f 05                	syscall 
    b000:	48 83 ef 0c          	sub    $0xc,%rdi
    b004:	be 01 00 00 00       	mov    $0x1,%esi
    b009:	31 c0                	xor    %eax,%eax
    b00b:	f0 0f b1 37          	lock cmpxchg %esi,(%rdi)
    b00f:	75 54                	jne    b065 <__pthread_rwlock_wrlock+0xa5>
    b011:	ff 4f 14             	decl   0x14(%rdi)
    b014:	eb ba                	jmp    afd0 <__pthread_rwlock_wrlock+0x10>
    b016:	31 d2                	xor    %edx,%edx
    b018:	64 8b 04 25 d0 02 00 	mov    %fs:0x2d0,%eax
    b01f:	00 
    b020:	89 47 18             	mov    %eax,0x18(%rdi)
    b023:	f0 ff 0f             	lock decl (%rdi)
    b026:	75 1f                	jne    b047 <__pthread_rwlock_wrlock+0x87>
    b028:	48 89 d0             	mov    %rdx,%rax
    b02b:	c3                   	retq   
    b02c:	8b 77 1c             	mov    0x1c(%rdi),%esi
    b02f:	e8 9c 33 00 00       	callq  e3d0 <__lll_lock_wait>
    b034:	eb 9a                	jmp    afd0 <__pthread_rwlock_wrlock+0x10>
    b036:	64 3b 04 25 d0 02 00 	cmp    %fs:0x2d0,%eax
    b03d:	00 
    b03e:	75 9d                	jne    afdd <__pthread_rwlock_wrlock+0x1d>
    b040:	ba 23 00 00 00       	mov    $0x23,%edx
    b045:	eb dc                	jmp    b023 <__pthread_rwlock_wrlock+0x63>
    b047:	8b 77 1c             	mov    0x1c(%rdi),%esi
    b04a:	e8 11 35 00 00       	callq  e560 <__lll_unlock_wake>
    b04f:	eb d7                	jmp    b028 <__pthread_rwlock_wrlock+0x68>
    b051:	ff 4f 14             	decl   0x14(%rdi)
    b054:	ba 0b 00 00 00       	mov    $0xb,%edx
    b059:	eb c8                	jmp    b023 <__pthread_rwlock_wrlock+0x63>
    b05b:	8b 77 1c             	mov    0x1c(%rdi),%esi
    b05e:	e8 fd 34 00 00       	callq  e560 <__lll_unlock_wake>
    b063:	eb 85                	jmp    afea <__pthread_rwlock_wrlock+0x2a>
    b065:	8b 77 1c             	mov    0x1c(%rdi),%esi
    b068:	e8 63 33 00 00       	callq  e3d0 <__lll_lock_wait>
    b06d:	eb a2                	jmp    b011 <__pthread_rwlock_wrlock+0x51>
    b06f:	90                   	nop

000000000000b070 <pthread_rwlock_timedwrlock>:
    b070:	41 54                	push   %r12
    b072:	41 55                	push   %r13
    b074:	41 56                	push   %r14
    b076:	48 83 ec 10          	sub    $0x10,%rsp
    b07a:	49 89 fc             	mov    %rdi,%r12
    b07d:	49 89 f5             	mov    %rsi,%r13
    b080:	be 01 00 00 00       	mov    $0x1,%esi
    b085:	31 c0                	xor    %eax,%eax
    b087:	f0 0f b1 37          	lock cmpxchg %esi,(%rdi)
    b08b:	0f 85 cc 00 00 00    	jne    b15d <pthread_rwlock_timedwrlock+0xed>
    b091:	41 8b 44 24 18       	mov    0x18(%r12),%eax
    b096:	85 c0                	test   %eax,%eax
    b098:	0f 85 cc 00 00 00    	jne    b16a <pthread_rwlock_timedwrlock+0xfa>
    b09e:	41 83 7c 24 04 00    	cmpl   $0x0,0x4(%r12)
    b0a4:	0f 84 8f 00 00 00    	je     b139 <pthread_rwlock_timedwrlock+0xc9>
    b0aa:	49 81 7d 08 00 ca 9a 	cmpq   $0x3b9aca00,0x8(%r13)
    b0b1:	3b 
    b0b2:	0f 83 12 01 00 00    	jae    b1ca <pthread_rwlock_timedwrlock+0x15a>
    b0b8:	41 ff 44 24 14       	incl   0x14(%r12)
    b0bd:	0f 84 cb 00 00 00    	je     b18e <pthread_rwlock_timedwrlock+0x11e>
    b0c3:	45 8b 74 24 0c       	mov    0xc(%r12),%r14d
    b0c8:	f0 41 ff 0c 24       	lock decl (%r12)
    b0cd:	0f 85 c7 00 00 00    	jne    b19a <pthread_rwlock_timedwrlock+0x12a>
    b0d3:	83 3d 6e 12 21 00 00 	cmpl   $0x0,0x21126e(%rip)        # 21c348 <__have_futex_clock_realtime>
    b0da:	0f 84 f4 00 00 00    	je     b1d4 <pthread_rwlock_timedwrlock+0x164>
    b0e0:	49 83 7d 00 00       	cmpq   $0x0,0x0(%r13)
    b0e5:	0f 88 d3 00 00 00    	js     b1be <pthread_rwlock_timedwrlock+0x14e>
    b0eb:	be 89 01 00 00       	mov    $0x189,%esi
    b0f0:	41 33 74 24 1c       	xor    0x1c(%r12),%esi
    b0f5:	4d 89 ea             	mov    %r13,%r10
    b0f8:	41 b9 ff ff ff ff    	mov    $0xffffffff,%r9d
    b0fe:	44 89 f2             	mov    %r14d,%edx
    b101:	49 8d 7c 24 0c       	lea    0xc(%r12),%rdi
    b106:	b8 ca 00 00 00       	mov    $0xca,%eax
    b10b:	0f 05                	syscall 
    b10d:	48 89 c2             	mov    %rax,%rdx
    b110:	be 01 00 00 00       	mov    $0x1,%esi
    b115:	31 c0                	xor    %eax,%eax
    b117:	f0 41 0f b1 34 24    	lock cmpxchg %esi,(%r12)
    b11d:	0f 85 89 00 00 00    	jne    b1ac <pthread_rwlock_timedwrlock+0x13c>
    b123:	41 ff 4c 24 14       	decl   0x14(%r12)
    b128:	48 83 fa 92          	cmp    $0xffffffffffffff92,%rdx
    b12c:	0f 85 5f ff ff ff    	jne    b091 <pthread_rwlock_timedwrlock+0x21>
    b132:	ba 6e 00 00 00       	mov    $0x6e,%edx
    b137:	eb 0f                	jmp    b148 <pthread_rwlock_timedwrlock+0xd8>
    b139:	31 d2                	xor    %edx,%edx
    b13b:	64 8b 04 25 d0 02 00 	mov    %fs:0x2d0,%eax
    b142:	00 
    b143:	41 89 44 24 18       	mov    %eax,0x18(%r12)
    b148:	f0 41 ff 0c 24       	lock decl (%r12)
    b14d:	75 30                	jne    b17f <pthread_rwlock_timedwrlock+0x10f>
    b14f:	48 89 d0             	mov    %rdx,%rax
    b152:	48 83 c4 10          	add    $0x10,%rsp
    b156:	41 5e                	pop    %r14
    b158:	41 5d                	pop    %r13
    b15a:	41 5c                	pop    %r12
    b15c:	c3                   	retq   
    b15d:	8b 77 1c             	mov    0x1c(%rdi),%esi
    b160:	e8 6b 32 00 00       	callq  e3d0 <__lll_lock_wait>
    b165:	e9 27 ff ff ff       	jmpq   b091 <pthread_rwlock_timedwrlock+0x21>
    b16a:	64 3b 04 25 d0 02 00 	cmp    %fs:0x2d0,%eax
    b171:	00 
    b172:	0f 85 32 ff ff ff    	jne    b0aa <pthread_rwlock_timedwrlock+0x3a>
    b178:	ba 23 00 00 00       	mov    $0x23,%edx
    b17d:	eb c9                	jmp    b148 <pthread_rwlock_timedwrlock+0xd8>
    b17f:	41 8b 74 24 1c       	mov    0x1c(%r12),%esi
    b184:	4c 89 e7             	mov    %r12,%rdi
    b187:	e8 d4 33 00 00       	callq  e560 <__lll_unlock_wake>
    b18c:	eb c1                	jmp    b14f <pthread_rwlock_timedwrlock+0xdf>
    b18e:	41 ff 4c 24 14       	decl   0x14(%r12)
    b193:	ba 0b 00 00 00       	mov    $0xb,%edx
    b198:	eb ae                	jmp    b148 <pthread_rwlock_timedwrlock+0xd8>
    b19a:	41 8b 74 24 1c       	mov    0x1c(%r12),%esi
    b19f:	4c 89 e7             	mov    %r12,%rdi
    b1a2:	e8 b9 33 00 00       	callq  e560 <__lll_unlock_wake>
    b1a7:	e9 27 ff ff ff       	jmpq   b0d3 <pthread_rwlock_timedwrlock+0x63>
    b1ac:	41 8b 74 24 1c       	mov    0x1c(%r12),%esi
    b1b1:	4c 89 e7             	mov    %r12,%rdi
    b1b4:	e8 17 32 00 00       	callq  e3d0 <__lll_lock_wait>
    b1b9:	e9 65 ff ff ff       	jmpq   b123 <pthread_rwlock_timedwrlock+0xb3>
    b1be:	48 c7 c2 92 ff ff ff 	mov    $0xffffffffffffff92,%rdx
    b1c5:	e9 46 ff ff ff       	jmpq   b110 <pthread_rwlock_timedwrlock+0xa0>
    b1ca:	ba 16 00 00 00       	mov    $0x16,%edx
    b1cf:	e9 74 ff ff ff       	jmpq   b148 <pthread_rwlock_timedwrlock+0xd8>
    b1d4:	48 89 e7             	mov    %rsp,%rdi
    b1d7:	31 f6                	xor    %esi,%esi
    b1d9:	e8 f2 a1 ff ff       	callq  53d0 <__gettimeofday@plt>
    b1de:	48 8b 44 24 08       	mov    0x8(%rsp),%rax
    b1e3:	bf e8 03 00 00       	mov    $0x3e8,%edi
    b1e8:	48 f7 e7             	mul    %rdi
    b1eb:	49 8b 4d 00          	mov    0x0(%r13),%rcx
    b1ef:	49 8b 7d 08          	mov    0x8(%r13),%rdi
    b1f3:	48 2b 0c 24          	sub    (%rsp),%rcx
    b1f7:	48 29 c7             	sub    %rax,%rdi
    b1fa:	79 0a                	jns    b206 <pthread_rwlock_timedwrlock+0x196>
    b1fc:	48 81 c7 00 ca 9a 3b 	add    $0x3b9aca00,%rdi
    b203:	48 ff c9             	dec    %rcx
    b206:	48 85 c9             	test   %rcx,%rcx
    b209:	78 b3                	js     b1be <pthread_rwlock_timedwrlock+0x14e>
    b20b:	48 89 0c 24          	mov    %rcx,(%rsp)
    b20f:	48 89 7c 24 08       	mov    %rdi,0x8(%rsp)
    b214:	41 8b 74 24 1c       	mov    0x1c(%r12),%esi
    b219:	64 33 34 25 48 00 00 	xor    %fs:0x48,%esi
    b220:	00 
    b221:	49 89 e2             	mov    %rsp,%r10
    b224:	44 89 f2             	mov    %r14d,%edx
    b227:	e9 d5 fe ff ff       	jmpq   b101 <pthread_rwlock_timedwrlock+0x91>
    b22c:	90                   	nop
    b22d:	90                   	nop
    b22e:	90                   	nop
    b22f:	90                   	nop

000000000000b230 <__pthread_rwlock_tryrdlock>:
    b230:	55                   	push   %rbp
    b231:	48 89 fa             	mov    %rdi,%rdx
    b234:	8b 77 1c             	mov    0x1c(%rdi),%esi
    b237:	31 c0                	xor    %eax,%eax
    b239:	bf 01 00 00 00       	mov    $0x1,%edi
    b23e:	48 89 e5             	mov    %rsp,%rbp
    b241:	f0 0f b1 3a          	lock cmpxchg %edi,(%rdx)
    b245:	75 47                	jne    b28e <_L_lock_11>
    b247:	8b 72 18             	mov    0x18(%rdx),%esi
    b24a:	85 f6                	test   %esi,%esi
    b24c:	75 22                	jne    b270 <__pthread_rwlock_tryrdlock+0x40>
    b24e:	8b 4a 14             	mov    0x14(%rdx),%ecx
    b251:	85 c9                	test   %ecx,%ecx
    b253:	74 07                	je     b25c <__pthread_rwlock_tryrdlock+0x2c>
    b255:	8b 42 30             	mov    0x30(%rdx),%eax
    b258:	85 c0                	test   %eax,%eax
    b25a:	75 14                	jne    b270 <__pthread_rwlock_tryrdlock+0x40>
    b25c:	8b 4a 04             	mov    0x4(%rdx),%ecx
    b25f:	8d 41 01             	lea    0x1(%rcx),%eax
    b262:	85 c0                	test   %eax,%eax
    b264:	89 42 04             	mov    %eax,0x4(%rdx)
    b267:	74 1a                	je     b283 <__pthread_rwlock_tryrdlock+0x53>
    b269:	45 31 c0             	xor    %r8d,%r8d
    b26c:	eb 08                	jmp    b276 <__pthread_rwlock_tryrdlock+0x46>
    b26e:	66 90                	xchg   %ax,%ax
    b270:	41 b8 10 00 00 00    	mov    $0x10,%r8d
    b276:	8b 72 1c             	mov    0x1c(%rdx),%esi
    b279:	f0 ff 0a             	lock decl (%rdx)
    b27c:	75 28                	jne    b2a6 <_L_unlock_40>
    b27e:	44 89 c0             	mov    %r8d,%eax
    b281:	c9                   	leaveq 
    b282:	c3                   	retq   
    b283:	89 4a 04             	mov    %ecx,0x4(%rdx)
    b286:	41 b8 0b 00 00 00    	mov    $0xb,%r8d
    b28c:	eb e8                	jmp    b276 <__pthread_rwlock_tryrdlock+0x46>

000000000000b28e <_L_lock_11>:
    b28e:	48 8d 3a             	lea    (%rdx),%rdi
    b291:	48 81 ec 80 00 00 00 	sub    $0x80,%rsp
    b298:	e8 33 31 00 00       	callq  e3d0 <__lll_lock_wait>
    b29d:	48 81 c4 80 00 00 00 	add    $0x80,%rsp
    b2a4:	eb a1                	jmp    b247 <__pthread_rwlock_tryrdlock+0x17>

000000000000b2a6 <_L_unlock_40>:
    b2a6:	48 8d 3a             	lea    (%rdx),%rdi
    b2a9:	48 81 ec 80 00 00 00 	sub    $0x80,%rsp
    b2b0:	e8 ab 32 00 00       	callq  e560 <__lll_unlock_wake>
    b2b5:	48 81 c4 80 00 00 00 	add    $0x80,%rsp
    b2bc:	eb c0                	jmp    b27e <__pthread_rwlock_tryrdlock+0x4e>
    b2be:	90                   	nop
    b2bf:	90                   	nop

000000000000b2c0 <__pthread_rwlock_trywrlock>:
    b2c0:	55                   	push   %rbp
    b2c1:	48 89 fa             	mov    %rdi,%rdx
    b2c4:	8b 77 1c             	mov    0x1c(%rdi),%esi
    b2c7:	31 c0                	xor    %eax,%eax
    b2c9:	bf 01 00 00 00       	mov    $0x1,%edi
    b2ce:	48 89 e5             	mov    %rsp,%rbp
    b2d1:	f0 0f b1 3a          	lock cmpxchg %edi,(%rdx)
    b2d5:	75 39                	jne    b310 <_L_lock_11>
    b2d7:	8b 4a 18             	mov    0x18(%rdx),%ecx
    b2da:	85 c9                	test   %ecx,%ecx
    b2dc:	75 07                	jne    b2e5 <__pthread_rwlock_trywrlock+0x25>
    b2de:	8b 42 04             	mov    0x4(%rdx),%eax
    b2e1:	85 c0                	test   %eax,%eax
    b2e3:	74 1b                	je     b300 <__pthread_rwlock_trywrlock+0x40>
    b2e5:	41 b8 10 00 00 00    	mov    $0x10,%r8d
    b2eb:	8b 72 1c             	mov    0x1c(%rdx),%esi
    b2ee:	f0 ff 0a             	lock decl (%rdx)
    b2f1:	75 35                	jne    b328 <_L_unlock_25>
    b2f3:	44 89 c0             	mov    %r8d,%eax
    b2f6:	c9                   	leaveq 
    b2f7:	c3                   	retq   
    b2f8:	0f 1f 84 00 00 00 00 	nopl   0x0(%rax,%rax,1)
    b2ff:	00 
    b300:	64 8b 04 25 d0 02 00 	mov    %fs:0x2d0,%eax
    b307:	00 
    b308:	45 31 c0             	xor    %r8d,%r8d
    b30b:	89 42 18             	mov    %eax,0x18(%rdx)
    b30e:	eb db                	jmp    b2eb <__pthread_rwlock_trywrlock+0x2b>

000000000000b310 <_L_lock_11>:
    b310:	48 8d 3a             	lea    (%rdx),%rdi
    b313:	48 81 ec 80 00 00 00 	sub    $0x80,%rsp
    b31a:	e8 b1 30 00 00       	callq  e3d0 <__lll_lock_wait>
    b31f:	48 81 c4 80 00 00 00 	add    $0x80,%rsp
    b326:	eb af                	jmp    b2d7 <__pthread_rwlock_trywrlock+0x17>

000000000000b328 <_L_unlock_25>:
    b328:	48 8d 3a             	lea    (%rdx),%rdi
    b32b:	48 81 ec 80 00 00 00 	sub    $0x80,%rsp
    b332:	e8 29 32 00 00       	callq  e560 <__lll_unlock_wake>
    b337:	48 81 c4 80 00 00 00 	add    $0x80,%rsp
    b33e:	eb b3                	jmp    b2f3 <__pthread_rwlock_trywrlock+0x33>

000000000000b340 <__pthread_rwlock_unlock>:
    b340:	be 01 00 00 00       	mov    $0x1,%esi
    b345:	31 c0                	xor    %eax,%eax
    b347:	f0 0f b1 37          	lock cmpxchg %esi,(%rdi)
    b34b:	75 6b                	jne    b3b8 <__pthread_rwlock_unlock+0x78>
    b34d:	83 7f 18 00          	cmpl   $0x0,0x18(%rdi)
    b351:	75 05                	jne    b358 <__pthread_rwlock_unlock+0x18>
    b353:	ff 4f 04             	decl   0x4(%rdi)
    b356:	75 58                	jne    b3b0 <__pthread_rwlock_unlock+0x70>
    b358:	c7 47 18 00 00 00 00 	movl   $0x0,0x18(%rdi)
    b35f:	ba 01 00 00 00       	mov    $0x1,%edx
    b364:	4c 8d 57 0c          	lea    0xc(%rdi),%r10
    b368:	83 7f 14 00          	cmpl   $0x0,0x14(%rdi)
    b36c:	75 0f                	jne    b37d <__pthread_rwlock_unlock+0x3d>
    b36e:	83 7f 10 00          	cmpl   $0x0,0x10(%rdi)
    b372:	74 3c                	je     b3b0 <__pthread_rwlock_unlock+0x70>
    b374:	ba ff ff ff 7f       	mov    $0x7fffffff,%edx
    b379:	4c 8d 57 08          	lea    0x8(%rdi),%r10
    b37d:	41 ff 02             	incl   (%r10)
    b380:	f0 ff 0f             	lock decl (%rdi)
    b383:	75 47                	jne    b3cc <__pthread_rwlock_unlock+0x8c>
    b385:	be 01 00 00 00       	mov    $0x1,%esi
    b38a:	0b 77 1c             	or     0x1c(%rdi),%esi
    b38d:	64 33 34 25 48 00 00 	xor    %fs:0x48,%esi
    b394:	00 
    b395:	b8 ca 00 00 00       	mov    $0xca,%eax
    b39a:	4c 89 d7             	mov    %r10,%rdi
    b39d:	0f 05                	syscall 
    b39f:	31 c0                	xor    %eax,%eax
    b3a1:	c3                   	retq   
    b3a2:	66 66 66 66 66 2e 0f 	data32 data32 data32 data32 nopw %cs:0x0(%rax,%rax,1)
    b3a9:	1f 84 00 00 00 00 00 
    b3b0:	f0 ff 0f             	lock decl (%rdi)
    b3b3:	75 0d                	jne    b3c2 <__pthread_rwlock_unlock+0x82>
    b3b5:	31 c0                	xor    %eax,%eax
    b3b7:	c3                   	retq   
    b3b8:	8b 77 1c             	mov    0x1c(%rdi),%esi
    b3bb:	e8 10 30 00 00       	callq  e3d0 <__lll_lock_wait>
    b3c0:	eb 8b                	jmp    b34d <__pthread_rwlock_unlock+0xd>
    b3c2:	8b 77 1c             	mov    0x1c(%rdi),%esi
    b3c5:	e8 96 31 00 00       	callq  e560 <__lll_unlock_wake>
    b3ca:	eb e9                	jmp    b3b5 <__pthread_rwlock_unlock+0x75>
    b3cc:	8b 77 1c             	mov    0x1c(%rdi),%esi
    b3cf:	e8 8c 31 00 00       	callq  e560 <__lll_unlock_wake>
    b3d4:	eb af                	jmp    b385 <__pthread_rwlock_unlock+0x45>
    b3d6:	90                   	nop
    b3d7:	90                   	nop
    b3d8:	90                   	nop
    b3d9:	90                   	nop
    b3da:	90                   	nop
    b3db:	90                   	nop
    b3dc:	90                   	nop
    b3dd:	90                   	nop
    b3de:	90                   	nop
    b3df:	90                   	nop

000000000000b3e0 <pthread_rwlockattr_init>:
    b3e0:	55                   	push   %rbp
    b3e1:	c7 07 00 00 00 00    	movl   $0x0,(%rdi)
    b3e7:	31 c0                	xor    %eax,%eax
    b3e9:	c7 47 04 00 00 00 00 	movl   $0x0,0x4(%rdi)
    b3f0:	48 89 e5             	mov    %rsp,%rbp
    b3f3:	c9                   	leaveq 
    b3f4:	c3                   	retq   
    b3f5:	90                   	nop
    b3f6:	90                   	nop
    b3f7:	90                   	nop
    b3f8:	90                   	nop
    b3f9:	90                   	nop
    b3fa:	90                   	nop
    b3fb:	90                   	nop
    b3fc:	90                   	nop
    b3fd:	90                   	nop
    b3fe:	90                   	nop
    b3ff:	90                   	nop

000000000000b400 <pthread_rwlockattr_destroy>:
    b400:	55                   	push   %rbp
    b401:	31 c0                	xor    %eax,%eax
    b403:	48 89 e5             	mov    %rsp,%rbp
    b406:	c9                   	leaveq 
    b407:	c3                   	retq   
    b408:	90                   	nop
    b409:	90                   	nop
    b40a:	90                   	nop
    b40b:	90                   	nop
    b40c:	90                   	nop
    b40d:	90                   	nop
    b40e:	90                   	nop
    b40f:	90                   	nop

000000000000b410 <pthread_rwlockattr_getpshared>:
    b410:	8b 47 04             	mov    0x4(%rdi),%eax
    b413:	55                   	push   %rbp
    b414:	48 89 e5             	mov    %rsp,%rbp
    b417:	89 06                	mov    %eax,(%rsi)
    b419:	31 c0                	xor    %eax,%eax
    b41b:	c9                   	leaveq 
    b41c:	c3                   	retq   
    b41d:	90                   	nop
    b41e:	90                   	nop
    b41f:	90                   	nop

000000000000b420 <pthread_rwlockattr_setpshared>:
    b420:	55                   	push   %rbp
    b421:	83 fe 01             	cmp    $0x1,%esi
    b424:	48 89 e5             	mov    %rsp,%rbp
    b427:	74 04                	je     b42d <pthread_rwlockattr_setpshared+0xd>
    b429:	85 f6                	test   %esi,%esi
    b42b:	75 07                	jne    b434 <pthread_rwlockattr_setpshared+0x14>
    b42d:	89 77 04             	mov    %esi,0x4(%rdi)
    b430:	31 c0                	xor    %eax,%eax
    b432:	c9                   	leaveq 
    b433:	c3                   	retq   
    b434:	b8 16 00 00 00       	mov    $0x16,%eax
    b439:	c9                   	leaveq 
    b43a:	c3                   	retq   
    b43b:	90                   	nop
    b43c:	90                   	nop
    b43d:	90                   	nop
    b43e:	90                   	nop
    b43f:	90                   	nop

000000000000b440 <pthread_rwlockattr_getkind_np>:
    b440:	8b 07                	mov    (%rdi),%eax
    b442:	55                   	push   %rbp
    b443:	48 89 e5             	mov    %rsp,%rbp
    b446:	89 06                	mov    %eax,(%rsi)
    b448:	31 c0                	xor    %eax,%eax
    b44a:	c9                   	leaveq 
    b44b:	c3                   	retq   
    b44c:	90                   	nop
    b44d:	90                   	nop
    b44e:	90                   	nop
    b44f:	90                   	nop

000000000000b450 <pthread_rwlockattr_setkind_np>:
    b450:	55                   	push   %rbp
    b451:	83 fe 02             	cmp    $0x2,%esi
    b454:	48 89 e5             	mov    %rsp,%rbp
    b457:	74 09                	je     b462 <pthread_rwlockattr_setkind_np+0x12>
    b459:	85 f6                	test   %esi,%esi
    b45b:	74 05                	je     b462 <pthread_rwlockattr_setkind_np+0x12>
    b45d:	83 fe 01             	cmp    $0x1,%esi
    b460:	75 06                	jne    b468 <pthread_rwlockattr_setkind_np+0x18>
    b462:	89 37                	mov    %esi,(%rdi)
    b464:	31 c0                	xor    %eax,%eax
    b466:	c9                   	leaveq 
    b467:	c3                   	retq   
    b468:	b8 16 00 00 00       	mov    $0x16,%eax
    b46d:	c9                   	leaveq 
    b46e:	66 90                	xchg   %ax,%ax
    b470:	c3                   	retq   
    b471:	90                   	nop
    b472:	90                   	nop
    b473:	90                   	nop
    b474:	90                   	nop
    b475:	90                   	nop
    b476:	90                   	nop
    b477:	90                   	nop
    b478:	90                   	nop
    b479:	90                   	nop
    b47a:	90                   	nop
    b47b:	90                   	nop
    b47c:	90                   	nop
    b47d:	90                   	nop
    b47e:	90                   	nop
    b47f:	90                   	nop

000000000000b480 <pthread_cond_init@@GLIBC_2.3.2>:
    b480:	55                   	push   %rbp
    b481:	48 85 f6             	test   %rsi,%rsi
    b484:	c7 07 00 00 00 00    	movl   $0x0,(%rdi)
    b48a:	c7 47 04 00 00 00 00 	movl   $0x0,0x4(%rdi)
    b491:	48 89 e5             	mov    %rsp,%rbp
    b494:	74 42                	je     b4d8 <pthread_cond_init@@GLIBC_2.3.2+0x58>
    b496:	8b 06                	mov    (%rsi),%eax
    b498:	48 c7 47 08 00 00 00 	movq   $0x0,0x8(%rdi)
    b49f:	00 
    b4a0:	48 c7 47 10 00 00 00 	movq   $0x0,0x10(%rdi)
    b4a7:	00 
    b4a8:	48 c7 47 18 00 00 00 	movq   $0x0,0x18(%rdi)
    b4af:	00 
    b4b0:	d1 f8                	sar    %eax
    b4b2:	83 e0 01             	and    $0x1,%eax
    b4b5:	89 47 28             	mov    %eax,0x28(%rdi)
    b4b8:	8b 06                	mov    (%rsi),%eax
    b4ba:	c7 47 2c 00 00 00 00 	movl   $0x0,0x2c(%rdi)
    b4c1:	48 c1 e0 3f          	shl    $0x3f,%rax
    b4c5:	48 c1 f8 3f          	sar    $0x3f,%rax
    b4c9:	48 89 47 20          	mov    %rax,0x20(%rdi)
    b4cd:	31 c0                	xor    %eax,%eax
    b4cf:	c9                   	leaveq 
    b4d0:	c3                   	retq   
    b4d1:	0f 1f 80 00 00 00 00 	nopl   0x0(%rax)
    b4d8:	31 c0                	xor    %eax,%eax
    b4da:	c7 47 28 00 00 00 00 	movl   $0x0,0x28(%rdi)
    b4e1:	48 c7 47 08 00 00 00 	movq   $0x0,0x8(%rdi)
    b4e8:	00 
    b4e9:	48 89 47 20          	mov    %rax,0x20(%rdi)
    b4ed:	48 c7 47 10 00 00 00 	movq   $0x0,0x10(%rdi)
    b4f4:	00 
    b4f5:	31 c0                	xor    %eax,%eax
    b4f7:	48 c7 47 18 00 00 00 	movq   $0x0,0x18(%rdi)
    b4fe:	00 
    b4ff:	c7 47 2c 00 00 00 00 	movl   $0x0,0x2c(%rdi)
    b506:	c9                   	leaveq 
    b507:	c3                   	retq   
    b508:	90                   	nop
    b509:	90                   	nop
    b50a:	90                   	nop
    b50b:	90                   	nop
    b50c:	90                   	nop
    b50d:	90                   	nop
    b50e:	90                   	nop
    b50f:	90                   	nop

000000000000b510 <pthread_cond_destroy@@GLIBC_2.3.2>:
    b510:	55                   	push   %rbp
    b511:	49 89 f8             	mov    %rdi,%r8
    b514:	48 89 e5             	mov    %rsp,%rbp
    b517:	48 89 5d d8          	mov    %rbx,-0x28(%rbp)
    b51b:	4c 89 65 e0          	mov    %r12,-0x20(%rbp)
    b51f:	4c 89 6d e8          	mov    %r13,-0x18(%rbp)
    b523:	4c 89 75 f0          	mov    %r14,-0x10(%rbp)
    b527:	4c 89 7d f8          	mov    %r15,-0x8(%rbp)
    b52b:	48 83 7f 20 ff       	cmpq   $0xffffffffffffffff,0x20(%rdi)
    b530:	0f 84 5a 01 00 00    	je     b690 <pthread_cond_destroy@@GLIBC_2.3.2+0x180>
    b536:	be 01 00 00 00       	mov    $0x1,%esi
    b53b:	31 c0                	xor    %eax,%eax
    b53d:	f0 41 0f b1 30       	lock cmpxchg %esi,(%r8)
    b542:	0f 85 6c 01 00 00    	jne    b6b4 <_L_lock_19>
    b548:	bb 01 00 00 00       	mov    $0x1,%ebx
    b54d:	45 31 e4             	xor    %r12d,%r12d
    b550:	49 8b 40 10          	mov    0x10(%r8),%rax
    b554:	49 39 40 08          	cmp    %rax,0x8(%r8)
    b558:	76 26                	jbe    b580 <pthread_cond_destroy@@GLIBC_2.3.2+0x70>
    b55a:	84 db                	test   %bl,%bl
    b55c:	0f 84 fe 00 00 00    	je     b660 <pthread_cond_destroy@@GLIBC_2.3.2+0x150>
    b562:	f0 41 ff 08          	lock decl (%r8)
    b566:	0f 85 63 01 00 00    	jne    b6cf <_L_unlock_32>
    b56c:	b8 10 00 00 00       	mov    $0x10,%eax
    b571:	e9 cc 00 00 00       	jmpq   b642 <pthread_cond_destroy@@GLIBC_2.3.2+0x132>
    b576:	66 2e 0f 1f 84 00 00 	nopw   %cs:0x0(%rax,%rax,1)
    b57d:	00 00 00 
    b580:	45 8b 48 28          	mov    0x28(%r8),%r9d
    b584:	49 c7 40 08 ff ff ff 	movq   $0xffffffffffffffff,0x8(%r8)
    b58b:	ff 
    b58c:	41 83 f9 01          	cmp    $0x1,%r9d
    b590:	0f 86 aa 00 00 00    	jbe    b640 <pthread_cond_destroy@@GLIBC_2.3.2+0x130>
    b596:	49 8b 78 20          	mov    0x20(%r8),%rdi
    b59a:	48 8d 47 ff          	lea    -0x1(%rdi),%rax
    b59e:	48 83 f8 fd          	cmp    $0xfffffffffffffffd,%rax
    b5a2:	77 22                	ja     b5c6 <pthread_cond_destroy@@GLIBC_2.3.2+0xb6>
    b5a4:	8b 77 10             	mov    0x10(%rdi),%esi
    b5a7:	ba ff ff ff 7f       	mov    $0x7fffffff,%edx
    b5ac:	b8 ca 00 00 00       	mov    $0xca,%eax
    b5b1:	f7 d6                	not    %esi
    b5b3:	81 e6 80 00 00 00    	and    $0x80,%esi
    b5b9:	64 23 34 25 48 00 00 	and    %fs:0x48,%esi
    b5c0:	00 
    b5c1:	83 ce 01             	or     $0x1,%esi
    b5c4:	0f 05                	syscall 
    b5c6:	4d 8d 68 28          	lea    0x28(%r8),%r13
    b5ca:	45 31 f6             	xor    %r14d,%r14d
    b5cd:	41 bf ca 00 00 00    	mov    $0xca,%r15d
    b5d3:	eb 4b                	jmp    b620 <pthread_cond_destroy@@GLIBC_2.3.2+0x110>
    b5d5:	0f 1f 00             	nopl   (%rax)
    b5d8:	f0 41 ff 08          	lock decl (%r8)
    b5dc:	0f 85 08 01 00 00    	jne    b6ea <_L_unlock_66>
    b5e2:	45 31 d2             	xor    %r10d,%r10d
    b5e5:	44 89 ca             	mov    %r9d,%edx
    b5e8:	31 f6                	xor    %esi,%esi
    b5ea:	45 85 e4             	test   %r12d,%r12d
    b5ed:	75 08                	jne    b5f7 <pthread_cond_destroy@@GLIBC_2.3.2+0xe7>
    b5ef:	64 8b 34 25 48 00 00 	mov    %fs:0x48,%esi
    b5f6:	00 
    b5f7:	44 89 f8             	mov    %r15d,%eax
    b5fa:	4c 89 ef             	mov    %r13,%rdi
    b5fd:	0f 05                	syscall 
    b5ff:	84 db                	test   %bl,%bl
    b601:	74 75                	je     b678 <pthread_cond_destroy@@GLIBC_2.3.2+0x168>
    b603:	be 01 00 00 00       	mov    $0x1,%esi
    b608:	44 89 f0             	mov    %r14d,%eax
    b60b:	f0 41 0f b1 30       	lock cmpxchg %esi,(%r8)
    b610:	0f 85 ef 00 00 00    	jne    b705 <_L_lock_87>
    b616:	45 8b 48 28          	mov    0x28(%r8),%r9d
    b61a:	41 83 f9 01          	cmp    $0x1,%r9d
    b61e:	76 20                	jbe    b640 <pthread_cond_destroy@@GLIBC_2.3.2+0x130>
    b620:	84 db                	test   %bl,%bl
    b622:	75 b4                	jne    b5d8 <pthread_cond_destroy@@GLIBC_2.3.2+0xc8>
    b624:	44 89 e6             	mov    %r12d,%esi
    b627:	f0 41 ff 08          	lock decl (%r8)
    b62b:	0f 85 ef 00 00 00    	jne    b720 <_L_unlock_99>
    b631:	45 31 d2             	xor    %r10d,%r10d
    b634:	44 89 ca             	mov    %r9d,%edx
    b637:	eb af                	jmp    b5e8 <pthread_cond_destroy@@GLIBC_2.3.2+0xd8>
    b639:	0f 1f 80 00 00 00 00 	nopl   0x0(%rax)
    b640:	31 c0                	xor    %eax,%eax
    b642:	48 8b 5d d8          	mov    -0x28(%rbp),%rbx
    b646:	4c 8b 65 e0          	mov    -0x20(%rbp),%r12
    b64a:	4c 8b 6d e8          	mov    -0x18(%rbp),%r13
    b64e:	4c 8b 75 f0          	mov    -0x10(%rbp),%r14
    b652:	4c 8b 7d f8          	mov    -0x8(%rbp),%r15
    b656:	c9                   	leaveq 
    b657:	c3                   	retq   
    b658:	0f 1f 84 00 00 00 00 	nopl   0x0(%rax,%rax,1)
    b65f:	00 
    b660:	44 89 e6             	mov    %r12d,%esi
    b663:	f0 41 ff 08          	lock decl (%r8)
    b667:	0f 85 ce 00 00 00    	jne    b73b <_L_unlock_123>
    b66d:	b8 10 00 00 00       	mov    $0x10,%eax
    b672:	eb ce                	jmp    b642 <pthread_cond_destroy@@GLIBC_2.3.2+0x132>
    b674:	0f 1f 40 00          	nopl   0x0(%rax)
    b678:	bf 01 00 00 00       	mov    $0x1,%edi
    b67d:	44 89 f0             	mov    %r14d,%eax
    b680:	44 89 e6             	mov    %r12d,%esi
    b683:	f0 41 0f b1 38       	lock cmpxchg %edi,(%r8)
    b688:	0f 85 c8 00 00 00    	jne    b756 <_L_lock_132>
    b68e:	eb 86                	jmp    b616 <pthread_cond_destroy@@GLIBC_2.3.2+0x106>
    b690:	bf 01 00 00 00       	mov    $0x1,%edi
    b695:	31 c0                	xor    %eax,%eax
    b697:	be 80 00 00 00       	mov    $0x80,%esi
    b69c:	f0 41 0f b1 38       	lock cmpxchg %edi,(%r8)
    b6a1:	0f 85 ca 00 00 00    	jne    b771 <_L_lock_140>
    b6a7:	31 db                	xor    %ebx,%ebx
    b6a9:	41 bc 80 00 00 00    	mov    $0x80,%r12d
    b6af:	e9 9c fe ff ff       	jmpq   b550 <pthread_cond_destroy@@GLIBC_2.3.2+0x40>

000000000000b6b4 <_L_lock_19>:
    b6b4:	49 8d 38             	lea    (%r8),%rdi
    b6b7:	48 81 ec 80 00 00 00 	sub    $0x80,%rsp
    b6be:	e8 dd 2c 00 00       	callq  e3a0 <__lll_lock_wait_private>
    b6c3:	48 81 c4 80 00 00 00 	add    $0x80,%rsp
    b6ca:	e9 79 fe ff ff       	jmpq   b548 <pthread_cond_destroy@@GLIBC_2.3.2+0x38>

000000000000b6cf <_L_unlock_32>:
    b6cf:	49 8d 38             	lea    (%r8),%rdi
    b6d2:	48 81 ec 80 00 00 00 	sub    $0x80,%rsp
    b6d9:	e8 52 2e 00 00       	callq  e530 <__lll_unlock_wake_private>
    b6de:	48 81 c4 80 00 00 00 	add    $0x80,%rsp
    b6e5:	e9 82 fe ff ff       	jmpq   b56c <pthread_cond_destroy@@GLIBC_2.3.2+0x5c>

000000000000b6ea <_L_unlock_66>:
    b6ea:	49 8d 38             	lea    (%r8),%rdi
    b6ed:	48 81 ec 80 00 00 00 	sub    $0x80,%rsp
    b6f4:	e8 37 2e 00 00       	callq  e530 <__lll_unlock_wake_private>
    b6f9:	48 81 c4 80 00 00 00 	add    $0x80,%rsp
    b700:	e9 dd fe ff ff       	jmpq   b5e2 <pthread_cond_destroy@@GLIBC_2.3.2+0xd2>

000000000000b705 <_L_lock_87>:
    b705:	49 8d 38             	lea    (%r8),%rdi
    b708:	48 81 ec 80 00 00 00 	sub    $0x80,%rsp
    b70f:	e8 8c 2c 00 00       	callq  e3a0 <__lll_lock_wait_private>
    b714:	48 81 c4 80 00 00 00 	add    $0x80,%rsp
    b71b:	e9 f6 fe ff ff       	jmpq   b616 <pthread_cond_destroy@@GLIBC_2.3.2+0x106>

000000000000b720 <_L_unlock_99>:
    b720:	49 8d 38             	lea    (%r8),%rdi
    b723:	48 81 ec 80 00 00 00 	sub    $0x80,%rsp
    b72a:	e8 31 2e 00 00       	callq  e560 <__lll_unlock_wake>
    b72f:	48 81 c4 80 00 00 00 	add    $0x80,%rsp
    b736:	e9 f6 fe ff ff       	jmpq   b631 <pthread_cond_destroy@@GLIBC_2.3.2+0x121>

000000000000b73b <_L_unlock_123>:
    b73b:	49 8d 38             	lea    (%r8),%rdi
    b73e:	48 81 ec 80 00 00 00 	sub    $0x80,%rsp
    b745:	e8 16 2e 00 00       	callq  e560 <__lll_unlock_wake>
    b74a:	48 81 c4 80 00 00 00 	add    $0x80,%rsp
    b751:	e9 17 ff ff ff       	jmpq   b66d <pthread_cond_destroy@@GLIBC_2.3.2+0x15d>

000000000000b756 <_L_lock_132>:
    b756:	49 8d 38             	lea    (%r8),%rdi
    b759:	48 81 ec 80 00 00 00 	sub    $0x80,%rsp
    b760:	e8 6b 2c 00 00       	callq  e3d0 <__lll_lock_wait>
    b765:	48 81 c4 80 00 00 00 	add    $0x80,%rsp
    b76c:	e9 1d ff ff ff       	jmpq   b68e <pthread_cond_destroy@@GLIBC_2.3.2+0x17e>

000000000000b771 <_L_lock_140>:
    b771:	49 8d 38             	lea    (%r8),%rdi
    b774:	48 81 ec 80 00 00 00 	sub    $0x80,%rsp
    b77b:	e8 50 2c 00 00       	callq  e3d0 <__lll_lock_wait>
    b780:	48 81 c4 80 00 00 00 	add    $0x80,%rsp
    b787:	e9 1b ff ff ff       	jmpq   b6a7 <pthread_cond_destroy@@GLIBC_2.3.2+0x197>
    b78c:	90                   	nop
    b78d:	90                   	nop
    b78e:	90                   	nop
    b78f:	90                   	nop

000000000000b790 <pthread_cond_wait@@GLIBC_2.3.2>:
    b790:	48 8d 64 24 d8       	lea    -0x28(%rsp),%rsp
    b795:	48 83 7f 20 ff       	cmpq   $0xffffffffffffffff,0x20(%rdi)
    b79a:	48 89 7c 24 08       	mov    %rdi,0x8(%rsp)
    b79f:	48 89 74 24 10       	mov    %rsi,0x10(%rsp)
    b7a4:	74 04                	je     b7aa <pthread_cond_wait@@GLIBC_2.3.2+0x1a>
    b7a6:	48 89 77 20          	mov    %rsi,0x20(%rdi)
    b7aa:	be 01 00 00 00       	mov    $0x1,%esi
    b7af:	31 c0                	xor    %eax,%eax
    b7b1:	f0 0f b1 37          	lock cmpxchg %esi,(%rdi)
    b7b5:	0f 85 6d 01 00 00    	jne    b928 <pthread_cond_wait@@GLIBC_2.3.2+0x198>
    b7bb:	48 8b 7c 24 10       	mov    0x10(%rsp),%rdi
    b7c0:	31 f6                	xor    %esi,%esi
    b7c2:	e8 49 f3 ff ff       	callq  ab10 <__pthread_mutex_unlock_usercnt>
    b7c7:	85 c0                	test   %eax,%eax
    b7c9:	0f 85 c9 01 00 00    	jne    b998 <pthread_cond_wait@@GLIBC_2.3.2+0x208>
    b7cf:	48 8b 7c 24 08       	mov    0x8(%rsp),%rdi
    b7d4:	48 ff 47 08          	incq   0x8(%rdi)
    b7d8:	ff 47 04             	incl   0x4(%rdi)
    b7db:	83 47 28 02          	addl   $0x2,0x28(%rdi)
    b7df:	48 8b 7c 24 08       	mov    0x8(%rsp),%rdi
    b7e4:	4c 8b 4f 10          	mov    0x10(%rdi),%r9
    b7e8:	8b 57 2c             	mov    0x2c(%rdi),%edx
    b7eb:	4c 89 4c 24 18       	mov    %r9,0x18(%rsp)
    b7f0:	89 54 24 04          	mov    %edx,0x4(%rsp)
    b7f4:	8b 57 04             	mov    0x4(%rdi),%edx
    b7f7:	f0 ff 0f             	lock decl (%rdi)
    b7fa:	0f 85 44 01 00 00    	jne    b944 <pthread_cond_wait@@GLIBC_2.3.2+0x1b4>
    b800:	e8 db 2a 00 00       	callq  e2e0 <__pthread_enable_asynccancel>
    b805:	89 04 24             	mov    %eax,(%rsp)
    b808:	4d 31 d2             	xor    %r10,%r10
    b80b:	48 83 7f 20 ff       	cmpq   $0xffffffffffffffff,0x20(%rdi)
    b810:	48 8d 7f 04          	lea    0x4(%rdi),%rdi
    b814:	be 00 00 00 00       	mov    $0x0,%esi
    b819:	74 37                	je     b852 <pthread_cond_wait@@GLIBC_2.3.2+0xc2>
    b81b:	4c 8b 47 1c          	mov    0x1c(%rdi),%r8
    b81f:	41 8b 40 10          	mov    0x10(%r8),%eax
    b823:	83 e0 30             	and    $0x30,%eax
    b826:	83 f8 20             	cmp    $0x20,%eax
    b829:	75 1f                	jne    b84a <pthread_cond_wait@@GLIBC_2.3.2+0xba>
    b82b:	be 8b 00 00 00       	mov    $0x8b,%esi
    b830:	b8 ca 00 00 00       	mov    $0xca,%eax
    b835:	0f 05                	syscall 
    b837:	83 f8 00             	cmp    $0x0,%eax
    b83a:	41 0f 94 c0          	sete   %r8b
    b83e:	74 1c                	je     b85c <pthread_cond_wait@@GLIBC_2.3.2+0xcc>
    b840:	83 f8 da             	cmp    $0xffffffda,%eax
    b843:	75 17                	jne    b85c <pthread_cond_wait@@GLIBC_2.3.2+0xcc>
    b845:	be 00 00 00 00       	mov    $0x0,%esi
    b84a:	64 0b 34 25 48 00 00 	or     %fs:0x48,%esi
    b851:	00 
    b852:	45 30 c0             	xor    %r8b,%r8b
    b855:	b8 ca 00 00 00       	mov    $0xca,%eax
    b85a:	0f 05                	syscall 
    b85c:	8b 3c 24             	mov    (%rsp),%edi
    b85f:	e8 dc 2a 00 00       	callq  e340 <__pthread_disable_asynccancel>
    b864:	48 8b 7c 24 08       	mov    0x8(%rsp),%rdi
    b869:	be 01 00 00 00       	mov    $0x1,%esi
    b86e:	31 c0                	xor    %eax,%eax
    b870:	f0 0f b1 37          	lock cmpxchg %esi,(%rdi)
    b874:	0f 85 e6 00 00 00    	jne    b960 <pthread_cond_wait@@GLIBC_2.3.2+0x1d0>
    b87a:	8b 57 2c             	mov    0x2c(%rdi),%edx
    b87d:	48 8b 47 18          	mov    0x18(%rdi),%rax
    b881:	4c 8b 4f 10          	mov    0x10(%rdi),%r9
    b885:	3b 54 24 04          	cmp    0x4(%rsp),%edx
    b889:	75 10                	jne    b89b <pthread_cond_wait@@GLIBC_2.3.2+0x10b>
    b88b:	4c 3b 4c 24 18       	cmp    0x18(%rsp),%r9
    b890:	76 6f                	jbe    b901 <pthread_cond_wait@@GLIBC_2.3.2+0x171>
    b892:	49 39 c1             	cmp    %rax,%r9
    b895:	76 6a                	jbe    b901 <pthread_cond_wait@@GLIBC_2.3.2+0x171>
    b897:	48 ff 47 18          	incq   0x18(%rdi)
    b89b:	83 6f 28 02          	subl   $0x2,0x28(%rdi)
    b89f:	48 83 7f 08 ff       	cmpq   $0xffffffffffffffff,0x8(%rdi)
    b8a4:	75 34                	jne    b8da <pthread_cond_wait@@GLIBC_2.3.2+0x14a>
    b8a6:	8b 47 28             	mov    0x28(%rdi),%eax
    b8a9:	83 e0 fe             	and    $0xfffffffe,%eax
    b8ac:	75 2c                	jne    b8da <pthread_cond_wait@@GLIBC_2.3.2+0x14a>
    b8ae:	48 83 c7 28          	add    $0x28,%rdi
    b8b2:	48 83 7f f8 ff       	cmpq   $0xffffffffffffffff,-0x8(%rdi)
    b8b7:	ba 01 00 00 00       	mov    $0x1,%edx
    b8bc:	b8 00 00 00 00       	mov    $0x0,%eax
    b8c1:	64 8b 34 25 48 00 00 	mov    %fs:0x48,%esi
    b8c8:	00 
    b8c9:	0f 44 f0             	cmove  %eax,%esi
    b8cc:	83 ce 01             	or     $0x1,%esi
    b8cf:	b8 ca 00 00 00       	mov    $0xca,%eax
    b8d4:	0f 05                	syscall 
    b8d6:	48 83 ef 28          	sub    $0x28,%rdi
    b8da:	f0 ff 0f             	lock decl (%rdi)
    b8dd:	0f 85 99 00 00 00    	jne    b97c <pthread_cond_wait@@GLIBC_2.3.2+0x1ec>
    b8e3:	48 8b 7c 24 10       	mov    0x10(%rsp),%rdi
    b8e8:	45 84 c0             	test   %r8b,%r8b
    b8eb:	75 0b                	jne    b8f8 <pthread_cond_wait@@GLIBC_2.3.2+0x168>
    b8ed:	e8 ee 58 00 00       	callq  111e0 <__pthread_mutex_cond_lock>
    b8f2:	48 8d 64 24 28       	lea    0x28(%rsp),%rsp
    b8f7:	c3                   	retq   
    b8f8:	e8 03 52 00 00       	callq  10b00 <__pthread_mutex_cond_lock_adjust>
    b8fd:	31 c0                	xor    %eax,%eax
    b8ff:	eb f1                	jmp    b8f2 <pthread_cond_wait@@GLIBC_2.3.2+0x162>
    b901:	45 84 c0             	test   %r8b,%r8b
    b904:	0f 84 ea fe ff ff    	je     b7f4 <pthread_cond_wait@@GLIBC_2.3.2+0x64>
    b90a:	48 8b 7c 24 10       	mov    0x10(%rsp),%rdi
    b90f:	e8 ec 51 00 00       	callq  10b00 <__pthread_mutex_cond_lock_adjust>
    b914:	49 89 f8             	mov    %rdi,%r8
    b917:	31 f6                	xor    %esi,%esi
    b919:	e8 f2 f1 ff ff       	callq  ab10 <__pthread_mutex_unlock_usercnt>
    b91e:	48 8b 7c 24 08       	mov    0x8(%rsp),%rdi
    b923:	e9 cc fe ff ff       	jmpq   b7f4 <pthread_cond_wait@@GLIBC_2.3.2+0x64>
    b928:	48 83 7f 20 ff       	cmpq   $0xffffffffffffffff,0x20(%rdi)
    b92d:	b8 00 00 00 00       	mov    $0x0,%eax
    b932:	be 80 00 00 00       	mov    $0x80,%esi
    b937:	0f 45 f0             	cmovne %eax,%esi
    b93a:	e8 91 2a 00 00       	callq  e3d0 <__lll_lock_wait>
    b93f:	e9 77 fe ff ff       	jmpq   b7bb <pthread_cond_wait@@GLIBC_2.3.2+0x2b>
    b944:	48 83 7f 20 ff       	cmpq   $0xffffffffffffffff,0x20(%rdi)
    b949:	b8 00 00 00 00       	mov    $0x0,%eax
    b94e:	be 80 00 00 00       	mov    $0x80,%esi
    b953:	0f 45 f0             	cmovne %eax,%esi
    b956:	e8 05 2c 00 00       	callq  e560 <__lll_unlock_wake>
    b95b:	e9 a0 fe ff ff       	jmpq   b800 <pthread_cond_wait@@GLIBC_2.3.2+0x70>
    b960:	48 83 7f 20 ff       	cmpq   $0xffffffffffffffff,0x20(%rdi)
    b965:	b8 00 00 00 00       	mov    $0x0,%eax
    b96a:	be 80 00 00 00       	mov    $0x80,%esi
    b96f:	0f 45 f0             	cmovne %eax,%esi
    b972:	e8 59 2a 00 00       	callq  e3d0 <__lll_lock_wait>
    b977:	e9 fe fe ff ff       	jmpq   b87a <pthread_cond_wait@@GLIBC_2.3.2+0xea>
    b97c:	48 83 7f 20 ff       	cmpq   $0xffffffffffffffff,0x20(%rdi)
    b981:	b8 00 00 00 00       	mov    $0x0,%eax
    b986:	be 80 00 00 00       	mov    $0x80,%esi
    b98b:	0f 45 f0             	cmovne %eax,%esi
    b98e:	e8 cd 2b 00 00       	callq  e560 <__lll_unlock_wake>
    b993:	e9 4b ff ff ff       	jmpq   b8e3 <pthread_cond_wait@@GLIBC_2.3.2+0x153>
    b998:	49 89 c2             	mov    %rax,%r10
    b99b:	48 8b 7c 24 08       	mov    0x8(%rsp),%rdi
    b9a0:	f0 ff 0f             	lock decl (%rdi)
    b9a3:	74 17                	je     b9bc <pthread_cond_wait@@GLIBC_2.3.2+0x22c>
    b9a5:	48 83 7f 20 ff       	cmpq   $0xffffffffffffffff,0x20(%rdi)
    b9aa:	b8 00 00 00 00       	mov    $0x0,%eax
    b9af:	be 80 00 00 00       	mov    $0x80,%esi
    b9b4:	0f 45 f0             	cmovne %eax,%esi
    b9b7:	e8 a4 2b 00 00       	callq  e560 <__lll_unlock_wake>
    b9bc:	4c 89 d0             	mov    %r10,%rax
    b9bf:	e9 2e ff ff ff       	jmpq   b8f2 <pthread_cond_wait@@GLIBC_2.3.2+0x162>
    b9c4:	66 66 66 2e 0f 1f 84 	data32 data32 nopw %cs:0x0(%rax,%rax,1)
    b9cb:	00 00 00 00 00 

000000000000b9d0 <__condvar_cleanup1>:
    b9d0:	48 89 44 24 18       	mov    %rax,0x18(%rsp)
    b9d5:	48 8b 7c 24 08       	mov    0x8(%rsp),%rdi
    b9da:	be 01 00 00 00       	mov    $0x1,%esi
    b9df:	31 c0                	xor    %eax,%eax
    b9e1:	f0 0f b1 37          	lock cmpxchg %esi,(%rdi)
    b9e5:	74 17                	je     b9fe <__condvar_cleanup1+0x2e>
    b9e7:	48 83 7f 20 ff       	cmpq   $0xffffffffffffffff,0x20(%rdi)
    b9ec:	b8 00 00 00 00       	mov    $0x0,%eax
    b9f1:	be 80 00 00 00       	mov    $0x80,%esi
    b9f6:	0f 45 f0             	cmovne %eax,%esi
    b9f9:	e8 d2 29 00 00       	callq  e3d0 <__lll_lock_wait>
    b9fe:	8b 57 2c             	mov    0x2c(%rdi),%edx
    ba01:	3b 54 24 04          	cmp    0x4(%rsp),%edx
    ba05:	75 15                	jne    ba1c <__condvar_cleanup1+0x4c>
    ba07:	48 8b 47 08          	mov    0x8(%rdi),%rax
    ba0b:	48 3b 47 10          	cmp    0x10(%rdi),%rax
    ba0f:	76 07                	jbe    ba18 <__condvar_cleanup1+0x48>
    ba11:	48 ff 47 10          	incq   0x10(%rdi)
    ba15:	ff 47 04             	incl   0x4(%rdi)
    ba18:	48 ff 47 18          	incq   0x18(%rdi)
    ba1c:	83 6f 28 02          	subl   $0x2,0x28(%rdi)
    ba20:	31 c9                	xor    %ecx,%ecx
    ba22:	48 83 7f 08 ff       	cmpq   $0xffffffffffffffff,0x8(%rdi)
    ba27:	75 39                	jne    ba62 <__condvar_cleanup1+0x92>
    ba29:	8b 47 28             	mov    0x28(%rdi),%eax
    ba2c:	83 e0 fe             	and    $0xfffffffe,%eax
    ba2f:	75 31                	jne    ba62 <__condvar_cleanup1+0x92>
    ba31:	48 83 7f 20 ff       	cmpq   $0xffffffffffffffff,0x20(%rdi)
    ba36:	48 8d 7f 28          	lea    0x28(%rdi),%rdi
    ba3a:	ba 01 00 00 00       	mov    $0x1,%edx
    ba3f:	b8 00 00 00 00       	mov    $0x0,%eax
    ba44:	64 8b 34 25 48 00 00 	mov    %fs:0x48,%esi
    ba4b:	00 
    ba4c:	0f 44 f0             	cmove  %eax,%esi
    ba4f:	83 ce 01             	or     $0x1,%esi
    ba52:	b8 ca 00 00 00       	mov    $0xca,%eax
    ba57:	0f 05                	syscall 
    ba59:	48 83 ef 28          	sub    $0x28,%rdi
    ba5d:	b9 01 00 00 00       	mov    $0x1,%ecx
    ba62:	f0 ff 0f             	lock decl (%rdi)
    ba65:	74 17                	je     ba7e <__condvar_cleanup1+0xae>
    ba67:	48 83 7f 20 ff       	cmpq   $0xffffffffffffffff,0x20(%rdi)
    ba6c:	b8 00 00 00 00       	mov    $0x0,%eax
    ba71:	be 80 00 00 00       	mov    $0x80,%esi
    ba76:	0f 45 f0             	cmovne %eax,%esi
    ba79:	e8 e2 2a 00 00       	callq  e560 <__lll_unlock_wake>
    ba7e:	85 c9                	test   %ecx,%ecx
    ba80:	75 28                	jne    baaa <__condvar_cleanup1+0xda>
    ba82:	48 83 c7 04          	add    $0x4,%rdi
    ba86:	48 83 7f 1c ff       	cmpq   $0xffffffffffffffff,0x1c(%rdi)
    ba8b:	ba ff ff ff 7f       	mov    $0x7fffffff,%edx
    ba90:	b8 00 00 00 00       	mov    $0x0,%eax
    ba95:	64 8b 34 25 48 00 00 	mov    %fs:0x48,%esi
    ba9c:	00 
    ba9d:	0f 44 f0             	cmove  %eax,%esi
    baa0:	83 ce 01             	or     $0x1,%esi
    baa3:	b8 ca 00 00 00       	mov    $0xca,%eax
    baa8:	0f 05                	syscall 
    baaa:	48 8b 7c 24 10       	mov    0x10(%rsp),%rdi
    baaf:	8b 47 10             	mov    0x10(%rdi),%eax
    bab2:	83 e0 30             	and    $0x30,%eax
    bab5:	83 f8 20             	cmp    $0x20,%eax
    bab8:	75 18                	jne    bad2 <__condvar_cleanup1+0x102>
    baba:	8b 07                	mov    (%rdi),%eax
    babc:	25 ff ff ff 3f       	and    $0x3fffffff,%eax
    bac1:	64 39 04 25 d0 02 00 	cmp    %eax,%fs:0x2d0
    bac8:	00 
    bac9:	75 07                	jne    bad2 <__condvar_cleanup1+0x102>
    bacb:	e8 30 50 00 00       	callq  10b00 <__pthread_mutex_cond_lock_adjust>
    bad0:	eb 05                	jmp    bad7 <__condvar_cleanup1+0x107>
    bad2:	e8 09 57 00 00       	callq  111e0 <__pthread_mutex_cond_lock>
    bad7:	48 8b 7c 24 18       	mov    0x18(%rsp),%rdi
    badc:	e8 cf 45 00 00       	callq  100b0 <_Unwind_Resume>
    bae1:	f4                   	hlt    
    bae2:	90                   	nop
    bae3:	90                   	nop
    bae4:	90                   	nop
    bae5:	90                   	nop
    bae6:	90                   	nop
    bae7:	90                   	nop
    bae8:	90                   	nop
    bae9:	90                   	nop
    baea:	90                   	nop
    baeb:	90                   	nop
    baec:	90                   	nop
    baed:	90                   	nop
    baee:	90                   	nop
    baef:	90                   	nop

000000000000baf0 <pthread_cond_timedwait@@GLIBC_2.3.2>:
    baf0:	41 54                	push   %r12
    baf2:	41 55                	push   %r13
    baf4:	41 56                	push   %r14
    baf6:	41 57                	push   %r15
    baf8:	48 83 ec 38          	sub    $0x38,%rsp
    bafc:	48 81 7a 08 00 ca 9a 	cmpq   $0x3b9aca00,0x8(%rdx)
    bb03:	3b 
    bb04:	b8 16 00 00 00       	mov    $0x16,%eax
    bb09:	0f 83 fe 01 00 00    	jae    bd0d <pthread_cond_timedwait@@GLIBC_2.3.2+0x21d>
    bb0f:	48 83 7f 20 ff       	cmpq   $0xffffffffffffffff,0x20(%rdi)
    bb14:	48 89 7c 24 08       	mov    %rdi,0x8(%rsp)
    bb19:	48 89 74 24 10       	mov    %rsi,0x10(%rsp)
    bb1e:	49 89 d5             	mov    %rdx,%r13
    bb21:	74 04                	je     bb27 <pthread_cond_timedwait@@GLIBC_2.3.2+0x37>
    bb23:	48 89 77 20          	mov    %rsi,0x20(%rdi)
    bb27:	45 30 ff             	xor    %r15b,%r15b
    bb2a:	83 3d 17 08 21 00 00 	cmpl   $0x0,0x210817(%rip)        # 21c348 <__have_futex_clock_realtime>
    bb31:	0f 84 8b 02 00 00    	je     bdc2 <pthread_cond_timedwait@@GLIBC_2.3.2+0x2d2>
    bb37:	be 01 00 00 00       	mov    $0x1,%esi
    bb3c:	31 c0                	xor    %eax,%eax
    bb3e:	f0 0f b1 37          	lock cmpxchg %esi,(%rdi)
    bb42:	0f 85 dc 01 00 00    	jne    bd24 <pthread_cond_timedwait@@GLIBC_2.3.2+0x234>
    bb48:	48 8b 7c 24 10       	mov    0x10(%rsp),%rdi
    bb4d:	31 f6                	xor    %esi,%esi
    bb4f:	e8 bc ef ff ff       	callq  ab10 <__pthread_mutex_unlock_usercnt>
    bb54:	85 c0                	test   %eax,%eax
    bb56:	0f 85 38 02 00 00    	jne    bd94 <pthread_cond_timedwait@@GLIBC_2.3.2+0x2a4>
    bb5c:	48 8b 7c 24 08       	mov    0x8(%rsp),%rdi
    bb61:	48 ff 47 08          	incq   0x8(%rdi)
    bb65:	ff 47 04             	incl   0x4(%rdi)
    bb68:	83 47 28 02          	addl   $0x2,0x28(%rdi)
    bb6c:	48 8b 7c 24 08       	mov    0x8(%rsp),%rdi
    bb71:	4c 8b 4f 10          	mov    0x10(%rdi),%r9
    bb75:	8b 57 2c             	mov    0x2c(%rdi),%edx
    bb78:	4c 89 4c 24 18       	mov    %r9,0x18(%rsp)
    bb7d:	89 54 24 04          	mov    %edx,0x4(%rsp)
    bb81:	49 83 7d 00 00       	cmpq   $0x0,0x0(%r13)
    bb86:	49 c7 c6 92 ff ff ff 	mov    $0xffffffffffffff92,%r14
    bb8d:	0f 88 bc 00 00 00    	js     bc4f <pthread_cond_timedwait@@GLIBC_2.3.2+0x15f>
    bb93:	44 8b 67 04          	mov    0x4(%rdi),%r12d
    bb97:	f0 ff 0f             	lock decl (%rdi)
    bb9a:	0f 85 a0 01 00 00    	jne    bd40 <pthread_cond_timedwait@@GLIBC_2.3.2+0x250>
    bba0:	e8 3b 27 00 00       	callq  e2e0 <__pthread_enable_asynccancel>
    bba5:	89 04 24             	mov    %eax,(%rsp)
    bba8:	4d 89 ea             	mov    %r13,%r10
    bbab:	be 09 00 00 00       	mov    $0x9,%esi
    bbb0:	48 83 7f 20 ff       	cmpq   $0xffffffffffffffff,0x20(%rdi)
    bbb5:	74 4d                	je     bc04 <pthread_cond_timedwait@@GLIBC_2.3.2+0x114>
    bbb7:	4c 8b 47 20          	mov    0x20(%rdi),%r8
    bbbb:	41 8b 40 10          	mov    0x10(%r8),%eax
    bbbf:	83 e0 30             	and    $0x30,%eax
    bbc2:	83 f8 20             	cmp    $0x20,%eax
    bbc5:	75 38                	jne    bbff <pthread_cond_timedwait@@GLIBC_2.3.2+0x10f>
    bbc7:	be 8b 00 00 00       	mov    $0x8b,%esi
    bbcc:	31 c0                	xor    %eax,%eax
    bbce:	f7 47 28 01 00 00 00 	testl  $0x1,0x28(%rdi)
    bbd5:	ba 00 01 00 00       	mov    $0x100,%edx
    bbda:	0f 44 c2             	cmove  %edx,%eax
    bbdd:	09 c6                	or     %eax,%esi
    bbdf:	4c 89 e2             	mov    %r12,%rdx
    bbe2:	48 83 c7 04          	add    $0x4,%rdi
    bbe6:	b8 ca 00 00 00       	mov    $0xca,%eax
    bbeb:	0f 05                	syscall 
    bbed:	83 f8 00             	cmp    $0x0,%eax
    bbf0:	41 0f 94 c7          	sete   %r15b
    bbf4:	74 38                	je     bc2e <pthread_cond_timedwait@@GLIBC_2.3.2+0x13e>
    bbf6:	83 f8 da             	cmp    $0xffffffda,%eax
    bbf9:	75 33                	jne    bc2e <pthread_cond_timedwait@@GLIBC_2.3.2+0x13e>
    bbfb:	48 83 ef 04          	sub    $0x4,%rdi
    bbff:	be 89 00 00 00       	mov    $0x89,%esi
    bc04:	45 30 ff             	xor    %r15b,%r15b
    bc07:	31 c0                	xor    %eax,%eax
    bc09:	f7 47 28 01 00 00 00 	testl  $0x1,0x28(%rdi)
    bc10:	ba 00 01 00 00       	mov    $0x100,%edx
    bc15:	41 b9 ff ff ff ff    	mov    $0xffffffff,%r9d
    bc1b:	0f 44 c2             	cmove  %edx,%eax
    bc1e:	09 c6                	or     %eax,%esi
    bc20:	4c 89 e2             	mov    %r12,%rdx
    bc23:	48 83 c7 04          	add    $0x4,%rdi
    bc27:	b8 ca 00 00 00       	mov    $0xca,%eax
    bc2c:	0f 05                	syscall 
    bc2e:	49 89 c6             	mov    %rax,%r14
    bc31:	8b 3c 24             	mov    (%rsp),%edi
    bc34:	e8 07 27 00 00       	callq  e340 <__pthread_disable_asynccancel>
    bc39:	48 8b 7c 24 08       	mov    0x8(%rsp),%rdi
    bc3e:	be 01 00 00 00       	mov    $0x1,%esi
    bc43:	31 c0                	xor    %eax,%eax
    bc45:	f0 0f b1 37          	lock cmpxchg %esi,(%rdi)
    bc49:	0f 85 0d 01 00 00    	jne    bd5c <pthread_cond_timedwait@@GLIBC_2.3.2+0x26c>
    bc4f:	8b 57 2c             	mov    0x2c(%rdi),%edx
    bc52:	48 8b 47 18          	mov    0x18(%rdi),%rax
    bc56:	4c 8b 4f 10          	mov    0x10(%rdi),%r9
    bc5a:	3b 54 24 04          	cmp    0x4(%rsp),%edx
    bc5e:	75 43                	jne    bca3 <pthread_cond_timedwait@@GLIBC_2.3.2+0x1b3>
    bc60:	4c 3b 4c 24 18       	cmp    0x18(%rsp),%r9
    bc65:	76 05                	jbe    bc6c <pthread_cond_timedwait@@GLIBC_2.3.2+0x17c>
    bc67:	49 39 c1             	cmp    %rax,%r9
    bc6a:	77 3c                	ja     bca8 <pthread_cond_timedwait@@GLIBC_2.3.2+0x1b8>
    bc6c:	49 83 fe 92          	cmp    $0xffffffffffffff92,%r14
    bc70:	74 22                	je     bc94 <pthread_cond_timedwait@@GLIBC_2.3.2+0x1a4>
    bc72:	45 84 ff             	test   %r15b,%r15b
    bc75:	0f 84 18 ff ff ff    	je     bb93 <pthread_cond_timedwait@@GLIBC_2.3.2+0xa3>
    bc7b:	4c 89 c7             	mov    %r8,%rdi
    bc7e:	e8 7d 4e 00 00       	callq  10b00 <__pthread_mutex_cond_lock_adjust>
    bc83:	31 f6                	xor    %esi,%esi
    bc85:	e8 86 ee ff ff       	callq  ab10 <__pthread_mutex_unlock_usercnt>
    bc8a:	48 8b 7c 24 08       	mov    0x8(%rsp),%rdi
    bc8f:	e9 ff fe ff ff       	jmpq   bb93 <pthread_cond_timedwait@@GLIBC_2.3.2+0xa3>
    bc94:	48 ff 47 10          	incq   0x10(%rdi)
    bc98:	ff 47 04             	incl   0x4(%rdi)
    bc9b:	41 be 6e 00 00 00    	mov    $0x6e,%r14d
    bca1:	eb 08                	jmp    bcab <pthread_cond_timedwait@@GLIBC_2.3.2+0x1bb>
    bca3:	4d 31 f6             	xor    %r14,%r14
    bca6:	eb 07                	jmp    bcaf <pthread_cond_timedwait@@GLIBC_2.3.2+0x1bf>
    bca8:	4d 31 f6             	xor    %r14,%r14
    bcab:	48 ff 47 18          	incq   0x18(%rdi)
    bcaf:	83 6f 28 02          	subl   $0x2,0x28(%rdi)
    bcb3:	48 83 7f 08 ff       	cmpq   $0xffffffffffffffff,0x8(%rdi)
    bcb8:	75 34                	jne    bcee <pthread_cond_timedwait@@GLIBC_2.3.2+0x1fe>
    bcba:	8b 47 28             	mov    0x28(%rdi),%eax
    bcbd:	83 e0 fe             	and    $0xfffffffe,%eax
    bcc0:	75 2c                	jne    bcee <pthread_cond_timedwait@@GLIBC_2.3.2+0x1fe>
    bcc2:	48 83 c7 28          	add    $0x28,%rdi
    bcc6:	48 83 7f f8 ff       	cmpq   $0xffffffffffffffff,-0x8(%rdi)
    bccb:	ba 01 00 00 00       	mov    $0x1,%edx
    bcd0:	b8 00 00 00 00       	mov    $0x0,%eax
    bcd5:	64 8b 34 25 48 00 00 	mov    %fs:0x48,%esi
    bcdc:	00 
    bcdd:	0f 44 f0             	cmove  %eax,%esi
    bce0:	83 ce 01             	or     $0x1,%esi
    bce3:	b8 ca 00 00 00       	mov    $0xca,%eax
    bce8:	0f 05                	syscall 
    bcea:	48 83 ef 28          	sub    $0x28,%rdi
    bcee:	f0 ff 0f             	lock decl (%rdi)
    bcf1:	0f 85 81 00 00 00    	jne    bd78 <pthread_cond_timedwait@@GLIBC_2.3.2+0x288>
    bcf7:	48 8b 7c 24 10       	mov    0x10(%rsp),%rdi
    bcfc:	45 84 ff             	test   %r15b,%r15b
    bcff:	75 19                	jne    bd1a <pthread_cond_timedwait@@GLIBC_2.3.2+0x22a>
    bd01:	e8 da 54 00 00       	callq  111e0 <__pthread_mutex_cond_lock>
    bd06:	48 85 c0             	test   %rax,%rax
    bd09:	49 0f 44 c6          	cmove  %r14,%rax
    bd0d:	48 83 c4 38          	add    $0x38,%rsp
    bd11:	41 5f                	pop    %r15
    bd13:	41 5e                	pop    %r14
    bd15:	41 5d                	pop    %r13
    bd17:	41 5c                	pop    %r12
    bd19:	c3                   	retq   
    bd1a:	e8 e1 4d 00 00       	callq  10b00 <__pthread_mutex_cond_lock_adjust>
    bd1f:	4c 89 f0             	mov    %r14,%rax
    bd22:	eb e9                	jmp    bd0d <pthread_cond_timedwait@@GLIBC_2.3.2+0x21d>
    bd24:	48 83 7f 20 ff       	cmpq   $0xffffffffffffffff,0x20(%rdi)
    bd29:	b8 00 00 00 00       	mov    $0x0,%eax
    bd2e:	be 80 00 00 00       	mov    $0x80,%esi
    bd33:	0f 45 f0             	cmovne %eax,%esi
    bd36:	e8 95 26 00 00       	callq  e3d0 <__lll_lock_wait>
    bd3b:	e9 08 fe ff ff       	jmpq   bb48 <pthread_cond_timedwait@@GLIBC_2.3.2+0x58>
    bd40:	48 83 7f 20 ff       	cmpq   $0xffffffffffffffff,0x20(%rdi)
    bd45:	b8 00 00 00 00       	mov    $0x0,%eax
    bd4a:	be 80 00 00 00       	mov    $0x80,%esi
    bd4f:	0f 45 f0             	cmovne %eax,%esi
    bd52:	e8 09 28 00 00       	callq  e560 <__lll_unlock_wake>
    bd57:	e9 44 fe ff ff       	jmpq   bba0 <pthread_cond_timedwait@@GLIBC_2.3.2+0xb0>
    bd5c:	48 83 7f 20 ff       	cmpq   $0xffffffffffffffff,0x20(%rdi)
    bd61:	b8 00 00 00 00       	mov    $0x0,%eax
    bd66:	be 80 00 00 00       	mov    $0x80,%esi
    bd6b:	0f 45 f0             	cmovne %eax,%esi
    bd6e:	e8 5d 26 00 00       	callq  e3d0 <__lll_lock_wait>
    bd73:	e9 d7 fe ff ff       	jmpq   bc4f <pthread_cond_timedwait@@GLIBC_2.3.2+0x15f>
    bd78:	48 83 7f 20 ff       	cmpq   $0xffffffffffffffff,0x20(%rdi)
    bd7d:	b8 00 00 00 00       	mov    $0x0,%eax
    bd82:	be 80 00 00 00       	mov    $0x80,%esi
    bd87:	0f 45 f0             	cmovne %eax,%esi
    bd8a:	e8 d1 27 00 00       	callq  e560 <__lll_unlock_wake>
    bd8f:	e9 63 ff ff ff       	jmpq   bcf7 <pthread_cond_timedwait@@GLIBC_2.3.2+0x207>
    bd94:	48 8b 7c 24 08       	mov    0x8(%rsp),%rdi
    bd99:	48 89 04 24          	mov    %rax,(%rsp)
    bd9d:	f0 ff 0f             	lock decl (%rdi)
    bda0:	75 17                	jne    bdb9 <pthread_cond_timedwait@@GLIBC_2.3.2+0x2c9>
    bda2:	48 83 7f 20 ff       	cmpq   $0xffffffffffffffff,0x20(%rdi)
    bda7:	b8 00 00 00 00       	mov    $0x0,%eax
    bdac:	be 80 00 00 00       	mov    $0x80,%esi
    bdb1:	0f 45 f0             	cmovne %eax,%esi
    bdb4:	e8 a7 27 00 00       	callq  e560 <__lll_unlock_wake>
    bdb9:	48 8b 04 24          	mov    (%rsp),%rax
    bdbd:	e9 4b ff ff ff       	jmpq   bd0d <pthread_cond_timedwait@@GLIBC_2.3.2+0x21d>
    bdc2:	be 01 00 00 00       	mov    $0x1,%esi
    bdc7:	31 c0                	xor    %eax,%eax
    bdc9:	f0 0f b1 37          	lock cmpxchg %esi,(%rdi)
    bdcd:	0f 85 25 01 00 00    	jne    bef8 <pthread_cond_timedwait@@GLIBC_2.3.2+0x408>
    bdd3:	48 8b 7c 24 10       	mov    0x10(%rsp),%rdi
    bdd8:	31 f6                	xor    %esi,%esi
    bdda:	e8 31 ed ff ff       	callq  ab10 <__pthread_mutex_unlock_usercnt>
    bddf:	85 c0                	test   %eax,%eax
    bde1:	75 b1                	jne    bd94 <pthread_cond_timedwait@@GLIBC_2.3.2+0x2a4>
    bde3:	48 8b 7c 24 08       	mov    0x8(%rsp),%rdi
    bde8:	48 ff 47 08          	incq   0x8(%rdi)
    bdec:	ff 47 04             	incl   0x4(%rdi)
    bdef:	83 47 28 02          	addl   $0x2,0x28(%rdi)
    bdf3:	48 8b 7c 24 08       	mov    0x8(%rsp),%rdi
    bdf8:	4c 8b 4f 10          	mov    0x10(%rdi),%r9
    bdfc:	8b 57 2c             	mov    0x2c(%rdi),%edx
    bdff:	4c 89 4c 24 18       	mov    %r9,0x18(%rsp)
    be04:	89 54 24 04          	mov    %edx,0x4(%rsp)
    be08:	48 8b 7c 24 08       	mov    0x8(%rsp),%rdi
    be0d:	8b 7f 28             	mov    0x28(%rdi),%edi
    be10:	83 e7 01             	and    $0x1,%edi
    be13:	48 8d 74 24 20       	lea    0x20(%rsp),%rsi
    be18:	48 8b 05 91 c1 20 00 	mov    0x20c191(%rip),%rax        # 217fb0 <_DYNAMIC+0x220>
    be1f:	48 8b 00             	mov    (%rax),%rax
    be22:	48 c1 c8 11          	ror    $0x11,%rax
    be26:	64 48 33 04 25 30 00 	xor    %fs:0x30,%rax
    be2d:	00 00 
    be2f:	ff d0                	callq  *%rax
    be31:	49 8b 4d 00          	mov    0x0(%r13),%rcx
    be35:	49 8b 55 08          	mov    0x8(%r13),%rdx
    be39:	48 2b 4c 24 20       	sub    0x20(%rsp),%rcx
    be3e:	48 2b 54 24 28       	sub    0x28(%rsp),%rdx
    be43:	79 0a                	jns    be4f <pthread_cond_timedwait@@GLIBC_2.3.2+0x35f>
    be45:	48 81 c2 00 ca 9a 3b 	add    $0x3b9aca00,%rdx
    be4c:	48 ff c9             	dec    %rcx
    be4f:	48 85 c9             	test   %rcx,%rcx
    be52:	48 8b 7c 24 08       	mov    0x8(%rsp),%rdi
    be57:	49 c7 c6 92 ff ff ff 	mov    $0xffffffffffffff92,%r14
    be5e:	78 64                	js     bec4 <pthread_cond_timedwait@@GLIBC_2.3.2+0x3d4>
    be60:	48 89 4c 24 20       	mov    %rcx,0x20(%rsp)
    be65:	48 89 54 24 28       	mov    %rdx,0x28(%rsp)
    be6a:	44 8b 67 04          	mov    0x4(%rdi),%r12d
    be6e:	f0 ff 0f             	lock decl (%rdi)
    be71:	0f 85 9d 00 00 00    	jne    bf14 <pthread_cond_timedwait@@GLIBC_2.3.2+0x424>
    be77:	e8 64 24 00 00       	callq  e2e0 <__pthread_enable_asynccancel>
    be7c:	89 04 24             	mov    %eax,(%rsp)
    be7f:	4c 8d 54 24 20       	lea    0x20(%rsp),%r10
    be84:	48 83 7f 20 ff       	cmpq   $0xffffffffffffffff,0x20(%rdi)
    be89:	4c 89 e2             	mov    %r12,%rdx
    be8c:	b8 00 00 00 00       	mov    $0x0,%eax
    be91:	64 8b 34 25 48 00 00 	mov    %fs:0x48,%esi
    be98:	00 
    be99:	0f 44 f0             	cmove  %eax,%esi
    be9c:	48 83 c7 04          	add    $0x4,%rdi
    bea0:	b8 ca 00 00 00       	mov    $0xca,%eax
    bea5:	0f 05                	syscall 
    bea7:	49 89 c6             	mov    %rax,%r14
    beaa:	8b 3c 24             	mov    (%rsp),%edi
    bead:	e8 8e 24 00 00       	callq  e340 <__pthread_disable_asynccancel>
    beb2:	48 8b 7c 24 08       	mov    0x8(%rsp),%rdi
    beb7:	be 01 00 00 00       	mov    $0x1,%esi
    bebc:	31 c0                	xor    %eax,%eax
    bebe:	f0 0f b1 37          	lock cmpxchg %esi,(%rdi)
    bec2:	75 6c                	jne    bf30 <pthread_cond_timedwait@@GLIBC_2.3.2+0x440>
    bec4:	8b 57 2c             	mov    0x2c(%rdi),%edx
    bec7:	48 8b 47 18          	mov    0x18(%rdi),%rax
    becb:	4c 8b 4f 10          	mov    0x10(%rdi),%r9
    becf:	3b 54 24 04          	cmp    0x4(%rsp),%edx
    bed3:	0f 85 ca fd ff ff    	jne    bca3 <pthread_cond_timedwait@@GLIBC_2.3.2+0x1b3>
    bed9:	4c 3b 4c 24 18       	cmp    0x18(%rsp),%r9
    bede:	76 09                	jbe    bee9 <pthread_cond_timedwait@@GLIBC_2.3.2+0x3f9>
    bee0:	49 39 c1             	cmp    %rax,%r9
    bee3:	0f 87 bf fd ff ff    	ja     bca8 <pthread_cond_timedwait@@GLIBC_2.3.2+0x1b8>
    bee9:	49 83 fe 92          	cmp    $0xffffffffffffff92,%r14
    beed:	0f 85 15 ff ff ff    	jne    be08 <pthread_cond_timedwait@@GLIBC_2.3.2+0x318>
    bef3:	e9 9c fd ff ff       	jmpq   bc94 <pthread_cond_timedwait@@GLIBC_2.3.2+0x1a4>
    bef8:	48 83 7f 20 ff       	cmpq   $0xffffffffffffffff,0x20(%rdi)
    befd:	b8 00 00 00 00       	mov    $0x0,%eax
    bf02:	be 80 00 00 00       	mov    $0x80,%esi
    bf07:	0f 45 f0             	cmovne %eax,%esi
    bf0a:	e8 c1 24 00 00       	callq  e3d0 <__lll_lock_wait>
    bf0f:	e9 bf fe ff ff       	jmpq   bdd3 <pthread_cond_timedwait@@GLIBC_2.3.2+0x2e3>
    bf14:	48 83 7f 20 ff       	cmpq   $0xffffffffffffffff,0x20(%rdi)
    bf19:	b8 00 00 00 00       	mov    $0x0,%eax
    bf1e:	be 80 00 00 00       	mov    $0x80,%esi
    bf23:	0f 45 f0             	cmovne %eax,%esi
    bf26:	e8 35 26 00 00       	callq  e560 <__lll_unlock_wake>
    bf2b:	e9 47 ff ff ff       	jmpq   be77 <pthread_cond_timedwait@@GLIBC_2.3.2+0x387>
    bf30:	48 83 7f 20 ff       	cmpq   $0xffffffffffffffff,0x20(%rdi)
    bf35:	b8 00 00 00 00       	mov    $0x0,%eax
    bf3a:	be 80 00 00 00       	mov    $0x80,%esi
    bf3f:	0f 45 f0             	cmovne %eax,%esi
    bf42:	e8 89 24 00 00       	callq  e3d0 <__lll_lock_wait>
    bf47:	e9 78 ff ff ff       	jmpq   bec4 <pthread_cond_timedwait@@GLIBC_2.3.2+0x3d4>
    bf4c:	0f 1f 40 00          	nopl   0x0(%rax)

000000000000bf50 <__condvar_cleanup2>:
    bf50:	48 89 44 24 18       	mov    %rax,0x18(%rsp)
    bf55:	48 8b 7c 24 08       	mov    0x8(%rsp),%rdi
    bf5a:	be 01 00 00 00       	mov    $0x1,%esi
    bf5f:	31 c0                	xor    %eax,%eax
    bf61:	f0 0f b1 37          	lock cmpxchg %esi,(%rdi)
    bf65:	74 17                	je     bf7e <__condvar_cleanup2+0x2e>
    bf67:	48 83 7f 20 ff       	cmpq   $0xffffffffffffffff,0x20(%rdi)
    bf6c:	b8 00 00 00 00       	mov    $0x0,%eax
    bf71:	be 80 00 00 00       	mov    $0x80,%esi
    bf76:	0f 45 f0             	cmovne %eax,%esi
    bf79:	e8 52 24 00 00       	callq  e3d0 <__lll_lock_wait>
    bf7e:	8b 57 2c             	mov    0x2c(%rdi),%edx
    bf81:	3b 54 24 04          	cmp    0x4(%rsp),%edx
    bf85:	75 15                	jne    bf9c <__condvar_cleanup2+0x4c>
    bf87:	48 8b 47 08          	mov    0x8(%rdi),%rax
    bf8b:	48 3b 47 10          	cmp    0x10(%rdi),%rax
    bf8f:	76 07                	jbe    bf98 <__condvar_cleanup2+0x48>
    bf91:	48 ff 47 10          	incq   0x10(%rdi)
    bf95:	ff 47 04             	incl   0x4(%rdi)
    bf98:	48 ff 47 18          	incq   0x18(%rdi)
    bf9c:	83 6f 28 02          	subl   $0x2,0x28(%rdi)
    bfa0:	4d 31 e4             	xor    %r12,%r12
    bfa3:	48 83 7f 08 ff       	cmpq   $0xffffffffffffffff,0x8(%rdi)
    bfa8:	75 3a                	jne    bfe4 <__condvar_cleanup2+0x94>
    bfaa:	8b 47 28             	mov    0x28(%rdi),%eax
    bfad:	83 e0 fe             	and    $0xfffffffe,%eax
    bfb0:	75 32                	jne    bfe4 <__condvar_cleanup2+0x94>
    bfb2:	48 83 7f 20 ff       	cmpq   $0xffffffffffffffff,0x20(%rdi)
    bfb7:	48 8d 7f 28          	lea    0x28(%rdi),%rdi
    bfbb:	ba 01 00 00 00       	mov    $0x1,%edx
    bfc0:	b8 00 00 00 00       	mov    $0x0,%eax
    bfc5:	64 8b 34 25 48 00 00 	mov    %fs:0x48,%esi
    bfcc:	00 
    bfcd:	0f 44 f0             	cmove  %eax,%esi
    bfd0:	83 ce 01             	or     $0x1,%esi
    bfd3:	b8 ca 00 00 00       	mov    $0xca,%eax
    bfd8:	0f 05                	syscall 
    bfda:	48 83 ef 28          	sub    $0x28,%rdi
    bfde:	41 bc 01 00 00 00    	mov    $0x1,%r12d
    bfe4:	f0 ff 0f             	lock decl (%rdi)
    bfe7:	74 17                	je     c000 <__condvar_cleanup2+0xb0>
    bfe9:	48 83 7f 20 ff       	cmpq   $0xffffffffffffffff,0x20(%rdi)
    bfee:	b8 00 00 00 00       	mov    $0x0,%eax
    bff3:	be 80 00 00 00       	mov    $0x80,%esi
    bff8:	0f 45 f0             	cmovne %eax,%esi
    bffb:	e8 60 25 00 00       	callq  e560 <__lll_unlock_wake>
    c000:	4d 85 e4             	test   %r12,%r12
    c003:	75 28                	jne    c02d <__condvar_cleanup2+0xdd>
    c005:	48 83 c7 04          	add    $0x4,%rdi
    c009:	48 83 7f 1c ff       	cmpq   $0xffffffffffffffff,0x1c(%rdi)
    c00e:	ba ff ff ff 7f       	mov    $0x7fffffff,%edx
    c013:	b8 00 00 00 00       	mov    $0x0,%eax
    c018:	64 8b 34 25 48 00 00 	mov    %fs:0x48,%esi
    c01f:	00 
    c020:	0f 44 f0             	cmove  %eax,%esi
    c023:	83 ce 01             	or     $0x1,%esi
    c026:	b8 ca 00 00 00       	mov    $0xca,%eax
    c02b:	0f 05                	syscall 
    c02d:	48 8b 7c 24 10       	mov    0x10(%rsp),%rdi
    c032:	8b 47 10             	mov    0x10(%rdi),%eax
    c035:	83 e0 30             	and    $0x30,%eax
    c038:	83 f8 20             	cmp    $0x20,%eax
    c03b:	75 18                	jne    c055 <__condvar_cleanup2+0x105>
    c03d:	8b 07                	mov    (%rdi),%eax
    c03f:	25 ff ff ff 3f       	and    $0x3fffffff,%eax
    c044:	64 39 04 25 d0 02 00 	cmp    %eax,%fs:0x2d0
    c04b:	00 
    c04c:	75 07                	jne    c055 <__condvar_cleanup2+0x105>
    c04e:	e8 ad 4a 00 00       	callq  10b00 <__pthread_mutex_cond_lock_adjust>
    c053:	eb 05                	jmp    c05a <__condvar_cleanup2+0x10a>
    c055:	e8 86 51 00 00       	callq  111e0 <__pthread_mutex_cond_lock>
    c05a:	48 8b 7c 24 18       	mov    0x18(%rsp),%rdi
    c05f:	4c 8b 7c 24 38       	mov    0x38(%rsp),%r15
    c064:	4c 8b 74 24 40       	mov    0x40(%rsp),%r14
    c069:	4c 8b 6c 24 48       	mov    0x48(%rsp),%r13
    c06e:	4c 8b 64 24 50       	mov    0x50(%rsp),%r12
    c073:	e8 38 40 00 00       	callq  100b0 <_Unwind_Resume>
    c078:	f4                   	hlt    
    c079:	90                   	nop
    c07a:	90                   	nop
    c07b:	90                   	nop
    c07c:	90                   	nop
    c07d:	90                   	nop
    c07e:	90                   	nop
    c07f:	90                   	nop

000000000000c080 <pthread_cond_signal@@GLIBC_2.3.2>:
    c080:	49 89 f8             	mov    %rdi,%r8
    c083:	be 01 00 00 00       	mov    $0x1,%esi
    c088:	31 c0                	xor    %eax,%eax
    c08a:	f0 0f b1 37          	lock cmpxchg %esi,(%rdi)
    c08e:	0f 85 96 00 00 00    	jne    c12a <pthread_cond_signal@@GLIBC_2.3.2+0xaa>
    c094:	48 83 c7 04          	add    $0x4,%rdi
    c098:	49 8b 48 08          	mov    0x8(%r8),%rcx
    c09c:	49 3b 48 10          	cmp    0x10(%r8),%rcx
    c0a0:	76 7f                	jbe    c121 <pthread_cond_signal@@GLIBC_2.3.2+0xa1>
    c0a2:	49 83 40 10 01       	addq   $0x1,0x10(%r8)
    c0a7:	83 07 01             	addl   $0x1,(%rdi)
    c0aa:	49 83 78 20 ff       	cmpq   $0xffffffffffffffff,0x20(%r8)
    c0af:	be 05 00 00 00       	mov    $0x5,%esi
    c0b4:	ba 01 00 00 00       	mov    $0x1,%edx
    c0b9:	b8 ca 00 00 00       	mov    $0xca,%eax
    c0be:	74 1a                	je     c0da <pthread_cond_signal@@GLIBC_2.3.2+0x5a>
    c0c0:	49 8b 48 20          	mov    0x20(%r8),%rcx
    c0c4:	44 8b 59 10          	mov    0x10(%rcx),%r11d
    c0c8:	41 83 e3 30          	and    $0x30,%r11d
    c0cc:	41 83 fb 20          	cmp    $0x20,%r11d
    c0d0:	74 21                	je     c0f3 <pthread_cond_signal@@GLIBC_2.3.2+0x73>
    c0d2:	64 0b 34 25 48 00 00 	or     %fs:0x48,%esi
    c0d9:	00 
    c0da:	41 ba 01 00 00 00    	mov    $0x1,%r10d
    c0e0:	41 b9 01 00 00 04    	mov    $0x4000001,%r9d
    c0e6:	0f 05                	syscall 
    c0e8:	48 3d 01 f0 ff ff    	cmp    $0xfffffffffffff001,%rax
    c0ee:	73 1f                	jae    c10f <pthread_cond_signal@@GLIBC_2.3.2+0x8f>
    c0f0:	31 c0                	xor    %eax,%eax
    c0f2:	c3                   	retq   
    c0f3:	be 8c 00 00 00       	mov    $0x8c,%esi
    c0f8:	49 89 c8             	mov    %rcx,%r8
    c0fb:	4d 31 d2             	xor    %r10,%r10
    c0fe:	44 8b 0f             	mov    (%rdi),%r9d
    c101:	0f 05                	syscall 
    c103:	4c 8d 47 fc          	lea    -0x4(%rdi),%r8
    c107:	48 3d 01 f0 ff ff    	cmp    $0xfffffffffffff001,%rax
    c10d:	72 12                	jb     c121 <pthread_cond_signal@@GLIBC_2.3.2+0xa1>
    c10f:	64 23 34 25 48 00 00 	and    %fs:0x48,%esi
    c116:	00 
    c117:	83 ce 01             	or     $0x1,%esi
    c11a:	b8 ca 00 00 00       	mov    $0xca,%eax
    c11f:	0f 05                	syscall 
    c121:	f0 41 ff 08          	lock decl (%r8)
    c125:	75 1f                	jne    c146 <pthread_cond_signal@@GLIBC_2.3.2+0xc6>
    c127:	31 c0                	xor    %eax,%eax
    c129:	c3                   	retq   
    c12a:	48 83 7f 20 ff       	cmpq   $0xffffffffffffffff,0x20(%rdi)
    c12f:	b8 00 00 00 00       	mov    $0x0,%eax
    c134:	be 80 00 00 00       	mov    $0x80,%esi
    c139:	0f 45 f0             	cmovne %eax,%esi
    c13c:	e8 8f 22 00 00       	callq  e3d0 <__lll_lock_wait>
    c141:	e9 4e ff ff ff       	jmpq   c094 <pthread_cond_signal@@GLIBC_2.3.2+0x14>
    c146:	4c 89 c7             	mov    %r8,%rdi
    c149:	48 83 7f 20 ff       	cmpq   $0xffffffffffffffff,0x20(%rdi)
    c14e:	b8 00 00 00 00       	mov    $0x0,%eax
    c153:	be 80 00 00 00       	mov    $0x80,%esi
    c158:	0f 45 f0             	cmovne %eax,%esi
    c15b:	e8 00 24 00 00       	callq  e560 <__lll_unlock_wake>
    c160:	eb c5                	jmp    c127 <pthread_cond_signal@@GLIBC_2.3.2+0xa7>
    c162:	90                   	nop
    c163:	90                   	nop
    c164:	90                   	nop
    c165:	90                   	nop
    c166:	90                   	nop
    c167:	90                   	nop
    c168:	90                   	nop
    c169:	90                   	nop
    c16a:	90                   	nop
    c16b:	90                   	nop
    c16c:	90                   	nop
    c16d:	90                   	nop
    c16e:	90                   	nop
    c16f:	90                   	nop

000000000000c170 <pthread_cond_broadcast@@GLIBC_2.3.2>:
    c170:	be 01 00 00 00       	mov    $0x1,%esi
    c175:	31 c0                	xor    %eax,%eax
    c177:	f0 0f b1 37          	lock cmpxchg %esi,(%rdi)
    c17b:	0f 85 b8 00 00 00    	jne    c239 <pthread_cond_broadcast@@GLIBC_2.3.2+0xc9>
    c181:	48 83 c7 04          	add    $0x4,%rdi
    c185:	4c 8b 4f 04          	mov    0x4(%rdi),%r9
    c189:	4c 3b 4f 0c          	cmp    0xc(%rdi),%r9
    c18d:	0f 86 9d 00 00 00    	jbe    c230 <pthread_cond_broadcast@@GLIBC_2.3.2+0xc0>
    c193:	4c 89 4f 0c          	mov    %r9,0xc(%rdi)
    c197:	4c 89 4f 14          	mov    %r9,0x14(%rdi)
    c19b:	4d 01 c9             	add    %r9,%r9
    c19e:	44 89 0f             	mov    %r9d,(%rdi)
    c1a1:	ff 47 28             	incl   0x28(%rdi)
    c1a4:	4c 8b 47 1c          	mov    0x1c(%rdi),%r8
    c1a8:	f0 ff 4f fc          	lock decl -0x4(%rdi)
    c1ac:	0f 85 c0 00 00 00    	jne    c272 <pthread_cond_broadcast@@GLIBC_2.3.2+0x102>
    c1b2:	49 83 f8 ff          	cmp    $0xffffffffffffffff,%r8
    c1b6:	0f 84 d9 00 00 00    	je     c295 <pthread_cond_broadcast@@GLIBC_2.3.2+0x125>
    c1bc:	41 f7 40 10 80 00 00 	testl  $0x80,0x10(%r8)
    c1c3:	00 
    c1c4:	0f 85 cb 00 00 00    	jne    c295 <pthread_cond_broadcast@@GLIBC_2.3.2+0x125>
    c1ca:	41 8b 40 10          	mov    0x10(%r8),%eax
    c1ce:	83 e0 30             	and    $0x30,%eax
    c1d1:	83 f8 20             	cmp    $0x20,%eax
    c1d4:	74 2c                	je     c202 <pthread_cond_broadcast@@GLIBC_2.3.2+0x92>
    c1d6:	64 8b 34 25 48 00 00 	mov    %fs:0x48,%esi
    c1dd:	00 
    c1de:	83 ce 04             	or     $0x4,%esi
    c1e1:	b8 ca 00 00 00       	mov    $0xca,%eax
    c1e6:	ba 01 00 00 00       	mov    $0x1,%edx
    c1eb:	41 ba ff ff ff 7f    	mov    $0x7fffffff,%r10d
    c1f1:	0f 05                	syscall 
    c1f3:	48 3d 01 f0 ff ff    	cmp    $0xfffffffffffff001,%rax
    c1f9:	0f 83 96 00 00 00    	jae    c295 <pthread_cond_broadcast@@GLIBC_2.3.2+0x125>
    c1ff:	31 c0                	xor    %eax,%eax
    c201:	c3                   	retq   
    c202:	be 8c 00 00 00       	mov    $0x8c,%esi
    c207:	b8 ca 00 00 00       	mov    $0xca,%eax
    c20c:	ba 01 00 00 00       	mov    $0x1,%edx
    c211:	41 ba ff ff ff 7f    	mov    $0x7fffffff,%r10d
    c217:	0f 05                	syscall 
    c219:	48 3d 01 f0 ff ff    	cmp    $0xfffffffffffff001,%rax
    c21f:	72 de                	jb     c1ff <pthread_cond_broadcast@@GLIBC_2.3.2+0x8f>
    c221:	eb 72                	jmp    c295 <pthread_cond_broadcast@@GLIBC_2.3.2+0x125>
    c223:	66 66 66 66 2e 0f 1f 	data32 data32 data32 nopw %cs:0x0(%rax,%rax,1)
    c22a:	84 00 00 00 00 00 
    c230:	f0 ff 4f fc          	lock decl -0x4(%rdi)
    c234:	75 1f                	jne    c255 <pthread_cond_broadcast@@GLIBC_2.3.2+0xe5>
    c236:	31 c0                	xor    %eax,%eax
    c238:	c3                   	retq   
    c239:	48 83 7f 20 ff       	cmpq   $0xffffffffffffffff,0x20(%rdi)
    c23e:	b8 00 00 00 00       	mov    $0x0,%eax
    c243:	be 80 00 00 00       	mov    $0x80,%esi
    c248:	0f 45 f0             	cmovne %eax,%esi
    c24b:	e8 80 21 00 00       	callq  e3d0 <__lll_lock_wait>
    c250:	e9 2c ff ff ff       	jmpq   c181 <pthread_cond_broadcast@@GLIBC_2.3.2+0x11>
    c255:	48 83 c7 fc          	add    $0xfffffffffffffffc,%rdi
    c259:	48 83 7f 20 ff       	cmpq   $0xffffffffffffffff,0x20(%rdi)
    c25e:	b8 00 00 00 00       	mov    $0x0,%eax
    c263:	be 80 00 00 00       	mov    $0x80,%esi
    c268:	0f 45 f0             	cmovne %eax,%esi
    c26b:	e8 f0 22 00 00       	callq  e560 <__lll_unlock_wake>
    c270:	eb c4                	jmp    c236 <pthread_cond_broadcast@@GLIBC_2.3.2+0xc6>
    c272:	48 83 c7 fc          	add    $0xfffffffffffffffc,%rdi
    c276:	49 83 f8 ff          	cmp    $0xffffffffffffffff,%r8
    c27a:	b8 00 00 00 00       	mov    $0x0,%eax
    c27f:	be 80 00 00 00       	mov    $0x80,%esi
    c284:	0f 45 f0             	cmovne %eax,%esi
    c287:	e8 d4 22 00 00       	callq  e560 <__lll_unlock_wake>
    c28c:	48 83 ef fc          	sub    $0xfffffffffffffffc,%rdi
    c290:	e9 1d ff ff ff       	jmpq   c1b2 <pthread_cond_broadcast@@GLIBC_2.3.2+0x42>
    c295:	49 83 f8 ff          	cmp    $0xffffffffffffffff,%r8
    c299:	ba ff ff ff 7f       	mov    $0x7fffffff,%edx
    c29e:	b8 00 00 00 00       	mov    $0x0,%eax
    c2a3:	64 8b 34 25 48 00 00 	mov    %fs:0x48,%esi
    c2aa:	00 
    c2ab:	0f 44 f0             	cmove  %eax,%esi
    c2ae:	83 ce 01             	or     $0x1,%esi
    c2b1:	b8 ca 00 00 00       	mov    $0xca,%eax
    c2b6:	0f 05                	syscall 
    c2b8:	e9 42 ff ff ff       	jmpq   c1ff <pthread_cond_broadcast@@GLIBC_2.3.2+0x8f>
    c2bd:	90                   	nop
    c2be:	90                   	nop
    c2bf:	90                   	nop

000000000000c2c0 <pthread_cond_init@GLIBC_2.2.5>:
    c2c0:	55                   	push   %rbp
    c2c1:	48 85 f6             	test   %rsi,%rsi
    c2c4:	48 c7 07 00 00 00 00 	movq   $0x0,(%rdi)
    c2cb:	48 89 e5             	mov    %rsp,%rbp
    c2ce:	74 0b                	je     c2db <pthread_cond_init@GLIBC_2.2.5+0x1b>
    c2d0:	8b 16                	mov    (%rsi),%edx
    c2d2:	b8 16 00 00 00       	mov    $0x16,%eax
    c2d7:	85 d2                	test   %edx,%edx
    c2d9:	75 02                	jne    c2dd <pthread_cond_init@GLIBC_2.2.5+0x1d>
    c2db:	31 c0                	xor    %eax,%eax
    c2dd:	c9                   	leaveq 
    c2de:	c3                   	retq   
    c2df:	90                   	nop

000000000000c2e0 <pthread_cond_destroy@GLIBC_2.2.5>:
    c2e0:	55                   	push   %rbp
    c2e1:	48 8b 3f             	mov    (%rdi),%rdi
    c2e4:	48 89 e5             	mov    %rsp,%rbp
    c2e7:	e8 04 90 ff ff       	callq  52f0 <free@plt>
    c2ec:	31 c0                	xor    %eax,%eax
    c2ee:	c9                   	leaveq 
    c2ef:	c3                   	retq   

000000000000c2f0 <pthread_cond_wait@GLIBC_2.2.5>:
    c2f0:	55                   	push   %rbp
    c2f1:	48 89 e5             	mov    %rsp,%rbp
    c2f4:	4c 89 65 f0          	mov    %r12,-0x10(%rbp)
    c2f8:	4c 89 6d f8          	mov    %r13,-0x8(%rbp)
    c2fc:	49 89 fc             	mov    %rdi,%r12
    c2ff:	48 89 5d e8          	mov    %rbx,-0x18(%rbp)
    c303:	48 83 ec 20          	sub    $0x20,%rsp
    c307:	48 8b 1f             	mov    (%rdi),%rbx
    c30a:	49 89 f5             	mov    %rsi,%r13
    c30d:	48 85 db             	test   %rbx,%rbx
    c310:	74 1e                	je     c330 <pthread_cond_wait@GLIBC_2.2.5+0x40>
    c312:	4c 89 ee             	mov    %r13,%rsi
    c315:	48 89 df             	mov    %rbx,%rdi
    c318:	4c 8b 65 f0          	mov    -0x10(%rbp),%r12
    c31c:	48 8b 5d e8          	mov    -0x18(%rbp),%rbx
    c320:	4c 8b 6d f8          	mov    -0x8(%rbp),%r13
    c324:	c9                   	leaveq 
    c325:	e9 66 f4 ff ff       	jmpq   b790 <pthread_cond_wait@@GLIBC_2.3.2>
    c32a:	66 0f 1f 44 00 00    	nopw   0x0(%rax,%rax,1)
    c330:	bf 30 00 00 00       	mov    $0x30,%edi
    c335:	be 01 00 00 00       	mov    $0x1,%esi
    c33a:	e8 41 91 ff ff       	callq  5480 <calloc@plt>
    c33f:	48 85 c0             	test   %rax,%rax
    c342:	48 89 c7             	mov    %rax,%rdi
    c345:	74 29                	je     c370 <pthread_cond_wait@GLIBC_2.2.5+0x80>
    c347:	48 89 d8             	mov    %rbx,%rax
    c34a:	f0 49 0f b1 3c 24    	lock cmpxchg %rdi,(%r12)
    c350:	75 0e                	jne    c360 <pthread_cond_wait@GLIBC_2.2.5+0x70>
    c352:	49 8b 1c 24          	mov    (%r12),%rbx
    c356:	eb ba                	jmp    c312 <pthread_cond_wait@GLIBC_2.2.5+0x22>
    c358:	0f 1f 84 00 00 00 00 	nopl   0x0(%rax,%rax,1)
    c35f:	00 
    c360:	e8 8b 8f ff ff       	callq  52f0 <free@plt>
    c365:	eb eb                	jmp    c352 <pthread_cond_wait@GLIBC_2.2.5+0x62>
    c367:	66 0f 1f 84 00 00 00 	nopw   0x0(%rax,%rax,1)
    c36e:	00 00 
    c370:	b8 0c 00 00 00       	mov    $0xc,%eax
    c375:	48 8b 5d e8          	mov    -0x18(%rbp),%rbx
    c379:	4c 8b 65 f0          	mov    -0x10(%rbp),%r12
    c37d:	4c 8b 6d f8          	mov    -0x8(%rbp),%r13
    c381:	c9                   	leaveq 
    c382:	c3                   	retq   
    c383:	90                   	nop
    c384:	90                   	nop
    c385:	90                   	nop
    c386:	90                   	nop
    c387:	90                   	nop
    c388:	90                   	nop
    c389:	90                   	nop
    c38a:	90                   	nop
    c38b:	90                   	nop
    c38c:	90                   	nop
    c38d:	90                   	nop
    c38e:	90                   	nop
    c38f:	90                   	nop

000000000000c390 <pthread_cond_timedwait@GLIBC_2.2.5>:
    c390:	55                   	push   %rbp
    c391:	48 89 e5             	mov    %rsp,%rbp
    c394:	4c 89 65 f0          	mov    %r12,-0x10(%rbp)
    c398:	4c 89 6d f8          	mov    %r13,-0x8(%rbp)
    c39c:	49 89 fc             	mov    %rdi,%r12
    c39f:	48 89 5d e8          	mov    %rbx,-0x18(%rbp)
    c3a3:	48 83 ec 30          	sub    $0x30,%rsp
    c3a7:	48 8b 1f             	mov    (%rdi),%rbx
    c3aa:	49 89 f5             	mov    %rsi,%r13
    c3ad:	48 85 db             	test   %rbx,%rbx
    c3b0:	74 1e                	je     c3d0 <pthread_cond_timedwait@GLIBC_2.2.5+0x40>
    c3b2:	4c 89 ee             	mov    %r13,%rsi
    c3b5:	48 89 df             	mov    %rbx,%rdi
    c3b8:	4c 8b 65 f0          	mov    -0x10(%rbp),%r12
    c3bc:	48 8b 5d e8          	mov    -0x18(%rbp),%rbx
    c3c0:	4c 8b 6d f8          	mov    -0x8(%rbp),%r13
    c3c4:	c9                   	leaveq 
    c3c5:	e9 26 f7 ff ff       	jmpq   baf0 <pthread_cond_timedwait@@GLIBC_2.3.2>
    c3ca:	66 0f 1f 44 00 00    	nopw   0x0(%rax,%rax,1)
    c3d0:	bf 30 00 00 00       	mov    $0x30,%edi
    c3d5:	48 89 55 d8          	mov    %rdx,-0x28(%rbp)
    c3d9:	be 01 00 00 00       	mov    $0x1,%esi
    c3de:	e8 9d 90 ff ff       	callq  5480 <calloc@plt>
    c3e3:	48 85 c0             	test   %rax,%rax
    c3e6:	48 89 c7             	mov    %rax,%rdi
    c3e9:	48 8b 55 d8          	mov    -0x28(%rbp),%rdx
    c3ed:	74 29                	je     c418 <pthread_cond_timedwait@GLIBC_2.2.5+0x88>
    c3ef:	48 89 d8             	mov    %rbx,%rax
    c3f2:	f0 49 0f b1 3c 24    	lock cmpxchg %rdi,(%r12)
    c3f8:	75 06                	jne    c400 <pthread_cond_timedwait@GLIBC_2.2.5+0x70>
    c3fa:	49 8b 1c 24          	mov    (%r12),%rbx
    c3fe:	eb b2                	jmp    c3b2 <pthread_cond_timedwait@GLIBC_2.2.5+0x22>
    c400:	48 89 55 d8          	mov    %rdx,-0x28(%rbp)
    c404:	e8 e7 8e ff ff       	callq  52f0 <free@plt>
    c409:	49 8b 1c 24          	mov    (%r12),%rbx
    c40d:	48 8b 55 d8          	mov    -0x28(%rbp),%rdx
    c411:	eb 9f                	jmp    c3b2 <pthread_cond_timedwait@GLIBC_2.2.5+0x22>
    c413:	0f 1f 44 00 00       	nopl   0x0(%rax,%rax,1)
    c418:	b8 0c 00 00 00       	mov    $0xc,%eax
    c41d:	48 8b 5d e8          	mov    -0x18(%rbp),%rbx
    c421:	4c 8b 65 f0          	mov    -0x10(%rbp),%r12
    c425:	4c 8b 6d f8          	mov    -0x8(%rbp),%r13
    c429:	c9                   	leaveq 
    c42a:	c3                   	retq   
    c42b:	90                   	nop
    c42c:	90                   	nop
    c42d:	90                   	nop
    c42e:	90                   	nop
    c42f:	90                   	nop

000000000000c430 <pthread_cond_signal@GLIBC_2.2.5>:
    c430:	55                   	push   %rbp
    c431:	48 89 e5             	mov    %rsp,%rbp
    c434:	4c 89 65 f8          	mov    %r12,-0x8(%rbp)
    c438:	48 89 5d f0          	mov    %rbx,-0x10(%rbp)
    c43c:	48 83 ec 10          	sub    $0x10,%rsp
    c440:	48 8b 1f             	mov    (%rdi),%rbx
    c443:	49 89 fc             	mov    %rdi,%r12
    c446:	48 85 db             	test   %rbx,%rbx
    c449:	74 15                	je     c460 <pthread_cond_signal@GLIBC_2.2.5+0x30>
    c44b:	48 89 df             	mov    %rbx,%rdi
    c44e:	4c 8b 64 24 08       	mov    0x8(%rsp),%r12
    c453:	48 8b 1c 24          	mov    (%rsp),%rbx
    c457:	c9                   	leaveq 
    c458:	e9 23 fc ff ff       	jmpq   c080 <pthread_cond_signal@@GLIBC_2.3.2>
    c45d:	0f 1f 00             	nopl   (%rax)
    c460:	bf 30 00 00 00       	mov    $0x30,%edi
    c465:	be 01 00 00 00       	mov    $0x1,%esi
    c46a:	e8 11 90 ff ff       	callq  5480 <calloc@plt>
    c46f:	48 85 c0             	test   %rax,%rax
    c472:	48 89 c7             	mov    %rax,%rdi
    c475:	74 29                	je     c4a0 <pthread_cond_signal@GLIBC_2.2.5+0x70>
    c477:	48 89 d8             	mov    %rbx,%rax
    c47a:	f0 49 0f b1 3c 24    	lock cmpxchg %rdi,(%r12)
    c480:	75 0e                	jne    c490 <pthread_cond_signal@GLIBC_2.2.5+0x60>
    c482:	49 8b 1c 24          	mov    (%r12),%rbx
    c486:	eb c3                	jmp    c44b <pthread_cond_signal@GLIBC_2.2.5+0x1b>
    c488:	0f 1f 84 00 00 00 00 	nopl   0x0(%rax,%rax,1)
    c48f:	00 
    c490:	e8 5b 8e ff ff       	callq  52f0 <free@plt>
    c495:	eb eb                	jmp    c482 <pthread_cond_signal@GLIBC_2.2.5+0x52>
    c497:	66 0f 1f 84 00 00 00 	nopw   0x0(%rax,%rax,1)
    c49e:	00 00 
    c4a0:	b8 0c 00 00 00       	mov    $0xc,%eax
    c4a5:	48 8b 1c 24          	mov    (%rsp),%rbx
    c4a9:	4c 8b 64 24 08       	mov    0x8(%rsp),%r12
    c4ae:	c9                   	leaveq 
    c4af:	c3                   	retq   

000000000000c4b0 <pthread_cond_broadcast@GLIBC_2.2.5>:
    c4b0:	55                   	push   %rbp
    c4b1:	48 89 e5             	mov    %rsp,%rbp
    c4b4:	4c 89 65 f8          	mov    %r12,-0x8(%rbp)
    c4b8:	48 89 5d f0          	mov    %rbx,-0x10(%rbp)
    c4bc:	48 83 ec 10          	sub    $0x10,%rsp
    c4c0:	48 8b 1f             	mov    (%rdi),%rbx
    c4c3:	49 89 fc             	mov    %rdi,%r12
    c4c6:	48 85 db             	test   %rbx,%rbx
    c4c9:	74 15                	je     c4e0 <pthread_cond_broadcast@GLIBC_2.2.5+0x30>
    c4cb:	48 89 df             	mov    %rbx,%rdi
    c4ce:	4c 8b 64 24 08       	mov    0x8(%rsp),%r12
    c4d3:	48 8b 1c 24          	mov    (%rsp),%rbx
    c4d7:	c9                   	leaveq 
    c4d8:	e9 93 fc ff ff       	jmpq   c170 <pthread_cond_broadcast@@GLIBC_2.3.2>
    c4dd:	0f 1f 00             	nopl   (%rax)
    c4e0:	bf 30 00 00 00       	mov    $0x30,%edi
    c4e5:	be 01 00 00 00       	mov    $0x1,%esi
    c4ea:	e8 91 8f ff ff       	callq  5480 <calloc@plt>
    c4ef:	48 85 c0             	test   %rax,%rax
    c4f2:	48 89 c7             	mov    %rax,%rdi
    c4f5:	74 29                	je     c520 <pthread_cond_broadcast@GLIBC_2.2.5+0x70>
    c4f7:	48 89 d8             	mov    %rbx,%rax
    c4fa:	f0 49 0f b1 3c 24    	lock cmpxchg %rdi,(%r12)
    c500:	75 0e                	jne    c510 <pthread_cond_broadcast@GLIBC_2.2.5+0x60>
    c502:	49 8b 1c 24          	mov    (%r12),%rbx
    c506:	eb c3                	jmp    c4cb <pthread_cond_broadcast@GLIBC_2.2.5+0x1b>
    c508:	0f 1f 84 00 00 00 00 	nopl   0x0(%rax,%rax,1)
    c50f:	00 
    c510:	e8 db 8d ff ff       	callq  52f0 <free@plt>
    c515:	eb eb                	jmp    c502 <pthread_cond_broadcast@GLIBC_2.2.5+0x52>
    c517:	66 0f 1f 84 00 00 00 	nopw   0x0(%rax,%rax,1)
    c51e:	00 00 
    c520:	b8 0c 00 00 00       	mov    $0xc,%eax
    c525:	48 8b 1c 24          	mov    (%rsp),%rbx
    c529:	4c 8b 64 24 08       	mov    0x8(%rsp),%r12
    c52e:	c9                   	leaveq 
    c52f:	c3                   	retq   

000000000000c530 <pthread_condattr_init>:
    c530:	55                   	push   %rbp
    c531:	c7 07 00 00 00 00    	movl   $0x0,(%rdi)
    c537:	31 c0                	xor    %eax,%eax
    c539:	48 89 e5             	mov    %rsp,%rbp
    c53c:	c9                   	leaveq 
    c53d:	c3                   	retq   
    c53e:	90                   	nop
    c53f:	90                   	nop

000000000000c540 <pthread_condattr_destroy>:
    c540:	55                   	push   %rbp
    c541:	31 c0                	xor    %eax,%eax
    c543:	48 89 e5             	mov    %rsp,%rbp
    c546:	c9                   	leaveq 
    c547:	c3                   	retq   
    c548:	90                   	nop
    c549:	90                   	nop
    c54a:	90                   	nop
    c54b:	90                   	nop
    c54c:	90                   	nop
    c54d:	90                   	nop
    c54e:	90                   	nop
    c54f:	90                   	nop

000000000000c550 <pthread_condattr_getpshared>:
    c550:	8b 07                	mov    (%rdi),%eax
    c552:	55                   	push   %rbp
    c553:	48 89 e5             	mov    %rsp,%rbp
    c556:	83 e0 01             	and    $0x1,%eax
    c559:	89 06                	mov    %eax,(%rsi)
    c55b:	31 c0                	xor    %eax,%eax
    c55d:	c9                   	leaveq 
    c55e:	c3                   	retq   
    c55f:	90                   	nop

000000000000c560 <pthread_condattr_setpshared>:
    c560:	55                   	push   %rbp
    c561:	85 f6                	test   %esi,%esi
    c563:	48 89 e5             	mov    %rsp,%rbp
    c566:	74 05                	je     c56d <pthread_condattr_setpshared+0xd>
    c568:	83 fe 01             	cmp    $0x1,%esi
    c56b:	75 14                	jne    c581 <pthread_condattr_setpshared+0x21>
    c56d:	8b 17                	mov    (%rdi),%edx
    c56f:	31 c0                	xor    %eax,%eax
    c571:	85 f6                	test   %esi,%esi
    c573:	0f 95 c0             	setne  %al
    c576:	83 e2 fe             	and    $0xfffffffe,%edx
    c579:	09 d0                	or     %edx,%eax
    c57b:	89 07                	mov    %eax,(%rdi)
    c57d:	31 c0                	xor    %eax,%eax
    c57f:	c9                   	leaveq 
    c580:	c3                   	retq   
    c581:	b8 16 00 00 00       	mov    $0x16,%eax
    c586:	c9                   	leaveq 
    c587:	c3                   	retq   
    c588:	90                   	nop
    c589:	90                   	nop
    c58a:	90                   	nop
    c58b:	90                   	nop
    c58c:	90                   	nop
    c58d:	90                   	nop
    c58e:	90                   	nop
    c58f:	90                   	nop

000000000000c590 <pthread_condattr_getclock>:
    c590:	8b 07                	mov    (%rdi),%eax
    c592:	55                   	push   %rbp
    c593:	48 89 e5             	mov    %rsp,%rbp
    c596:	d1 f8                	sar    %eax
    c598:	83 e0 01             	and    $0x1,%eax
    c59b:	89 06                	mov    %eax,(%rsi)
    c59d:	31 c0                	xor    %eax,%eax
    c59f:	c9                   	leaveq 
    c5a0:	c3                   	retq   
    c5a1:	90                   	nop
    c5a2:	90                   	nop
    c5a3:	90                   	nop
    c5a4:	90                   	nop
    c5a5:	90                   	nop
    c5a6:	90                   	nop
    c5a7:	90                   	nop
    c5a8:	90                   	nop
    c5a9:	90                   	nop
    c5aa:	90                   	nop
    c5ab:	90                   	nop
    c5ac:	90                   	nop
    c5ad:	90                   	nop
    c5ae:	90                   	nop
    c5af:	90                   	nop

000000000000c5b0 <pthread_condattr_setclock>:
    c5b0:	55                   	push   %rbp
    c5b1:	83 fe 01             	cmp    $0x1,%esi
    c5b4:	b8 16 00 00 00       	mov    $0x16,%eax
    c5b9:	48 89 e5             	mov    %rsp,%rbp
    c5bc:	76 02                	jbe    c5c0 <pthread_condattr_setclock+0x10>
    c5be:	c9                   	leaveq 
    c5bf:	c3                   	retq   
    c5c0:	8b 07                	mov    (%rdi),%eax
    c5c2:	01 f6                	add    %esi,%esi
    c5c4:	83 e0 fd             	and    $0xfffffffd,%eax
    c5c7:	09 c6                	or     %eax,%esi
    c5c9:	31 c0                	xor    %eax,%eax
    c5cb:	89 37                	mov    %esi,(%rdi)
    c5cd:	c9                   	leaveq 
    c5ce:	c3                   	retq   
    c5cf:	90                   	nop

000000000000c5d0 <pthread_spin_destroy>:
    c5d0:	55                   	push   %rbp
    c5d1:	31 c0                	xor    %eax,%eax
    c5d3:	48 89 e5             	mov    %rsp,%rbp
    c5d6:	c9                   	leaveq 
    c5d7:	c3                   	retq   
    c5d8:	90                   	nop
    c5d9:	90                   	nop
    c5da:	90                   	nop
    c5db:	90                   	nop
    c5dc:	90                   	nop
    c5dd:	90                   	nop
    c5de:	90                   	nop
    c5df:	90                   	nop

000000000000c5e0 <pthread_spin_lock>:
    c5e0:	f0 ff 0f             	lock decl (%rdi)
    c5e3:	75 0b                	jne    c5f0 <pthread_spin_lock+0x10>
    c5e5:	31 c0                	xor    %eax,%eax
    c5e7:	c3                   	retq   
    c5e8:	0f 1f 84 00 00 00 00 	nopl   0x0(%rax,%rax,1)
    c5ef:	00 
    c5f0:	f3 90                	pause  
    c5f2:	83 3f 00             	cmpl   $0x0,(%rdi)
    c5f5:	7f e9                	jg     c5e0 <pthread_spin_lock>
    c5f7:	eb f7                	jmp    c5f0 <pthread_spin_lock+0x10>
    c5f9:	90                   	nop
    c5fa:	90                   	nop
    c5fb:	90                   	nop
    c5fc:	90                   	nop
    c5fd:	90                   	nop
    c5fe:	90                   	nop
    c5ff:	90                   	nop

000000000000c600 <pthread_spin_trylock>:
    c600:	b8 01 00 00 00       	mov    $0x1,%eax
    c605:	31 c9                	xor    %ecx,%ecx
    c607:	f0 0f b1 0f          	lock cmpxchg %ecx,(%rdi)
    c60b:	b8 10 00 00 00       	mov    $0x10,%eax
    c610:	0f 44 c1             	cmove  %ecx,%eax
    c613:	c3                   	retq   
    c614:	90                   	nop
    c615:	90                   	nop
    c616:	90                   	nop
    c617:	90                   	nop
    c618:	90                   	nop
    c619:	90                   	nop
    c61a:	90                   	nop
    c61b:	90                   	nop
    c61c:	90                   	nop
    c61d:	90                   	nop
    c61e:	90                   	nop
    c61f:	90                   	nop

000000000000c620 <pthread_spin_init>:
    c620:	c7 07 01 00 00 00    	movl   $0x1,(%rdi)
    c626:	31 c0                	xor    %eax,%eax
    c628:	c3                   	retq   
    c629:	90                   	nop
    c62a:	90                   	nop
    c62b:	90                   	nop
    c62c:	90                   	nop
    c62d:	90                   	nop
    c62e:	90                   	nop
    c62f:	90                   	nop

000000000000c630 <pthread_barrier_init>:
    c630:	55                   	push   %rbp
    c631:	85 d2                	test   %edx,%edx
    c633:	48 89 e5             	mov    %rsp,%rbp
    c636:	74 55                	je     c68d <pthread_barrier_init+0x5d>
    c638:	48 8d 05 7d 54 00 00 	lea    0x547d(%rip),%rax        # 11abc <default_attr>
    c63f:	48 85 f6             	test   %rsi,%rsi
    c642:	48 0f 45 c6          	cmovne %rsi,%rax
    c646:	8b 00                	mov    (%rax),%eax
    c648:	85 c0                	test   %eax,%eax
    c64a:	74 24                	je     c670 <pthread_barrier_init+0x40>
    c64c:	83 f8 01             	cmp    $0x1,%eax
    c64f:	75 3c                	jne    c68d <pthread_barrier_init+0x5d>
    c651:	c7 47 04 00 00 00 00 	movl   $0x0,0x4(%rdi)
    c658:	89 57 08             	mov    %edx,0x8(%rdi)
    c65b:	31 c0                	xor    %eax,%eax
    c65d:	89 57 0c             	mov    %edx,0xc(%rdi)
    c660:	c7 07 00 00 00 00    	movl   $0x0,(%rdi)
    c666:	89 47 10             	mov    %eax,0x10(%rdi)
    c669:	31 c0                	xor    %eax,%eax
    c66b:	c9                   	leaveq 
    c66c:	c3                   	retq   
    c66d:	0f 1f 00             	nopl   (%rax)
    c670:	c7 47 04 00 00 00 00 	movl   $0x0,0x4(%rdi)
    c677:	89 57 08             	mov    %edx,0x8(%rdi)
    c67a:	89 57 0c             	mov    %edx,0xc(%rdi)
    c67d:	c7 07 00 00 00 00    	movl   $0x0,(%rdi)
    c683:	64 8b 04 25 48 00 00 	mov    %fs:0x48,%eax
    c68a:	00 
    c68b:	eb d9                	jmp    c666 <pthread_barrier_init+0x36>
    c68d:	b8 16 00 00 00       	mov    $0x16,%eax
    c692:	c9                   	leaveq 
    c693:	c3                   	retq   
    c694:	90                   	nop
    c695:	90                   	nop
    c696:	90                   	nop
    c697:	90                   	nop
    c698:	90                   	nop
    c699:	90                   	nop
    c69a:	90                   	nop
    c69b:	90                   	nop
    c69c:	90                   	nop
    c69d:	90                   	nop
    c69e:	90                   	nop
    c69f:	90                   	nop

000000000000c6a0 <pthread_barrier_destroy>:
    c6a0:	55                   	push   %rbp
    c6a1:	8b 77 10             	mov    0x10(%rdi),%esi
    c6a4:	48 89 fa             	mov    %rdi,%rdx
    c6a7:	31 c0                	xor    %eax,%eax
    c6a9:	bf 01 00 00 00       	mov    $0x1,%edi
    c6ae:	48 89 e5             	mov    %rsp,%rbp
    c6b1:	40 80 f6 80          	xor    $0x80,%sil
    c6b5:	f0 0f b1 7a 04       	lock cmpxchg %edi,0x4(%rdx)
    c6ba:	75 20                	jne    c6dc <_L_lock_12>
    c6bc:	8b 42 08             	mov    0x8(%rdx),%eax
    c6bf:	3b 42 0c             	cmp    0xc(%rdx),%eax
    c6c2:	75 04                	jne    c6c8 <pthread_barrier_destroy+0x28>
    c6c4:	31 c0                	xor    %eax,%eax
    c6c6:	c9                   	leaveq 
    c6c7:	c3                   	retq   
    c6c8:	8b 72 10             	mov    0x10(%rdx),%esi
    c6cb:	40 80 f6 80          	xor    $0x80,%sil
    c6cf:	f0 ff 4a 04          	lock decl 0x4(%rdx)
    c6d3:	75 20                	jne    c6f5 <_L_unlock_27>
    c6d5:	b8 10 00 00 00       	mov    $0x10,%eax
    c6da:	c9                   	leaveq 
    c6db:	c3                   	retq   

000000000000c6dc <_L_lock_12>:
    c6dc:	48 8d 7a 04          	lea    0x4(%rdx),%rdi
    c6e0:	48 81 ec 80 00 00 00 	sub    $0x80,%rsp
    c6e7:	e8 e4 1c 00 00       	callq  e3d0 <__lll_lock_wait>
    c6ec:	48 81 c4 80 00 00 00 	add    $0x80,%rsp
    c6f3:	eb c7                	jmp    c6bc <pthread_barrier_destroy+0x1c>

000000000000c6f5 <_L_unlock_27>:
    c6f5:	48 8d 7a 04          	lea    0x4(%rdx),%rdi
    c6f9:	48 81 ec 80 00 00 00 	sub    $0x80,%rsp
    c700:	e8 5b 1e 00 00       	callq  e560 <__lll_unlock_wake>
    c705:	48 81 c4 80 00 00 00 	add    $0x80,%rsp
    c70c:	eb c7                	jmp    c6d5 <pthread_barrier_destroy+0x35>
    c70e:	90                   	nop
    c70f:	90                   	nop

000000000000c710 <pthread_barrier_wait>:
    c710:	31 c0                	xor    %eax,%eax
    c712:	be 01 00 00 00       	mov    $0x1,%esi
    c717:	f0 0f b1 77 04       	lock cmpxchg %esi,0x4(%rdi)
    c71c:	75 79                	jne    c797 <pthread_barrier_wait+0x87>
    c71e:	ff 4f 08             	decl   0x8(%rdi)
    c721:	74 3f                	je     c762 <pthread_barrier_wait+0x52>
    c723:	8b 17                	mov    (%rdi),%edx
    c725:	f0 ff 4f 04          	lock decl 0x4(%rdi)
    c729:	0f 85 97 00 00 00    	jne    c7c6 <pthread_barrier_wait+0xb6>
    c72f:	8b 77 10             	mov    0x10(%rdi),%esi
    c732:	4d 31 d2             	xor    %r10,%r10
    c735:	b8 ca 00 00 00       	mov    $0xca,%eax
    c73a:	0f 05                	syscall 
    c73c:	39 17                	cmp    %edx,(%rdi)
    c73e:	74 f5                	je     c735 <pthread_barrier_wait+0x25>
    c740:	ba 01 00 00 00       	mov    $0x1,%edx
    c745:	8b 47 0c             	mov    0xc(%rdi),%eax
    c748:	f0 0f c1 57 08       	lock xadd %edx,0x8(%rdi)
    c74d:	83 e8 01             	sub    $0x1,%eax
    c750:	39 c2                	cmp    %eax,%edx
    c752:	3e 75 0a             	jne,pt c75f <pthread_barrier_wait+0x4f>
    c755:	f0 ff 4f 04          	lock decl 0x4(%rdi)
    c759:	0f 85 82 00 00 00    	jne    c7e1 <pthread_barrier_wait+0xd1>
    c75f:	31 c0                	xor    %eax,%eax
    c761:	c3                   	retq   
    c762:	ff 07                	incl   (%rdi)
    c764:	ba ff ff ff 7f       	mov    $0x7fffffff,%edx
    c769:	be 01 00 00 00       	mov    $0x1,%esi
    c76e:	0b 77 10             	or     0x10(%rdi),%esi
    c771:	b8 ca 00 00 00       	mov    $0xca,%eax
    c776:	0f 05                	syscall 
    c778:	ba 01 00 00 00       	mov    $0x1,%edx
    c77d:	8b 47 0c             	mov    0xc(%rdi),%eax
    c780:	f0 0f c1 57 08       	lock xadd %edx,0x8(%rdi)
    c785:	83 e8 01             	sub    $0x1,%eax
    c788:	39 c2                	cmp    %eax,%edx
    c78a:	3e 75 06             	jne,pt c793 <pthread_barrier_wait+0x83>
    c78d:	f0 ff 4f 04          	lock decl 0x4(%rdi)
    c791:	75 1f                	jne    c7b2 <pthread_barrier_wait+0xa2>
    c793:	83 c8 ff             	or     $0xffffffff,%eax
    c796:	c3                   	retq   
    c797:	8b 77 10             	mov    0x10(%rdi),%esi
    c79a:	48 83 c7 04          	add    $0x4,%rdi
    c79e:	81 f6 80 00 00 00    	xor    $0x80,%esi
    c7a4:	e8 27 1c 00 00       	callq  e3d0 <__lll_lock_wait>
    c7a9:	48 83 ef 04          	sub    $0x4,%rdi
    c7ad:	e9 6c ff ff ff       	jmpq   c71e <pthread_barrier_wait+0xe>
    c7b2:	8b 77 10             	mov    0x10(%rdi),%esi
    c7b5:	48 83 c7 04          	add    $0x4,%rdi
    c7b9:	81 f6 80 00 00 00    	xor    $0x80,%esi
    c7bf:	e8 9c 1d 00 00       	callq  e560 <__lll_unlock_wake>
    c7c4:	eb cd                	jmp    c793 <pthread_barrier_wait+0x83>
    c7c6:	8b 77 10             	mov    0x10(%rdi),%esi
    c7c9:	48 83 c7 04          	add    $0x4,%rdi
    c7cd:	81 f6 80 00 00 00    	xor    $0x80,%esi
    c7d3:	e8 88 1d 00 00       	callq  e560 <__lll_unlock_wake>
    c7d8:	48 83 ef 04          	sub    $0x4,%rdi
    c7dc:	e9 4e ff ff ff       	jmpq   c72f <pthread_barrier_wait+0x1f>
    c7e1:	8b 77 10             	mov    0x10(%rdi),%esi
    c7e4:	48 83 c7 04          	add    $0x4,%rdi
    c7e8:	81 f6 80 00 00 00    	xor    $0x80,%esi
    c7ee:	e8 6d 1d 00 00       	callq  e560 <__lll_unlock_wake>
    c7f3:	e9 67 ff ff ff       	jmpq   c75f <pthread_barrier_wait+0x4f>
    c7f8:	90                   	nop
    c7f9:	90                   	nop
    c7fa:	90                   	nop
    c7fb:	90                   	nop
    c7fc:	90                   	nop
    c7fd:	90                   	nop
    c7fe:	90                   	nop
    c7ff:	90                   	nop

000000000000c800 <pthread_barrierattr_init>:
    c800:	55                   	push   %rbp
    c801:	c7 07 00 00 00 00    	movl   $0x0,(%rdi)
    c807:	31 c0                	xor    %eax,%eax
    c809:	48 89 e5             	mov    %rsp,%rbp
    c80c:	c9                   	leaveq 
    c80d:	c3                   	retq   
    c80e:	90                   	nop
    c80f:	90                   	nop

000000000000c810 <pthread_barrierattr_destroy>:
    c810:	55                   	push   %rbp
    c811:	31 c0                	xor    %eax,%eax
    c813:	48 89 e5             	mov    %rsp,%rbp
    c816:	c9                   	leaveq 
    c817:	c3                   	retq   
    c818:	90                   	nop
    c819:	90                   	nop
    c81a:	90                   	nop
    c81b:	90                   	nop
    c81c:	90                   	nop
    c81d:	90                   	nop
    c81e:	90                   	nop
    c81f:	90                   	nop

000000000000c820 <pthread_barrierattr_getpshared>:
    c820:	8b 07                	mov    (%rdi),%eax
    c822:	55                   	push   %rbp
    c823:	48 89 e5             	mov    %rsp,%rbp
    c826:	89 06                	mov    %eax,(%rsi)
    c828:	31 c0                	xor    %eax,%eax
    c82a:	c9                   	leaveq 
    c82b:	c3                   	retq   
    c82c:	90                   	nop
    c82d:	90                   	nop
    c82e:	90                   	nop
    c82f:	90                   	nop

000000000000c830 <pthread_barrierattr_setpshared>:
    c830:	55                   	push   %rbp
    c831:	85 f6                	test   %esi,%esi
    c833:	48 89 e5             	mov    %rsp,%rbp
    c836:	74 05                	je     c83d <pthread_barrierattr_setpshared+0xd>
    c838:	83 fe 01             	cmp    $0x1,%esi
    c83b:	75 06                	jne    c843 <pthread_barrierattr_setpshared+0x13>
    c83d:	89 37                	mov    %esi,(%rdi)
    c83f:	31 c0                	xor    %eax,%eax
    c841:	c9                   	leaveq 
    c842:	c3                   	retq   
    c843:	b8 16 00 00 00       	mov    $0x16,%eax
    c848:	c9                   	leaveq 
    c849:	c3                   	retq   
    c84a:	90                   	nop
    c84b:	90                   	nop
    c84c:	90                   	nop
    c84d:	90                   	nop
    c84e:	90                   	nop
    c84f:	90                   	nop

000000000000c850 <__pthread_key_create>:
    c850:	55                   	push   %rbp
    c851:	4c 8d 0d 48 ba 20 00 	lea    0x20ba48(%rip),%r9        # 2182a0 <__GI___pthread_keys>
    c858:	31 d2                	xor    %edx,%edx
    c85a:	48 89 e5             	mov    %rsp,%rbp
    c85d:	4c 89 c9             	mov    %r9,%rcx
    c860:	eb 17                	jmp    c879 <__pthread_key_create+0x29>
    c862:	66 0f 1f 44 00 00    	nopw   0x0(%rax,%rax,1)
    c868:	48 83 c2 01          	add    $0x1,%rdx
    c86c:	48 83 c1 10          	add    $0x10,%rcx
    c870:	48 81 fa 00 04 00 00 	cmp    $0x400,%rdx
    c877:	74 37                	je     c8b0 <__pthread_key_create+0x60>
    c879:	48 8b 01             	mov    (%rcx),%rax
    c87c:	a8 01                	test   $0x1,%al
    c87e:	75 e8                	jne    c868 <__pthread_key_create+0x18>
    c880:	4c 8d 40 02          	lea    0x2(%rax),%r8
    c884:	4c 39 c0             	cmp    %r8,%rax
    c887:	73 df                	jae    c868 <__pthread_key_create+0x18>
    c889:	49 89 d0             	mov    %rdx,%r8
    c88c:	4c 8d 50 01          	lea    0x1(%rax),%r10
    c890:	49 c1 e0 04          	shl    $0x4,%r8
    c894:	f0 4f 0f b1 14 01    	lock cmpxchg %r10,(%r9,%r8,1)
    c89a:	75 cc                	jne    c868 <__pthread_key_create+0x18>
    c89c:	48 8d 05 05 ba 20 00 	lea    0x20ba05(%rip),%rax        # 2182a8 <__GI___pthread_keys+0x8>
    c8a3:	89 17                	mov    %edx,(%rdi)
    c8a5:	49 89 34 00          	mov    %rsi,(%r8,%rax,1)
    c8a9:	31 c0                	xor    %eax,%eax
    c8ab:	c9                   	leaveq 
    c8ac:	c3                   	retq   
    c8ad:	0f 1f 00             	nopl   (%rax)
    c8b0:	b8 0b 00 00 00       	mov    $0xb,%eax
    c8b5:	c9                   	leaveq 
    c8b6:	c3                   	retq   
    c8b7:	90                   	nop
    c8b8:	90                   	nop
    c8b9:	90                   	nop
    c8ba:	90                   	nop
    c8bb:	90                   	nop
    c8bc:	90                   	nop
    c8bd:	90                   	nop
    c8be:	90                   	nop
    c8bf:	90                   	nop

000000000000c8c0 <pthread_key_delete>:
    c8c0:	55                   	push   %rbp
    c8c1:	81 ff ff 03 00 00    	cmp    $0x3ff,%edi
    c8c7:	48 89 e5             	mov    %rsp,%rbp
    c8ca:	77 2c                	ja     c8f8 <pthread_key_delete+0x38>
    c8cc:	89 ff                	mov    %edi,%edi
    c8ce:	48 8d 15 cb b9 20 00 	lea    0x20b9cb(%rip),%rdx        # 2182a0 <__GI___pthread_keys>
    c8d5:	48 c1 e7 04          	shl    $0x4,%rdi
    c8d9:	8b 0c 3a             	mov    (%rdx,%rdi,1),%ecx
    c8dc:	89 c8                	mov    %ecx,%eax
    c8de:	a8 01                	test   $0x1,%al
    c8e0:	74 16                	je     c8f8 <pthread_key_delete+0x38>
    c8e2:	83 c1 01             	add    $0x1,%ecx
    c8e5:	f0 48 0f b1 0c 3a    	lock cmpxchg %rcx,(%rdx,%rdi,1)
    c8eb:	75 0b                	jne    c8f8 <pthread_key_delete+0x38>
    c8ed:	31 c0                	xor    %eax,%eax
    c8ef:	c9                   	leaveq 
    c8f0:	c3                   	retq   
    c8f1:	0f 1f 80 00 00 00 00 	nopl   0x0(%rax)
    c8f8:	b8 16 00 00 00       	mov    $0x16,%eax
    c8fd:	c9                   	leaveq 
    c8fe:	66 90                	xchg   %ax,%ax
    c900:	c3                   	retq   
    c901:	90                   	nop
    c902:	90                   	nop
    c903:	90                   	nop
    c904:	90                   	nop
    c905:	90                   	nop
    c906:	90                   	nop
    c907:	90                   	nop
    c908:	90                   	nop
    c909:	90                   	nop
    c90a:	90                   	nop
    c90b:	90                   	nop
    c90c:	90                   	nop
    c90d:	90                   	nop
    c90e:	90                   	nop
    c90f:	90                   	nop

000000000000c910 <__pthread_getspecific>:
    c910:	55                   	push   %rbp
    c911:	83 ff 1f             	cmp    $0x1f,%edi
    c914:	48 89 e5             	mov    %rsp,%rbp
    c917:	53                   	push   %rbx
    c918:	77 39                	ja     c953 <__pthread_getspecific+0x43>
    c91a:	89 f8                	mov    %edi,%eax
    c91c:	48 c1 e0 04          	shl    $0x4,%rax
    c920:	64 48 8b 14 25 10 00 	mov    %fs:0x10,%rdx
    c927:	00 00 
    c929:	48 8d 94 02 10 03 00 	lea    0x310(%rdx,%rax,1),%rdx
    c930:	00 
    c931:	48 8b 42 08          	mov    0x8(%rdx),%rax
    c935:	48 85 c0             	test   %rax,%rax
    c938:	74 16                	je     c950 <__pthread_getspecific+0x40>
    c93a:	89 ff                	mov    %edi,%edi
    c93c:	48 8d 0d 5d b9 20 00 	lea    0x20b95d(%rip),%rcx        # 2182a0 <__GI___pthread_keys>
    c943:	48 c1 e7 04          	shl    $0x4,%rdi
    c947:	48 8b 1c 39          	mov    (%rcx,%rdi,1),%rbx
    c94b:	48 39 1a             	cmp    %rbx,(%rdx)
    c94e:	75 12                	jne    c962 <__pthread_getspecific+0x52>
    c950:	5b                   	pop    %rbx
    c951:	c9                   	leaveq 
    c952:	c3                   	retq   
    c953:	81 ff ff 03 00 00    	cmp    $0x3ff,%edi
    c959:	76 13                	jbe    c96e <__pthread_getspecific+0x5e>
    c95b:	31 c0                	xor    %eax,%eax
    c95d:	0f 1f 00             	nopl   (%rax)
    c960:	eb ee                	jmp    c950 <__pthread_getspecific+0x40>
    c962:	48 c7 42 08 00 00 00 	movq   $0x0,0x8(%rdx)
    c969:	00 
    c96a:	31 c0                	xor    %eax,%eax
    c96c:	eb e2                	jmp    c950 <__pthread_getspecific+0x40>
    c96e:	89 fa                	mov    %edi,%edx
    c970:	c1 ea 05             	shr    $0x5,%edx
    c973:	64 48 8b 14 d5 10 05 	mov    %fs:0x510(,%rdx,8),%rdx
    c97a:	00 00 
    c97c:	48 85 d2             	test   %rdx,%rdx
    c97f:	74 da                	je     c95b <__pthread_getspecific+0x4b>
    c981:	48 89 f8             	mov    %rdi,%rax
    c984:	83 e0 1f             	and    $0x1f,%eax
    c987:	48 c1 e0 04          	shl    $0x4,%rax
    c98b:	48 01 c2             	add    %rax,%rdx
    c98e:	eb a1                	jmp    c931 <__pthread_getspecific+0x21>

000000000000c990 <__pthread_setspecific>:
    c990:	55                   	push   %rbp
    c991:	64 48 8b 0c 25 10 00 	mov    %fs:0x10,%rcx
    c998:	00 00 
    c99a:	48 89 e5             	mov    %rsp,%rbp
    c99d:	48 89 5d e0          	mov    %rbx,-0x20(%rbp)
    c9a1:	4c 89 6d f0          	mov    %r13,-0x10(%rbp)
    c9a5:	89 fb                	mov    %edi,%ebx
    c9a7:	4c 89 65 e8          	mov    %r12,-0x18(%rbp)
    c9ab:	4c 89 75 f8          	mov    %r14,-0x8(%rbp)
    c9af:	48 83 ec 20          	sub    $0x20,%rsp
    c9b3:	83 ff 1f             	cmp    $0x1f,%edi
    c9b6:	49 89 f5             	mov    %rsi,%r13
    c9b9:	77 5c                	ja     ca17 <__pthread_setspecific+0x87>
    c9bb:	89 fb                	mov    %edi,%ebx
    c9bd:	48 8d 15 dc b8 20 00 	lea    0x20b8dc(%rip),%rdx        # 2182a0 <__GI___pthread_keys>
    c9c4:	48 89 d8             	mov    %rbx,%rax
    c9c7:	48 c1 e0 04          	shl    $0x4,%rax
    c9cb:	44 8b 24 02          	mov    (%rdx,%rax,1),%r12d
    c9cf:	41 f6 c4 01          	test   $0x1,%r12b
    c9d3:	74 3b                	je     ca10 <__pthread_setspecific+0x80>
    c9d5:	48 85 f6             	test   %rsi,%rsi
    c9d8:	48 8d 84 01 10 03 00 	lea    0x310(%rcx,%rax,1),%rax
    c9df:	00 
    c9e0:	74 09                	je     c9eb <__pthread_setspecific+0x5b>
    c9e2:	64 c6 04 25 10 06 00 	movb   $0x1,%fs:0x610
    c9e9:	00 01 
    c9eb:	45 89 e4             	mov    %r12d,%r12d
    c9ee:	4c 89 68 08          	mov    %r13,0x8(%rax)
    c9f2:	4c 89 20             	mov    %r12,(%rax)
    c9f5:	31 c0                	xor    %eax,%eax
    c9f7:	48 8b 1c 24          	mov    (%rsp),%rbx
    c9fb:	4c 8b 64 24 08       	mov    0x8(%rsp),%r12
    ca00:	4c 8b 6c 24 10       	mov    0x10(%rsp),%r13
    ca05:	4c 8b 74 24 18       	mov    0x18(%rsp),%r14
    ca0a:	c9                   	leaveq 
    ca0b:	c3                   	retq   
    ca0c:	0f 1f 40 00          	nopl   0x0(%rax)
    ca10:	b8 16 00 00 00       	mov    $0x16,%eax
    ca15:	eb e0                	jmp    c9f7 <__pthread_setspecific+0x67>
    ca17:	81 ff ff 03 00 00    	cmp    $0x3ff,%edi
    ca1d:	77 f1                	ja     ca10 <__pthread_setspecific+0x80>
    ca1f:	89 f8                	mov    %edi,%eax
    ca21:	48 8d 15 78 b8 20 00 	lea    0x20b878(%rip),%rdx        # 2182a0 <__GI___pthread_keys>
    ca28:	48 c1 e0 04          	shl    $0x4,%rax
    ca2c:	44 8b 24 02          	mov    (%rdx,%rax,1),%r12d
    ca30:	41 f6 c4 01          	test   $0x1,%r12b
    ca34:	74 da                	je     ca10 <__pthread_setspecific+0x80>
    ca36:	41 89 fe             	mov    %edi,%r14d
    ca39:	41 c1 ee 05          	shr    $0x5,%r14d
    ca3d:	64 4a 8b 14 f5 10 05 	mov    %fs:0x510(,%r14,8),%rdx
    ca44:	00 00 
    ca46:	48 85 d2             	test   %rdx,%rdx
    ca49:	74 19                	je     ca64 <__pthread_setspecific+0xd4>
    ca4b:	48 89 d8             	mov    %rbx,%rax
    ca4e:	83 e0 1f             	and    $0x1f,%eax
    ca51:	48 c1 e0 04          	shl    $0x4,%rax
    ca55:	48 8d 04 02          	lea    (%rdx,%rax,1),%rax
    ca59:	64 c6 04 25 10 06 00 	movb   $0x1,%fs:0x610
    ca60:	00 01 
    ca62:	eb 87                	jmp    c9eb <__pthread_setspecific+0x5b>
    ca64:	31 c0                	xor    %eax,%eax
    ca66:	48 85 f6             	test   %rsi,%rsi
    ca69:	74 8c                	je     c9f7 <__pthread_setspecific+0x67>
    ca6b:	be 10 00 00 00       	mov    $0x10,%esi
    ca70:	bf 20 00 00 00       	mov    $0x20,%edi
    ca75:	e8 06 8a ff ff       	callq  5480 <calloc@plt>
    ca7a:	48 89 c2             	mov    %rax,%rdx
    ca7d:	b8 0c 00 00 00       	mov    $0xc,%eax
    ca82:	48 85 d2             	test   %rdx,%rdx
    ca85:	0f 84 6c ff ff ff    	je     c9f7 <__pthread_setspecific+0x67>
    ca8b:	64 4a 89 14 f5 10 05 	mov    %rdx,%fs:0x510(,%r14,8)
    ca92:	00 00 
    ca94:	eb b5                	jmp    ca4b <__pthread_setspecific+0xbb>
    ca96:	90                   	nop
    ca97:	90                   	nop
    ca98:	90                   	nop
    ca99:	90                   	nop
    ca9a:	90                   	nop
    ca9b:	90                   	nop
    ca9c:	90                   	nop
    ca9d:	90                   	nop
    ca9e:	90                   	nop
    ca9f:	90                   	nop

000000000000caa0 <pthread_sigmask>:
    caa0:	55                   	push   %rbp
    caa1:	89 f8                	mov    %edi,%eax
    caa3:	48 89 e5             	mov    %rsp,%rbp
    caa6:	48 83 ec 08          	sub    $0x8,%rsp
    caaa:	48 85 f6             	test   %rsi,%rsi
    caad:	74 0f                	je     cabe <pthread_sigmask+0x1e>
    caaf:	48 b9 00 00 00 80 01 	movabs $0x180000000,%rcx
    cab6:	00 00 00 
    cab9:	48 85 0e             	test   %rcx,(%rsi)
    cabc:	75 23                	jne    cae1 <pthread_sigmask+0x41>
    cabe:	48 63 f8             	movslq %eax,%rdi
    cac1:	41 ba 08 00 00 00    	mov    $0x8,%r10d
    cac7:	b8 0e 00 00 00       	mov    $0xe,%eax
    cacc:	0f 05                	syscall 
    cace:	89 c2                	mov    %eax,%edx
    cad0:	89 c1                	mov    %eax,%ecx
    cad2:	31 c0                	xor    %eax,%eax
    cad4:	f7 d9                	neg    %ecx
    cad6:	81 fa 00 f0 ff ff    	cmp    $0xfffff000,%edx
    cadc:	0f 47 c1             	cmova  %ecx,%eax
    cadf:	c9                   	leaveq 
    cae0:	c3                   	retq   
    cae1:	48 8d 7d 80          	lea    -0x80(%rbp),%rdi
    cae5:	b9 20 00 00 00       	mov    $0x20,%ecx
    caea:	f3 a5                	rep movsl %ds:(%rsi),%es:(%rdi)
    caec:	48 b9 ff ff ff 7f fe 	movabs $0xfffffffe7fffffff,%rcx
    caf3:	ff ff ff 
    caf6:	48 8d 75 80          	lea    -0x80(%rbp),%rsi
    cafa:	48 21 4d 80          	and    %rcx,-0x80(%rbp)
    cafe:	eb be                	jmp    cabe <pthread_sigmask+0x1e>

000000000000cb00 <pthread_kill>:
    cb00:	55                   	push   %rbp
    cb01:	8b 8f d0 02 00 00    	mov    0x2d0(%rdi),%ecx
    cb07:	85 c9                	test   %ecx,%ecx
    cb09:	48 89 e5             	mov    %rsp,%rbp
    cb0c:	7e 35                	jle    cb43 <pthread_kill+0x43>
    cb0e:	8d 56 e0             	lea    -0x20(%rsi),%edx
    cb11:	b8 16 00 00 00       	mov    $0x16,%eax
    cb16:	83 fa 01             	cmp    $0x1,%edx
    cb19:	76 26                	jbe    cb41 <pthread_kill+0x41>
    cb1b:	64 8b 3c 25 d4 02 00 	mov    %fs:0x2d4,%edi
    cb22:	00 
    cb23:	48 63 d6             	movslq %esi,%rdx
    cb26:	48 63 ff             	movslq %edi,%rdi
    cb29:	48 63 f1             	movslq %ecx,%rsi
    cb2c:	b0 ea                	mov    $0xea,%al
    cb2e:	0f 05                	syscall 
    cb30:	89 c2                	mov    %eax,%edx
    cb32:	89 c1                	mov    %eax,%ecx
    cb34:	31 c0                	xor    %eax,%eax
    cb36:	f7 d9                	neg    %ecx
    cb38:	81 fa 00 f0 ff ff    	cmp    $0xfffff000,%edx
    cb3e:	0f 47 c1             	cmova  %ecx,%eax
    cb41:	c9                   	leaveq 
    cb42:	c3                   	retq   
    cb43:	b8 03 00 00 00       	mov    $0x3,%eax
    cb48:	c9                   	leaveq 
    cb49:	c3                   	retq   
    cb4a:	90                   	nop
    cb4b:	90                   	nop
    cb4c:	90                   	nop
    cb4d:	90                   	nop
    cb4e:	90                   	nop
    cb4f:	90                   	nop

000000000000cb50 <pthread_sigqueue>:
    cb50:	55                   	push   %rbp
    cb51:	48 89 e5             	mov    %rsp,%rbp
    cb54:	4c 89 65 e8          	mov    %r12,-0x18(%rbp)
    cb58:	4c 89 75 f8          	mov    %r14,-0x8(%rbp)
    cb5c:	41 89 f4             	mov    %esi,%r12d
    cb5f:	48 89 5d e0          	mov    %rbx,-0x20(%rbp)
    cb63:	4c 89 6d f0          	mov    %r13,-0x10(%rbp)
    cb67:	48 81 ec a0 00 00 00 	sub    $0xa0,%rsp
    cb6e:	8b 9f d0 02 00 00    	mov    0x2d0(%rdi),%ebx
    cb74:	49 89 d6             	mov    %rdx,%r14
    cb77:	85 db                	test   %ebx,%ebx
    cb79:	0f 8e 91 00 00 00    	jle    cc10 <pthread_sigqueue+0xc0>
    cb7f:	41 8d 54 24 e0       	lea    -0x20(%r12),%edx
    cb84:	b8 16 00 00 00       	mov    $0x16,%eax
    cb89:	83 fa 01             	cmp    $0x1,%edx
    cb8c:	76 70                	jbe    cbfe <pthread_sigqueue+0xae>
    cb8e:	4c 8d ad 60 ff ff ff 	lea    -0xa0(%rbp),%r13
    cb95:	31 c0                	xor    %eax,%eax
    cb97:	b9 10 00 00 00       	mov    $0x10,%ecx
    cb9c:	4c 89 ef             	mov    %r13,%rdi
    cb9f:	f3 48 ab             	rep stos %rax,%es:(%rdi)
    cba2:	89 b5 60 ff ff ff    	mov    %esi,-0xa0(%rbp)
    cba8:	c7 85 68 ff ff ff ff 	movl   $0xffffffff,-0x98(%rbp)
    cbaf:	ff ff ff 
    cbb2:	64 8b 04 25 d4 02 00 	mov    %fs:0x2d4,%eax
    cbb9:	00 
    cbba:	89 85 70 ff ff ff    	mov    %eax,-0x90(%rbp)
    cbc0:	e8 eb 87 ff ff       	callq  53b0 <getuid@plt>
    cbc5:	4c 89 b5 78 ff ff ff 	mov    %r14,-0x88(%rbp)
    cbcc:	89 85 74 ff ff ff    	mov    %eax,-0x8c(%rbp)
    cbd2:	64 8b 3c 25 d4 02 00 	mov    %fs:0x2d4,%edi
    cbd9:	00 
    cbda:	b8 29 01 00 00       	mov    $0x129,%eax
    cbdf:	4d 89 ea             	mov    %r13,%r10
    cbe2:	49 63 d4             	movslq %r12d,%rdx
    cbe5:	48 63 f3             	movslq %ebx,%rsi
    cbe8:	48 63 ff             	movslq %edi,%rdi
    cbeb:	0f 05                	syscall 
    cbed:	89 c2                	mov    %eax,%edx
    cbef:	89 c1                	mov    %eax,%ecx
    cbf1:	31 c0                	xor    %eax,%eax
    cbf3:	f7 d9                	neg    %ecx
    cbf5:	81 fa 00 f0 ff ff    	cmp    $0xfffff000,%edx
    cbfb:	0f 47 c1             	cmova  %ecx,%eax
    cbfe:	48 8b 5d e0          	mov    -0x20(%rbp),%rbx
    cc02:	4c 8b 65 e8          	mov    -0x18(%rbp),%r12
    cc06:	4c 8b 6d f0          	mov    -0x10(%rbp),%r13
    cc0a:	4c 8b 75 f8          	mov    -0x8(%rbp),%r14
    cc0e:	c9                   	leaveq 
    cc0f:	c3                   	retq   
    cc10:	b8 03 00 00 00       	mov    $0x3,%eax
    cc15:	eb e7                	jmp    cbfe <pthread_sigqueue+0xae>
    cc17:	90                   	nop
    cc18:	90                   	nop
    cc19:	90                   	nop
    cc1a:	90                   	nop
    cc1b:	90                   	nop
    cc1c:	90                   	nop
    cc1d:	90                   	nop
    cc1e:	90                   	nop
    cc1f:	90                   	nop

000000000000cc20 <pthread_cancel>:
    cc20:	55                   	push   %rbp
    cc21:	48 89 e5             	mov    %rsp,%rbp
    cc24:	53                   	push   %rbx
    cc25:	48 89 fb             	mov    %rdi,%rbx
    cc28:	48 83 ec 08          	sub    $0x8,%rsp
    cc2c:	8b 87 d0 02 00 00    	mov    0x2d0(%rdi),%eax
    cc32:	85 c0                	test   %eax,%eax
    cc34:	0f 8e 9c 00 00 00    	jle    ccd6 <pthread_cancel+0xb6>
    cc3a:	e8 61 32 00 00       	callq  fea0 <pthread_cancel_init>
    cc3f:	48 8d 8b 08 03 00 00 	lea    0x308(%rbx),%rcx
    cc46:	66 2e 0f 1f 84 00 00 	nopw   %cs:0x0(%rax,%rax,1)
    cc4d:	00 00 00 
    cc50:	8b 83 08 03 00 00    	mov    0x308(%rbx),%eax
    cc56:	89 c2                	mov    %eax,%edx
    cc58:	83 ca 0c             	or     $0xc,%edx
    cc5b:	39 d0                	cmp    %edx,%eax
    cc5d:	74 33                	je     cc92 <pthread_cancel+0x72>
    cc5f:	89 d6                	mov    %edx,%esi
    cc61:	83 e6 bb             	and    $0xffffffbb,%esi
    cc64:	83 fe 0a             	cmp    $0xa,%esi
    cc67:	74 37                	je     cca0 <pthread_cancel+0x80>
    cc69:	64 c7 04 25 18 00 00 	movl   $0x1,%fs:0x18
    cc70:	00 01 00 00 00 
    cc75:	48 8b 35 ec f6 20 00 	mov    0x20f6ec(%rip),%rsi        # 21c368 <__libc_multiple_threads_ptr>
    cc7c:	c7 06 01 00 00 00    	movl   $0x1,(%rsi)
    cc82:	c7 05 cc f6 20 00 01 	movl   $0x1,0x20f6cc(%rip)        # 21c358 <__pthread_multiple_threads>
    cc89:	00 00 00 
    cc8c:	f0 0f b1 11          	lock cmpxchg %edx,(%rcx)
    cc90:	75 be                	jne    cc50 <pthread_cancel+0x30>
    cc92:	31 c0                	xor    %eax,%eax
    cc94:	48 83 c4 08          	add    $0x8,%rsp
    cc98:	5b                   	pop    %rbx
    cc99:	c9                   	leaveq 
    cc9a:	c3                   	retq   
    cc9b:	0f 1f 44 00 00       	nopl   0x0(%rax,%rax,1)
    cca0:	89 c6                	mov    %eax,%esi
    cca2:	83 ce 04             	or     $0x4,%esi
    cca5:	f0 0f b1 31          	lock cmpxchg %esi,(%rcx)
    cca9:	75 a5                	jne    cc50 <pthread_cancel+0x30>
    ccab:	8b b3 d0 02 00 00    	mov    0x2d0(%rbx),%esi
    ccb1:	64 8b 3c 25 d4 02 00 	mov    %fs:0x2d4,%edi
    ccb8:	00 
    ccb9:	ba 20 00 00 00       	mov    $0x20,%edx
    ccbe:	48 63 f6             	movslq %esi,%rsi
    ccc1:	48 63 ff             	movslq %edi,%rdi
    ccc4:	b8 ea 00 00 00       	mov    $0xea,%eax
    ccc9:	0f 05                	syscall 
    cccb:	3d 00 f0 ff ff       	cmp    $0xfffff000,%eax
    ccd0:	76 c0                	jbe    cc92 <pthread_cancel+0x72>
    ccd2:	f7 d8                	neg    %eax
    ccd4:	eb be                	jmp    cc94 <pthread_cancel+0x74>
    ccd6:	b8 03 00 00 00       	mov    $0x3,%eax
    ccdb:	eb b7                	jmp    cc94 <pthread_cancel+0x74>
    ccdd:	90                   	nop
    ccde:	90                   	nop
    ccdf:	90                   	nop

000000000000cce0 <pthread_testcancel>:
    cce0:	55                   	push   %rbp
    cce1:	48 89 e5             	mov    %rsp,%rbp
    cce4:	64 8b 04 25 08 03 00 	mov    %fs:0x308,%eax
    cceb:	00 
    ccec:	83 e0 b9             	and    $0xffffffb9,%eax
    ccef:	83 f8 08             	cmp    $0x8,%eax
    ccf2:	74 02                	je     ccf6 <pthread_testcancel+0x16>
    ccf4:	c9                   	leaveq 
    ccf5:	c3                   	retq   
    ccf6:	64 48 c7 04 25 30 06 	movq   $0xffffffffffffffff,%fs:0x630
    ccfd:	00 00 ff ff ff ff 
    cd03:	f0 64 83 0c 25 08 03 	lock orl $0x10,%fs:0x308
    cd0a:	00 00 10 
    cd0d:	64 48 8b 3c 25 00 03 	mov    %fs:0x300,%rdi
    cd14:	00 00 
    cd16:	e8 25 13 00 00       	callq  e040 <__pthread_unwind>
    cd1b:	90                   	nop
    cd1c:	90                   	nop
    cd1d:	90                   	nop
    cd1e:	90                   	nop
    cd1f:	90                   	nop

000000000000cd20 <pthread_setcancelstate>:
    cd20:	55                   	push   %rbp
    cd21:	b8 16 00 00 00       	mov    $0x16,%eax
    cd26:	48 89 e5             	mov    %rsp,%rbp
    cd29:	48 83 ec 10          	sub    $0x10,%rsp
    cd2d:	83 ff 01             	cmp    $0x1,%edi
    cd30:	76 06                	jbe    cd38 <pthread_setcancelstate+0x18>
    cd32:	c9                   	leaveq 
    cd33:	c3                   	retq   
    cd34:	0f 1f 40 00          	nopl   0x0(%rax)
    cd38:	64 8b 04 25 08 03 00 	mov    %fs:0x308,%eax
    cd3f:	00 
    cd40:	89 45 fc             	mov    %eax,-0x4(%rbp)
    cd43:	8b 55 fc             	mov    -0x4(%rbp),%edx
    cd46:	89 d1                	mov    %edx,%ecx
    cd48:	89 d0                	mov    %edx,%eax
    cd4a:	83 c9 01             	or     $0x1,%ecx
    cd4d:	83 e0 fe             	and    $0xfffffffe,%eax
    cd50:	83 ff 01             	cmp    $0x1,%edi
    cd53:	0f 45 c8             	cmovne %eax,%ecx
    cd56:	48 85 f6             	test   %rsi,%rsi
    cd59:	74 07                	je     cd62 <pthread_setcancelstate+0x42>
    cd5b:	89 d0                	mov    %edx,%eax
    cd5d:	83 e0 01             	and    $0x1,%eax
    cd60:	89 06                	mov    %eax,(%rsi)
    cd62:	39 ca                	cmp    %ecx,%edx
    cd64:	74 1e                	je     cd84 <pthread_setcancelstate+0x64>
    cd66:	89 d0                	mov    %edx,%eax
    cd68:	f0 64 0f b1 0c 25 08 	lock cmpxchg %ecx,%fs:0x308
    cd6f:	03 00 00 
    cd72:	89 45 fc             	mov    %eax,-0x4(%rbp)
    cd75:	8b 45 fc             	mov    -0x4(%rbp),%eax
    cd78:	39 c2                	cmp    %eax,%edx
    cd7a:	75 24                	jne    cda0 <pthread_setcancelstate+0x80>
    cd7c:	83 e1 bb             	and    $0xffffffbb,%ecx
    cd7f:	83 f9 0a             	cmp    $0xa,%ecx
    cd82:	74 04                	je     cd88 <pthread_setcancelstate+0x68>
    cd84:	31 c0                	xor    %eax,%eax
    cd86:	c9                   	leaveq 
    cd87:	c3                   	retq   
    cd88:	f0 64 83 0c 25 08 03 	lock orl $0x10,%fs:0x308
    cd8f:	00 00 10 
    cd92:	64 48 8b 3c 25 00 03 	mov    %fs:0x300,%rdi
    cd99:	00 00 
    cd9b:	e8 a0 12 00 00       	callq  e040 <__pthread_unwind>
    cda0:	89 c2                	mov    %eax,%edx
    cda2:	eb a2                	jmp    cd46 <pthread_setcancelstate+0x26>
    cda4:	90                   	nop
    cda5:	90                   	nop
    cda6:	90                   	nop
    cda7:	90                   	nop
    cda8:	90                   	nop
    cda9:	90                   	nop
    cdaa:	90                   	nop
    cdab:	90                   	nop
    cdac:	90                   	nop
    cdad:	90                   	nop
    cdae:	90                   	nop
    cdaf:	90                   	nop

000000000000cdb0 <pthread_setcanceltype>:
    cdb0:	55                   	push   %rbp
    cdb1:	b8 16 00 00 00       	mov    $0x16,%eax
    cdb6:	48 89 e5             	mov    %rsp,%rbp
    cdb9:	48 83 ec 10          	sub    $0x10,%rsp
    cdbd:	83 ff 01             	cmp    $0x1,%edi
    cdc0:	76 06                	jbe    cdc8 <pthread_setcanceltype+0x18>
    cdc2:	c9                   	leaveq 
    cdc3:	c3                   	retq   
    cdc4:	0f 1f 40 00          	nopl   0x0(%rax)
    cdc8:	64 8b 04 25 08 03 00 	mov    %fs:0x308,%eax
    cdcf:	00 
    cdd0:	89 45 fc             	mov    %eax,-0x4(%rbp)
    cdd3:	8b 55 fc             	mov    -0x4(%rbp),%edx
    cdd6:	89 d1                	mov    %edx,%ecx
    cdd8:	89 d0                	mov    %edx,%eax
    cdda:	83 c9 02             	or     $0x2,%ecx
    cddd:	83 e0 fd             	and    $0xfffffffd,%eax
    cde0:	83 ff 01             	cmp    $0x1,%edi
    cde3:	0f 45 c8             	cmovne %eax,%ecx
    cde6:	48 85 f6             	test   %rsi,%rsi
    cde9:	74 09                	je     cdf4 <pthread_setcanceltype+0x44>
    cdeb:	89 d0                	mov    %edx,%eax
    cded:	d1 e8                	shr    %eax
    cdef:	83 e0 01             	and    $0x1,%eax
    cdf2:	89 06                	mov    %eax,(%rsi)
    cdf4:	39 ca                	cmp    %ecx,%edx
    cdf6:	74 1e                	je     ce16 <pthread_setcanceltype+0x66>
    cdf8:	89 d0                	mov    %edx,%eax
    cdfa:	f0 64 0f b1 0c 25 08 	lock cmpxchg %ecx,%fs:0x308
    ce01:	03 00 00 
    ce04:	89 45 fc             	mov    %eax,-0x4(%rbp)
    ce07:	8b 45 fc             	mov    -0x4(%rbp),%eax
    ce0a:	39 c2                	cmp    %eax,%edx
    ce0c:	75 31                	jne    ce3f <pthread_setcanceltype+0x8f>
    ce0e:	83 e1 bb             	and    $0xffffffbb,%ecx
    ce11:	83 f9 0a             	cmp    $0xa,%ecx
    ce14:	74 04                	je     ce1a <pthread_setcanceltype+0x6a>
    ce16:	31 c0                	xor    %eax,%eax
    ce18:	c9                   	leaveq 
    ce19:	c3                   	retq   
    ce1a:	64 48 c7 04 25 30 06 	movq   $0xffffffffffffffff,%fs:0x630
    ce21:	00 00 ff ff ff ff 
    ce27:	f0 64 83 0c 25 08 03 	lock orl $0x10,%fs:0x308
    ce2e:	00 00 10 
    ce31:	64 48 8b 3c 25 00 03 	mov    %fs:0x300,%rdi
    ce38:	00 00 
    ce3a:	e8 01 12 00 00       	callq  e040 <__pthread_unwind>
    ce3f:	89 c2                	mov    %eax,%edx
    ce41:	eb 93                	jmp    cdd6 <pthread_setcanceltype+0x26>
    ce43:	90                   	nop
    ce44:	90                   	nop
    ce45:	90                   	nop
    ce46:	90                   	nop
    ce47:	90                   	nop
    ce48:	90                   	nop
    ce49:	90                   	nop
    ce4a:	90                   	nop
    ce4b:	90                   	nop
    ce4c:	90                   	nop
    ce4d:	90                   	nop
    ce4e:	90                   	nop
    ce4f:	90                   	nop

000000000000ce50 <__pthread_once>:
    ce50:	f7 07 02 00 00 00    	testl  $0x2,(%rdi)
    ce56:	74 03                	je     ce5b <__pthread_once+0xb>
    ce58:	31 c0                	xor    %eax,%eax
    ce5a:	c3                   	retq   
    ce5b:	56                   	push   %rsi
    ce5c:	4d 31 d2             	xor    %r10,%r10
    ce5f:	8b 07                	mov    (%rdi),%eax
    ce61:	89 c2                	mov    %eax,%edx
    ce63:	a9 02 00 00 00       	test   $0x2,%eax
    ce68:	75 5a                	jne    cec4 <__pthread_once+0x74>
    ce6a:	83 e2 03             	and    $0x3,%edx
    ce6d:	0b 15 0d f5 20 00    	or     0x20f50d(%rip),%edx        # 21c380 <__fork_generation>
    ce73:	83 ca 01             	or     $0x1,%edx
    ce76:	f0 0f b1 17          	lock cmpxchg %edx,(%rdi)
    ce7a:	75 e5                	jne    ce61 <__pthread_once+0x11>
    ce7c:	a9 01 00 00 00       	test   $0x1,%eax
    ce81:	74 1a                	je     ce9d <__pthread_once+0x4d>
    ce83:	31 d0                	xor    %edx,%eax
    ce85:	a9 fc ff ff ff       	test   $0xfffffffc,%eax
    ce8a:	75 11                	jne    ce9d <__pthread_once+0x4d>
    ce8c:	64 8b 34 25 48 00 00 	mov    %fs:0x48,%esi
    ce93:	00 
    ce94:	b8 ca 00 00 00       	mov    $0xca,%eax
    ce99:	0f 05                	syscall 
    ce9b:	eb c2                	jmp    ce5f <__pthread_once+0xf>
    ce9d:	57                   	push   %rdi
    ce9e:	57                   	push   %rdi
    ce9f:	ff 54 24 10          	callq  *0x10(%rsp)
    cea3:	5f                   	pop    %rdi
    cea4:	f0 ff 07             	lock incl (%rdi)
    cea7:	48 83 c4 08          	add    $0x8,%rsp
    ceab:	ba ff ff ff 7f       	mov    $0x7fffffff,%edx
    ceb0:	be 01 00 00 00       	mov    $0x1,%esi
    ceb5:	64 0b 34 25 48 00 00 	or     %fs:0x48,%esi
    cebc:	00 
    cebd:	b8 ca 00 00 00       	mov    $0xca,%eax
    cec2:	0f 05                	syscall 
    cec4:	48 83 c4 08          	add    $0x8,%rsp
    cec8:	31 c0                	xor    %eax,%eax
    ceca:	c3                   	retq   
    cecb:	0f 1f 44 00 00       	nopl   0x0(%rax,%rax,1)

000000000000ced0 <clear_once_control>:
    ced0:	48 8b 3c 24          	mov    (%rsp),%rdi
    ced4:	49 89 c0             	mov    %rax,%r8
    ced7:	c7 07 00 00 00 00    	movl   $0x0,(%rdi)
    cedd:	ba ff ff ff 7f       	mov    $0x7fffffff,%edx
    cee2:	be 01 00 00 00       	mov    $0x1,%esi
    cee7:	64 0b 34 25 48 00 00 	or     %fs:0x48,%esi
    ceee:	00 
    ceef:	b8 ca 00 00 00       	mov    $0xca,%eax
    cef4:	0f 05                	syscall 
    cef6:	4c 89 c7             	mov    %r8,%rdi
    cef9:	e8 b2 31 00 00       	callq  100b0 <_Unwind_Resume>
    cefe:	f4                   	hlt    
    ceff:	90                   	nop

000000000000cf00 <pthread_atfork@GLIBC_2.2.5>:
    cf00:	48 8d 05 29 b3 20 00 	lea    0x20b329(%rip),%rax        # 218230 <__dso_handle>
    cf07:	55                   	push   %rbp
    cf08:	48 85 c0             	test   %rax,%rax
    cf0b:	48 89 e5             	mov    %rsp,%rbp
    cf0e:	74 0d                	je     cf1d <pthread_atfork@GLIBC_2.2.5+0x1d>
    cf10:	48 8b 0d 19 b3 20 00 	mov    0x20b319(%rip),%rcx        # 218230 <__dso_handle>
    cf17:	c9                   	leaveq 
    cf18:	e9 03 85 ff ff       	jmpq   5420 <__register_atfork@plt>
    cf1d:	31 c9                	xor    %ecx,%ecx
    cf1f:	eb f6                	jmp    cf17 <pthread_atfork@GLIBC_2.2.5+0x17>
    cf21:	90                   	nop
    cf22:	90                   	nop
    cf23:	90                   	nop
    cf24:	90                   	nop
    cf25:	90                   	nop
    cf26:	90                   	nop
    cf27:	90                   	nop
    cf28:	90                   	nop
    cf29:	90                   	nop
    cf2a:	90                   	nop
    cf2b:	90                   	nop
    cf2c:	90                   	nop
    cf2d:	90                   	nop
    cf2e:	90                   	nop
    cf2f:	90                   	nop

000000000000cf30 <pthread_getcpuclockid>:
    cf30:	55                   	push   %rbp
    cf31:	8b 87 d0 02 00 00    	mov    0x2d0(%rdi),%eax
    cf37:	48 89 e5             	mov    %rsp,%rbp
    cf3a:	85 c0                	test   %eax,%eax
    cf3c:	7e 0e                	jle    cf4c <pthread_getcpuclockid+0x1c>
    cf3e:	f7 d0                	not    %eax
    cf40:	c1 e0 03             	shl    $0x3,%eax
    cf43:	83 c8 06             	or     $0x6,%eax
    cf46:	89 06                	mov    %eax,(%rsi)
    cf48:	31 c0                	xor    %eax,%eax
    cf4a:	c9                   	leaveq 
    cf4b:	c3                   	retq   
    cf4c:	b8 03 00 00 00       	mov    $0x3,%eax
    cf51:	c9                   	leaveq 
    cf52:	c3                   	retq   
    cf53:	90                   	nop
    cf54:	90                   	nop
    cf55:	90                   	nop
    cf56:	90                   	nop
    cf57:	90                   	nop
    cf58:	90                   	nop
    cf59:	90                   	nop
    cf5a:	90                   	nop
    cf5b:	90                   	nop
    cf5c:	90                   	nop
    cf5d:	90                   	nop
    cf5e:	90                   	nop
    cf5f:	90                   	nop

000000000000cf60 <__pthread_clock_gettime>:
    cf60:	55                   	push   %rbp
    cf61:	48 89 e5             	mov    %rsp,%rbp
    cf64:	41 54                	push   %r12
    cf66:	53                   	push   %rbx
    cf67:	48 89 d3             	mov    %rdx,%rbx
    cf6a:	48 83 ec 10          	sub    $0x10,%rsp
    cf6e:	0f 31                	rdtsc  
    cf70:	49 89 d4             	mov    %rdx,%r12
    cf73:	89 c0                	mov    %eax,%eax
    cf75:	c1 ef 03             	shr    $0x3,%edi
    cf78:	49 c1 e4 20          	shl    $0x20,%r12
    cf7c:	49 09 c4             	or     %rax,%r12
    cf7f:	85 ff                	test   %edi,%edi
    cf81:	74 2d                	je     cfb0 <__pthread_clock_gettime+0x50>
    cf83:	64 8b 04 25 d0 02 00 	mov    %fs:0x2d0,%eax
    cf8a:	00 
    cf8b:	39 c7                	cmp    %eax,%edi
    cf8d:	74 21                	je     cfb0 <__pthread_clock_gettime+0x50>
    cf8f:	48 89 75 e8          	mov    %rsi,-0x18(%rbp)
    cf93:	e8 28 8e ff ff       	callq  5dc0 <__find_thread_by_id>
    cf98:	48 85 c0             	test   %rax,%rax
    cf9b:	48 8b 75 e8          	mov    -0x18(%rbp),%rsi
    cf9f:	74 41                	je     cfe2 <__pthread_clock_gettime+0x82>
    cfa1:	4c 2b a0 20 06 00 00 	sub    0x620(%rax),%r12
    cfa8:	4c 89 e0             	mov    %r12,%rax
    cfab:	eb 12                	jmp    cfbf <__pthread_clock_gettime+0x5f>
    cfad:	0f 1f 00             	nopl   (%rax)
    cfb0:	64 48 8b 04 25 20 06 	mov    %fs:0x620,%rax
    cfb7:	00 00 
    cfb9:	49 29 c4             	sub    %rax,%r12
    cfbc:	4c 89 e0             	mov    %r12,%rax
    cfbf:	31 d2                	xor    %edx,%edx
    cfc1:	48 f7 f6             	div    %rsi
    cfc4:	48 89 03             	mov    %rax,(%rbx)
    cfc7:	48 69 c2 00 ca 9a 3b 	imul   $0x3b9aca00,%rdx,%rax
    cfce:	31 d2                	xor    %edx,%edx
    cfd0:	48 f7 f6             	div    %rsi
    cfd3:	48 89 43 08          	mov    %rax,0x8(%rbx)
    cfd7:	31 c0                	xor    %eax,%eax
    cfd9:	48 83 c4 10          	add    $0x10,%rsp
    cfdd:	5b                   	pop    %rbx
    cfde:	41 5c                	pop    %r12
    cfe0:	c9                   	leaveq 
    cfe1:	c3                   	retq   
    cfe2:	48 8b 05 97 af 20 00 	mov    0x20af97(%rip),%rax        # 217f80 <_DYNAMIC+0x1f0>
    cfe9:	64 c7 00 16 00 00 00 	movl   $0x16,%fs:(%rax)
    cff0:	b8 ff ff ff ff       	mov    $0xffffffff,%eax
    cff5:	eb e2                	jmp    cfd9 <__pthread_clock_gettime+0x79>
    cff7:	90                   	nop
    cff8:	90                   	nop
    cff9:	90                   	nop
    cffa:	90                   	nop
    cffb:	90                   	nop
    cffc:	90                   	nop
    cffd:	90                   	nop
    cffe:	90                   	nop
    cfff:	90                   	nop

000000000000d000 <__pthread_clock_settime>:
    d000:	55                   	push   %rbp
    d001:	c1 ef 03             	shr    $0x3,%edi
    d004:	48 89 e5             	mov    %rsp,%rbp
    d007:	53                   	push   %rbx
    d008:	48 89 f3             	mov    %rsi,%rbx
    d00b:	48 83 ec 08          	sub    $0x8,%rsp
    d00f:	85 ff                	test   %edi,%edi
    d011:	74 2d                	je     d040 <__pthread_clock_settime+0x40>
    d013:	64 8b 04 25 d0 02 00 	mov    %fs:0x2d0,%eax
    d01a:	00 
    d01b:	39 c7                	cmp    %eax,%edi
    d01d:	74 21                	je     d040 <__pthread_clock_settime+0x40>
    d01f:	e8 9c 8d ff ff       	callq  5dc0 <__find_thread_by_id>
    d024:	48 85 c0             	test   %rax,%rax
    d027:	74 29                	je     d052 <__pthread_clock_settime+0x52>
    d029:	48 89 98 20 06 00 00 	mov    %rbx,0x620(%rax)
    d030:	48 83 c4 08          	add    $0x8,%rsp
    d034:	31 c0                	xor    %eax,%eax
    d036:	5b                   	pop    %rbx
    d037:	c9                   	leaveq 
    d038:	c3                   	retq   
    d039:	0f 1f 80 00 00 00 00 	nopl   0x0(%rax)
    d040:	64 48 89 1c 25 20 06 	mov    %rbx,%fs:0x620
    d047:	00 00 
    d049:	31 c0                	xor    %eax,%eax
    d04b:	48 83 c4 08          	add    $0x8,%rsp
    d04f:	5b                   	pop    %rbx
    d050:	c9                   	leaveq 
    d051:	c3                   	retq   
    d052:	48 8b 05 27 af 20 00 	mov    0x20af27(%rip),%rax        # 217f80 <_DYNAMIC+0x1f0>
    d059:	64 c7 00 16 00 00 00 	movl   $0x16,%fs:(%rax)
    d060:	b8 ff ff ff ff       	mov    $0xffffffff,%eax
    d065:	eb e4                	jmp    d04b <__pthread_clock_settime+0x4b>
    d067:	90                   	nop
    d068:	90                   	nop
    d069:	90                   	nop
    d06a:	90                   	nop
    d06b:	90                   	nop
    d06c:	90                   	nop
    d06d:	90                   	nop
    d06e:	90                   	nop
    d06f:	90                   	nop

000000000000d070 <sem_init@@GLIBC_2.2.5>:
    d070:	55                   	push   %rbp
    d071:	85 d2                	test   %edx,%edx
    d073:	48 89 e5             	mov    %rsp,%rbp
    d076:	78 2f                	js     d0a7 <sem_init@@GLIBC_2.2.5+0x37>
    d078:	31 c0                	xor    %eax,%eax
    d07a:	85 f6                	test   %esi,%esi
    d07c:	89 17                	mov    %edx,(%rdi)
    d07e:	74 10                	je     d090 <sem_init@@GLIBC_2.2.5+0x20>
    d080:	89 47 04             	mov    %eax,0x4(%rdi)
    d083:	48 c7 47 08 00 00 00 	movq   $0x0,0x8(%rdi)
    d08a:	00 
    d08b:	31 c0                	xor    %eax,%eax
    d08d:	c9                   	leaveq 
    d08e:	c3                   	retq   
    d08f:	90                   	nop
    d090:	64 8b 04 25 48 00 00 	mov    %fs:0x48,%eax
    d097:	00 
    d098:	89 47 04             	mov    %eax,0x4(%rdi)
    d09b:	48 c7 47 08 00 00 00 	movq   $0x0,0x8(%rdi)
    d0a2:	00 
    d0a3:	31 c0                	xor    %eax,%eax
    d0a5:	eb e6                	jmp    d08d <sem_init@@GLIBC_2.2.5+0x1d>
    d0a7:	48 8b 05 d2 ae 20 00 	mov    0x20aed2(%rip),%rax        # 217f80 <_DYNAMIC+0x1f0>
    d0ae:	64 c7 00 16 00 00 00 	movl   $0x16,%fs:(%rax)
    d0b5:	83 c8 ff             	or     $0xffffffff,%eax
    d0b8:	c9                   	leaveq 
    d0b9:	c3                   	retq   
    d0ba:	90                   	nop
    d0bb:	90                   	nop
    d0bc:	90                   	nop
    d0bd:	90                   	nop
    d0be:	90                   	nop
    d0bf:	90                   	nop

000000000000d0c0 <sem_destroy@@GLIBC_2.2.5>:
    d0c0:	55                   	push   %rbp
    d0c1:	31 c0                	xor    %eax,%eax
    d0c3:	48 89 e5             	mov    %rsp,%rbp
    d0c6:	c9                   	leaveq 
    d0c7:	c3                   	retq   
    d0c8:	90                   	nop
    d0c9:	90                   	nop
    d0ca:	90                   	nop
    d0cb:	90                   	nop
    d0cc:	90                   	nop
    d0cd:	90                   	nop
    d0ce:	90                   	nop
    d0cf:	90                   	nop

000000000000d0d0 <check_add_mapping>:
    d0d0:	55                   	push   %rbp
    d0d1:	48 89 e5             	mov    %rsp,%rbp
    d0d4:	48 89 5d d8          	mov    %rbx,-0x28(%rbp)
    d0d8:	89 d3                	mov    %edx,%ebx
    d0da:	48 8d 95 40 ff ff ff 	lea    -0xc0(%rbp),%rdx
    d0e1:	4c 89 65 e0          	mov    %r12,-0x20(%rbp)
    d0e5:	4c 89 6d e8          	mov    %r13,-0x18(%rbp)
    d0e9:	49 89 f5             	mov    %rsi,%r13
    d0ec:	4c 89 75 f0          	mov    %r14,-0x10(%rbp)
    d0f0:	4c 89 7d f8          	mov    %r15,-0x8(%rbp)
    d0f4:	49 89 fe             	mov    %rdi,%r14
    d0f7:	48 81 ec d0 00 00 00 	sub    $0xd0,%rsp
    d0fe:	89 de                	mov    %ebx,%esi
    d100:	bf 01 00 00 00       	mov    $0x1,%edi
    d105:	49 89 cc             	mov    %rcx,%r12
    d108:	e8 a3 83 ff ff       	callq  54b0 <__fxstat64@plt>
    d10d:	85 c0                	test   %eax,%eax
    d10f:	74 3f                	je     d150 <check_add_mapping+0x80>
    d111:	4d 85 e4             	test   %r12,%r12
    d114:	0f 95 c3             	setne  %bl
    d117:	31 d2                	xor    %edx,%edx
    d119:	84 db                	test   %bl,%bl
    d11b:	74 15                	je     d132 <check_add_mapping+0x62>
    d11d:	49 83 fc ff          	cmp    $0xffffffffffffffff,%r12
    d121:	74 0f                	je     d132 <check_add_mapping+0x62>
    d123:	be 20 00 00 00       	mov    $0x20,%esi
    d128:	4c 89 e7             	mov    %r12,%rdi
    d12b:	b8 0b 00 00 00       	mov    $0xb,%eax
    d130:	0f 05                	syscall 
    d132:	48 89 d0             	mov    %rdx,%rax
    d135:	48 8b 5d d8          	mov    -0x28(%rbp),%rbx
    d139:	4c 8b 65 e0          	mov    -0x20(%rbp),%r12
    d13d:	4c 8b 6d e8          	mov    -0x18(%rbp),%r13
    d141:	4c 8b 75 f0          	mov    -0x10(%rbp),%r14
    d145:	4c 8b 7d f8          	mov    -0x8(%rbp),%r15
    d149:	c9                   	leaveq 
    d14a:	c3                   	retq   
    d14b:	0f 1f 44 00 00       	nopl   0x0(%rax,%rax,1)
    d150:	be 01 00 00 00       	mov    $0x1,%esi
    d155:	f0 0f b1 35 87 f1 20 	lock cmpxchg %esi,0x20f187(%rip)        # 21c2e4 <__sem_mappings_lock>
    d15c:	00 
    d15d:	0f 85 e9 06 00 00    	jne    d84c <_L_lock_57>
    d163:	49 8d 45 20          	lea    0x20(%r13),%rax
    d167:	4c 89 ea             	mov    %r13,%rdx
    d16a:	4c 89 f6             	mov    %r14,%rsi
    d16d:	48 89 85 38 ff ff ff 	mov    %rax,-0xc8(%rbp)
    d174:	49 8d 45 3e          	lea    0x3e(%r13),%rax
    d178:	48 83 e0 f0          	and    $0xfffffffffffffff0,%rax
    d17c:	48 29 c4             	sub    %rax,%rsp
    d17f:	4c 8d 7c 24 0f       	lea    0xf(%rsp),%r15
    d184:	49 83 e7 f0          	and    $0xfffffffffffffff0,%r15
    d188:	49 8d 7f 20          	lea    0x20(%r15),%rdi
    d18c:	e8 5f 83 ff ff       	callq  54f0 <memcpy@plt>
    d191:	48 8b 85 40 ff ff ff 	mov    -0xc0(%rbp),%rax
    d198:	48 8d 15 91 04 00 00 	lea    0x491(%rip),%rdx        # d630 <__sem_search>
    d19f:	48 8d 35 fa f1 20 00 	lea    0x20f1fa(%rip),%rsi        # 21c3a0 <__sem_mappings>
    d1a6:	4c 89 ff             	mov    %r15,%rdi
    d1a9:	49 89 07             	mov    %rax,(%r15)
    d1ac:	48 8b 85 48 ff ff ff 	mov    -0xb8(%rbp),%rax
    d1b3:	49 89 47 08          	mov    %rax,0x8(%r15)
    d1b7:	e8 a4 81 ff ff       	callq  5360 <tfind@plt>
    d1bc:	48 85 c0             	test   %rax,%rax
    d1bf:	74 2f                	je     d1f0 <check_add_mapping+0x120>
    d1c1:	48 8b 00             	mov    (%rax),%rax
    d1c4:	48 8b 50 18          	mov    0x18(%rax),%rdx
    d1c8:	83 40 10 01          	addl   $0x1,0x10(%rax)
    d1cc:	4d 85 e4             	test   %r12,%r12
    d1cf:	0f 95 c3             	setne  %bl
    d1d2:	49 39 d4             	cmp    %rdx,%r12
    d1d5:	0f 95 c0             	setne  %al
    d1d8:	21 c3                	and    %eax,%ebx
    d1da:	f0 ff 0d 03 f1 20 00 	lock decl 0x20f103(%rip)        # 21c2e4 <__sem_mappings_lock>
    d1e1:	0f 85 84 06 00 00    	jne    d86b <_L_unlock_90>
    d1e7:	e9 2d ff ff ff       	jmpq   d119 <check_add_mapping+0x49>
    d1ec:	0f 1f 40 00          	nopl   0x0(%rax)
    d1f0:	48 8b bd 38 ff ff ff 	mov    -0xc8(%rbp),%rdi
    d1f7:	e8 54 83 ff ff       	callq  5550 <malloc@plt>
    d1fc:	48 85 c0             	test   %rax,%rax
    d1ff:	49 89 c7             	mov    %rax,%r15
    d202:	74 67                	je     d26b <check_add_mapping+0x19b>
    d204:	4d 85 e4             	test   %r12,%r12
    d207:	74 6f                	je     d278 <check_add_mapping+0x1a8>
    d209:	48 8b 85 40 ff ff ff 	mov    -0xc0(%rbp),%rax
    d210:	49 8d 7f 20          	lea    0x20(%r15),%rdi
    d214:	41 c7 47 10 01 00 00 	movl   $0x1,0x10(%r15)
    d21b:	00 
    d21c:	4d 89 67 18          	mov    %r12,0x18(%r15)
    d220:	4c 89 ea             	mov    %r13,%rdx
    d223:	4c 89 f6             	mov    %r14,%rsi
    d226:	49 89 07             	mov    %rax,(%r15)
    d229:	48 8b 85 48 ff ff ff 	mov    -0xb8(%rbp),%rax
    d230:	49 89 47 08          	mov    %rax,0x8(%r15)
    d234:	e8 b7 82 ff ff       	callq  54f0 <memcpy@plt>
    d239:	49 83 fc ff          	cmp    $0xffffffffffffffff,%r12
    d23d:	74 24                	je     d263 <check_add_mapping+0x193>
    d23f:	48 8d 15 ea 03 00 00 	lea    0x3ea(%rip),%rdx        # d630 <__sem_search>
    d246:	48 8d 35 53 f1 20 00 	lea    0x20f153(%rip),%rsi        # 21c3a0 <__sem_mappings>
    d24d:	4c 89 ff             	mov    %r15,%rdi
    d250:	31 db                	xor    %ebx,%ebx
    d252:	e8 79 83 ff ff       	callq  55d0 <tsearch@plt>
    d257:	48 85 c0             	test   %rax,%rax
    d25a:	4c 89 e2             	mov    %r12,%rdx
    d25d:	0f 85 77 ff ff ff    	jne    d1da <check_add_mapping+0x10a>
    d263:	4c 89 ff             	mov    %r15,%rdi
    d266:	e8 85 80 ff ff       	callq  52f0 <free@plt>
    d26b:	4d 85 e4             	test   %r12,%r12
    d26e:	0f 95 c3             	setne  %bl
    d271:	31 d2                	xor    %edx,%edx
    d273:	e9 62 ff ff ff       	jmpq   d1da <check_add_mapping+0x10a>
    d278:	45 31 c9             	xor    %r9d,%r9d
    d27b:	41 89 d8             	mov    %ebx,%r8d
    d27e:	b9 01 00 00 00       	mov    $0x1,%ecx
    d283:	ba 03 00 00 00       	mov    $0x3,%edx
    d288:	be 20 00 00 00       	mov    $0x20,%esi
    d28d:	31 ff                	xor    %edi,%edi
    d28f:	e8 2c 81 ff ff       	callq  53c0 <mmap@plt>
    d294:	49 89 c4             	mov    %rax,%r12
    d297:	e9 6d ff ff ff       	jmpq   d209 <check_add_mapping+0x139>
    d29c:	0f 1f 40 00          	nopl   0x0(%rax)

000000000000d2a0 <sem_open>:
    d2a0:	55                   	push   %rbp
    d2a1:	48 89 e5             	mov    %rsp,%rbp
    d2a4:	41 57                	push   %r15
    d2a6:	41 56                	push   %r14
    d2a8:	41 55                	push   %r13
    d2aa:	41 54                	push   %r12
    d2ac:	53                   	push   %rbx
    d2ad:	48 89 fb             	mov    %rdi,%rbx
    d2b0:	48 8d 3d 29 f0 20 00 	lea    0x20f029(%rip),%rdi        # 21c2e0 <__namedsem_once>
    d2b7:	48 81 ec 98 00 00 00 	sub    $0x98,%rsp
    d2be:	89 b5 4c ff ff ff    	mov    %esi,-0xb4(%rbp)
    d2c4:	48 8d 35 b5 03 00 00 	lea    0x3b5(%rip),%rsi        # d680 <__where_is_shmfs>
    d2cb:	48 89 55 b0          	mov    %rdx,-0x50(%rbp)
    d2cf:	48 89 4d b8          	mov    %rcx,-0x48(%rbp)
    d2d3:	e8 78 fb ff ff       	callq  ce50 <__pthread_once>
    d2d8:	48 83 3d b0 f0 20 00 	cmpq   $0x0,0x20f0b0(%rip)        # 21c390 <mountpoint>
    d2df:	00 
    d2e0:	75 12                	jne    d2f4 <sem_open+0x54>
    d2e2:	e9 8f 02 00 00       	jmpq   d576 <sem_open+0x2d6>
    d2e7:	66 0f 1f 84 00 00 00 	nopw   0x0(%rax,%rax,1)
    d2ee:	00 00 
    d2f0:	48 83 c3 01          	add    $0x1,%rbx
    d2f4:	0f b6 03             	movzbl (%rbx),%eax
    d2f7:	3c 2f                	cmp    $0x2f,%al
    d2f9:	74 f5                	je     d2f0 <sem_open+0x50>
    d2fb:	84 c0                	test   %al,%al
    d2fd:	0f 1f 00             	nopl   (%rax)
    d300:	0f 84 29 01 00 00    	je     d42f <sem_open+0x18f>
    d306:	48 89 df             	mov    %rbx,%rdi
    d309:	e8 82 80 ff ff       	callq  5390 <strlen@plt>
    d30e:	48 83 c0 01          	add    $0x1,%rax
    d312:	48 8b 15 7f f0 20 00 	mov    0x20f07f(%rip),%rdx        # 21c398 <mountpoint+0x8>
    d319:	48 8b 35 70 f0 20 00 	mov    0x20f070(%rip),%rsi        # 21c390 <mountpoint>
    d320:	48 89 85 50 ff ff ff 	mov    %rax,-0xb0(%rbp)
    d327:	48 03 05 6a f0 20 00 	add    0x20f06a(%rip),%rax        # 21c398 <mountpoint+0x8>
    d32e:	48 83 c0 1e          	add    $0x1e,%rax
    d332:	48 83 e0 f0          	and    $0xfffffffffffffff0,%rax
    d336:	48 29 c4             	sub    %rax,%rsp
    d339:	4c 8d 6c 24 0f       	lea    0xf(%rsp),%r13
    d33e:	49 83 e5 f0          	and    $0xfffffffffffffff0,%r13
    d342:	4c 89 ef             	mov    %r13,%rdi
    d345:	e8 a6 82 ff ff       	callq  55f0 <mempcpy@plt>
    d34a:	48 8b 95 50 ff ff ff 	mov    -0xb0(%rbp),%rdx
    d351:	48 89 de             	mov    %rbx,%rsi
    d354:	48 89 c7             	mov    %rax,%rdi
    d357:	e8 94 81 ff ff       	callq  54f0 <memcpy@plt>
    d35c:	8b 85 4c ff ff ff    	mov    -0xb4(%rbp),%eax
    d362:	25 c0 00 00 00       	and    $0xc0,%eax
    d367:	3d c0 00 00 00       	cmp    $0xc0,%eax
    d36c:	0f 84 8e 00 00 00    	je     d400 <sem_open+0x160>
    d372:	8b b5 4c ff ff ff    	mov    -0xb4(%rbp),%esi
    d378:	31 c0                	xor    %eax,%eax
    d37a:	4c 89 ef             	mov    %r13,%rdi
    d37d:	81 e6 bc ff fd ff    	and    $0xfffdffbc,%esi
    d383:	81 ce 02 00 02 00    	or     $0x20002,%esi
    d389:	e8 a2 1c 00 00       	callq  f030 <__open>
    d38e:	83 f8 ff             	cmp    $0xffffffff,%eax
    d391:	41 89 c4             	mov    %eax,%r12d
    d394:	74 4a                	je     d3e0 <sem_open+0x140>
    d396:	48 8b b5 50 ff ff ff 	mov    -0xb0(%rbp),%rsi
    d39d:	31 c9                	xor    %ecx,%ecx
    d39f:	89 c2                	mov    %eax,%edx
    d3a1:	48 89 df             	mov    %rbx,%rdi
    d3a4:	e8 27 fd ff ff       	callq  d0d0 <check_add_mapping>
    d3a9:	49 89 c6             	mov    %rax,%r14
    d3ac:	49 83 fe ff          	cmp    $0xffffffffffffffff,%r14
    d3b0:	0f 84 a9 01 00 00    	je     d55f <sem_open+0x2bf>
    d3b6:	41 83 fc ff          	cmp    $0xffffffff,%r12d
    d3ba:	74 0a                	je     d3c6 <sem_open+0x126>
    d3bc:	49 63 fc             	movslq %r12d,%rdi
    d3bf:	b8 03 00 00 00       	mov    $0x3,%eax
    d3c4:	0f 05                	syscall 
    d3c6:	48 8d 65 d8          	lea    -0x28(%rbp),%rsp
    d3ca:	4c 89 f0             	mov    %r14,%rax
    d3cd:	5b                   	pop    %rbx
    d3ce:	41 5c                	pop    %r12
    d3d0:	41 5d                	pop    %r13
    d3d2:	41 5e                	pop    %r14
    d3d4:	41 5f                	pop    %r15
    d3d6:	c9                   	leaveq 
    d3d7:	c3                   	retq   
    d3d8:	0f 1f 84 00 00 00 00 	nopl   0x0(%rax,%rax,1)
    d3df:	00 
    d3e0:	f6 85 4c ff ff ff 40 	testb  $0x40,-0xb4(%rbp)
    d3e7:	74 0d                	je     d3f6 <sem_open+0x156>
    d3e9:	48 8b 05 90 ab 20 00 	mov    0x20ab90(%rip),%rax        # 217f80 <_DYNAMIC+0x1f0>
    d3f0:	64 83 38 02          	cmpl   $0x2,%fs:(%rax)
    d3f4:	74 0a                	je     d400 <sem_open+0x160>
    d3f6:	45 31 f6             	xor    %r14d,%r14d
    d3f9:	eb cb                	jmp    d3c6 <sem_open+0x126>
    d3fb:	0f 1f 44 00 00       	nopl   0x0(%rax,%rax,1)
    d400:	48 8d 45 10          	lea    0x10(%rbp),%rax
    d404:	c7 45 80 20 00 00 00 	movl   $0x20,-0x80(%rbp)
    d40b:	48 89 45 88          	mov    %rax,-0x78(%rbp)
    d40f:	48 8d 45 a0          	lea    -0x60(%rbp),%rax
    d413:	48 89 45 90          	mov    %rax,-0x70(%rbp)
    d417:	8b 45 b0             	mov    -0x50(%rbp),%eax
    d41a:	89 85 48 ff ff ff    	mov    %eax,-0xb8(%rbp)
    d420:	b8 18 00 00 00       	mov    $0x18,%eax
    d425:	48 03 45 90          	add    -0x70(%rbp),%rax
    d429:	8b 00                	mov    (%rax),%eax
    d42b:	85 c0                	test   %eax,%eax
    d42d:	79 19                	jns    d448 <sem_open+0x1a8>
    d42f:	48 8b 05 4a ab 20 00 	mov    0x20ab4a(%rip),%rax        # 217f80 <_DYNAMIC+0x1f0>
    d436:	45 31 f6             	xor    %r14d,%r14d
    d439:	64 c7 00 16 00 00 00 	movl   $0x16,%fs:(%rax)
    d440:	eb 84                	jmp    d3c6 <sem_open+0x126>
    d442:	66 0f 1f 44 00 00    	nopw   0x0(%rax,%rax,1)
    d448:	48 8b 15 49 ef 20 00 	mov    0x20ef49(%rip),%rdx        # 21c398 <mountpoint+0x8>
    d44f:	89 85 60 ff ff ff    	mov    %eax,-0xa0(%rbp)
    d455:	48 8d 85 60 ff ff ff 	lea    -0xa0(%rbp),%rax
    d45c:	48 8b 35 2d ef 20 00 	mov    0x20ef2d(%rip),%rsi        # 21c390 <mountpoint>
    d463:	c7 85 64 ff ff ff 00 	movl   $0x0,-0x9c(%rbp)
    d46a:	00 00 00 
    d46d:	48 89 85 40 ff ff ff 	mov    %rax,-0xc0(%rbp)
    d474:	48 c7 40 18 00 00 00 	movq   $0x0,0x18(%rax)
    d47b:	00 
    d47c:	48 8d 42 25          	lea    0x25(%rdx),%rax
    d480:	48 c7 85 68 ff ff ff 	movq   $0x0,-0x98(%rbp)
    d487:	00 00 00 00 
    d48b:	48 c7 85 70 ff ff ff 	movq   $0x0,-0x90(%rbp)
    d492:	00 00 00 00 
    d496:	48 83 e0 f0          	and    $0xfffffffffffffff0,%rax
    d49a:	48 29 c4             	sub    %rax,%rsp
    d49d:	4c 8d 7c 24 0f       	lea    0xf(%rsp),%r15
    d4a2:	49 83 e7 f0          	and    $0xfffffffffffffff0,%r15
    d4a6:	4c 89 ff             	mov    %r15,%rdi
    d4a9:	e8 42 81 ff ff       	callq  55f0 <mempcpy@plt>
    d4ae:	c7 85 5c ff ff ff 00 	movl   $0x0,-0xa4(%rbp)
    d4b5:	00 00 00 
    d4b8:	49 89 c6             	mov    %rax,%r14
    d4bb:	eb 41                	jmp    d4fe <sem_open+0x25e>
    d4bd:	0f 1f 00             	nopl   (%rax)
    d4c0:	8b 95 48 ff ff ff    	mov    -0xb8(%rbp),%edx
    d4c6:	31 c0                	xor    %eax,%eax
    d4c8:	be c2 00 00 00       	mov    $0xc2,%esi
    d4cd:	4c 89 ff             	mov    %r15,%rdi
    d4d0:	e8 5b 1b 00 00       	callq  f030 <__open>
    d4d5:	83 f8 ff             	cmp    $0xffffffff,%eax
    d4d8:	41 89 c4             	mov    %eax,%r12d
    d4db:	75 4b                	jne    d528 <sem_open+0x288>
    d4dd:	48 8b 05 9c aa 20 00 	mov    0x20aa9c(%rip),%rax        # 217f80 <_DYNAMIC+0x1f0>
    d4e4:	64 83 38 11          	cmpl   $0x11,%fs:(%rax)
    d4e8:	0f 85 08 ff ff ff    	jne    d3f6 <sem_open+0x156>
    d4ee:	83 85 5c ff ff ff 01 	addl   $0x1,-0xa4(%rbp)
    d4f5:	83 bd 5c ff ff ff 32 	cmpl   $0x32,-0xa4(%rbp)
    d4fc:	74 69                	je     d567 <sem_open+0x2c7>
    d4fe:	41 c7 06 58 58 58 58 	movl   $0x58585858,(%r14)
    d505:	66 41 c7 46 04 58 58 	movw   $0x5858,0x4(%r14)
    d50c:	4c 89 ff             	mov    %r15,%rdi
    d50f:	41 c6 46 06 00       	movb   $0x0,0x6(%r14)
    d514:	e8 17 82 ff ff       	callq  5730 <mktemp@plt>
    d519:	48 85 c0             	test   %rax,%rax
    d51c:	75 a2                	jne    d4c0 <sem_open+0x220>
    d51e:	e9 d3 fe ff ff       	jmpq   d3f6 <sem_open+0x156>
    d523:	0f 1f 44 00 00       	nopl   0x0(%rax,%rax,1)
    d528:	48 8b b5 40 ff ff ff 	mov    -0xc0(%rbp),%rsi
    d52f:	ba 20 00 00 00       	mov    $0x20,%edx
    d534:	44 89 e7             	mov    %r12d,%edi
    d537:	e8 24 13 00 00       	callq  e860 <__write>
    d53c:	48 83 f8 ff          	cmp    $0xffffffffffffffff,%rax
    d540:	75 4a                	jne    d58c <sem_open+0x2ec>
    d542:	48 8b 05 37 aa 20 00 	mov    0x20aa37(%rip),%rax        # 217f80 <_DYNAMIC+0x1f0>
    d549:	64 83 38 04          	cmpl   $0x4,%fs:(%rax)
    d54d:	74 d9                	je     d528 <sem_open+0x288>
    d54f:	45 31 f6             	xor    %r14d,%r14d
    d552:	4c 89 ff             	mov    %r15,%rdi
    d555:	e8 b6 7d ff ff       	callq  5310 <unlink@plt>
    d55a:	e9 4d fe ff ff       	jmpq   d3ac <sem_open+0x10c>
    d55f:	45 31 f6             	xor    %r14d,%r14d
    d562:	e9 55 fe ff ff       	jmpq   d3bc <sem_open+0x11c>
    d567:	64 c7 00 0b 00 00 00 	movl   $0xb,%fs:(%rax)
    d56e:	45 31 f6             	xor    %r14d,%r14d
    d571:	e9 50 fe ff ff       	jmpq   d3c6 <sem_open+0x126>
    d576:	48 8b 05 03 aa 20 00 	mov    0x20aa03(%rip),%rax        # 217f80 <_DYNAMIC+0x1f0>
    d57d:	45 31 f6             	xor    %r14d,%r14d
    d580:	64 c7 00 26 00 00 00 	movl   $0x26,%fs:(%rax)
    d587:	e9 3a fe ff ff       	jmpq   d3c6 <sem_open+0x126>
    d58c:	48 83 f8 20          	cmp    $0x20,%rax
    d590:	75 bd                	jne    d54f <sem_open+0x2af>
    d592:	45 31 c9             	xor    %r9d,%r9d
    d595:	31 ff                	xor    %edi,%edi
    d597:	45 89 e0             	mov    %r12d,%r8d
    d59a:	b9 01 00 00 00       	mov    $0x1,%ecx
    d59f:	ba 03 00 00 00       	mov    $0x3,%edx
    d5a4:	be 20 00 00 00       	mov    $0x20,%esi
    d5a9:	e8 12 7e ff ff       	callq  53c0 <mmap@plt>
    d5ae:	48 83 f8 ff          	cmp    $0xffffffffffffffff,%rax
    d5b2:	49 89 c6             	mov    %rax,%r14
    d5b5:	74 9b                	je     d552 <sem_open+0x2b2>
    d5b7:	4c 89 ee             	mov    %r13,%rsi
    d5ba:	4c 89 ff             	mov    %r15,%rdi
    d5bd:	e8 ee 80 ff ff       	callq  56b0 <link@plt>
    d5c2:	85 c0                	test   %eax,%eax
    d5c4:	74 40                	je     d606 <sem_open+0x366>
    d5c6:	be 20 00 00 00       	mov    $0x20,%esi
    d5cb:	4c 89 f7             	mov    %r14,%rdi
    d5ce:	e8 0d 80 ff ff       	callq  55e0 <munmap@plt>
    d5d3:	80 bd 4c ff ff ff 00 	cmpb   $0x0,-0xb4(%rbp)
    d5da:	0f 88 6f ff ff ff    	js     d54f <sem_open+0x2af>
    d5e0:	48 8b 05 99 a9 20 00 	mov    0x20a999(%rip),%rax        # 217f80 <_DYNAMIC+0x1f0>
    d5e7:	64 83 38 11          	cmpl   $0x11,%fs:(%rax)
    d5eb:	0f 85 5e ff ff ff    	jne    d54f <sem_open+0x2af>
    d5f1:	4c 89 ff             	mov    %r15,%rdi
    d5f4:	e8 17 7d ff ff       	callq  5310 <unlink@plt>
    d5f9:	44 89 e7             	mov    %r12d,%edi
    d5fc:	e8 1f 13 00 00       	callq  e920 <__close>
    d601:	e9 6c fd ff ff       	jmpq   d372 <sem_open+0xd2>
    d606:	48 8b b5 50 ff ff ff 	mov    -0xb0(%rbp),%rsi
    d60d:	4c 89 f1             	mov    %r14,%rcx
    d610:	44 89 e2             	mov    %r12d,%edx
    d613:	48 89 df             	mov    %rbx,%rdi
    d616:	e8 b5 fa ff ff       	callq  d0d0 <check_add_mapping>
    d61b:	49 89 c6             	mov    %rax,%r14
    d61e:	e9 2f ff ff ff       	jmpq   d552 <sem_open+0x2b2>
    d623:	66 66 66 66 2e 0f 1f 	data32 data32 data32 nopw %cs:0x0(%rax,%rax,1)
    d62a:	84 00 00 00 00 00 

000000000000d630 <__sem_search>:
    d630:	55                   	push   %rbp
    d631:	48 8b 46 08          	mov    0x8(%rsi),%rax
    d635:	48 39 47 08          	cmp    %rax,0x8(%rdi)
    d639:	48 89 e5             	mov    %rsp,%rbp
    d63c:	74 12                	je     d650 <__sem_search+0x20>
    d63e:	72 30                	jb     d670 <__sem_search+0x40>
    d640:	b8 01 00 00 00       	mov    $0x1,%eax
    d645:	c9                   	leaveq 
    d646:	c3                   	retq   
    d647:	66 0f 1f 84 00 00 00 	nopw   0x0(%rax,%rax,1)
    d64e:	00 00 
    d650:	48 8b 06             	mov    (%rsi),%rax
    d653:	48 39 07             	cmp    %rax,(%rdi)
    d656:	75 e6                	jne    d63e <__sem_search+0xe>
    d658:	c9                   	leaveq 
    d659:	48 83 c7 20          	add    $0x20,%rdi
    d65d:	48 83 c6 20          	add    $0x20,%rsi
    d661:	e9 5a 7e ff ff       	jmpq   54c0 <strcmp@plt>
    d666:	66 2e 0f 1f 84 00 00 	nopw   %cs:0x0(%rax,%rax,1)
    d66d:	00 00 00 
    d670:	b8 ff ff ff ff       	mov    $0xffffffff,%eax
    d675:	c9                   	leaveq 
    d676:	c3                   	retq   
    d677:	66 0f 1f 84 00 00 00 	nopw   0x0(%rax,%rax,1)
    d67e:	00 00 

000000000000d680 <__where_is_shmfs>:
    d680:	55                   	push   %rbp
    d681:	48 8d 3d 40 49 00 00 	lea    0x4940(%rip),%rdi        # 11fc8 <defaultmount>
    d688:	48 89 e5             	mov    %rsp,%rbp
    d68b:	41 57                	push   %r15
    d68d:	41 56                	push   %r14
    d68f:	4c 8d b5 20 ff ff ff 	lea    -0xe0(%rbp),%r14
    d696:	41 55                	push   %r13
    d698:	4c 89 f6             	mov    %r14,%rsi
    d69b:	41 54                	push   %r12
    d69d:	53                   	push   %rbx
    d69e:	48 81 ec c8 02 00 00 	sub    $0x2c8,%rsp
    d6a5:	e8 c6 7c ff ff       	callq  5370 <__statfs@plt>
    d6aa:	85 c0                	test   %eax,%eax
    d6ac:	75 11                	jne    d6bf <__where_is_shmfs+0x3f>
    d6ae:	48 81 bd 20 ff ff ff 	cmpq   $0x1021994,-0xe0(%rbp)
    d6b5:	94 19 02 01 
    d6b9:	0f 84 51 01 00 00    	je     d810 <__where_is_shmfs+0x190>
    d6bf:	48 8d 35 e2 48 00 00 	lea    0x48e2(%rip),%rsi        # 11fa8 <default_attr+0x8>
    d6c6:	48 8d 3d dd 48 00 00 	lea    0x48dd(%rip),%rdi        # 11faa <default_attr+0xa>
    d6cd:	e8 9e 7f ff ff       	callq  5670 <__setmntent@plt>
    d6d2:	48 85 c0             	test   %rax,%rax
    d6d5:	48 89 c3             	mov    %rax,%rbx
    d6d8:	0f 84 4d 01 00 00    	je     d82b <__where_is_shmfs+0x1ab>
    d6de:	4c 8d a5 20 fd ff ff 	lea    -0x2e0(%rbp),%r12
    d6e5:	4c 8d 6d a0          	lea    -0x60(%rbp),%r13
    d6e9:	4c 8d 3d d2 48 00 00 	lea    0x48d2(%rip),%r15        # 11fc2 <default_attr+0x22>
    d6f0:	b9 00 02 00 00       	mov    $0x200,%ecx
    d6f5:	4c 89 e2             	mov    %r12,%rdx
    d6f8:	4c 89 ee             	mov    %r13,%rsi
    d6fb:	48 89 df             	mov    %rbx,%rdi
    d6fe:	e8 9d 7d ff ff       	callq  54a0 <__getmntent_r@plt>
    d703:	48 85 c0             	test   %rax,%rax
    d706:	49 89 c0             	mov    %rax,%r8
    d709:	0f 84 e2 00 00 00    	je     d7f1 <__where_is_shmfs+0x171>
    d70f:	49 8b 40 10          	mov    0x10(%r8),%rax
    d713:	4c 89 ff             	mov    %r15,%rdi
    d716:	b9 06 00 00 00       	mov    $0x6,%ecx
    d71b:	48 89 c6             	mov    %rax,%rsi
    d71e:	f3 a6                	repz cmpsb %es:(%rdi),%ds:(%rsi)
    d720:	74 2f                	je     d751 <__where_is_shmfs+0xd1>
    d722:	0f b6 10             	movzbl (%rax),%edx
    d725:	3a 15 a2 48 00 00    	cmp    0x48a2(%rip),%dl        # 11fcd <defaultmount+0x5>
    d72b:	75 c3                	jne    d6f0 <__where_is_shmfs+0x70>
    d72d:	0f b6 50 01          	movzbl 0x1(%rax),%edx
    d731:	3a 15 97 48 00 00    	cmp    0x4897(%rip),%dl        # 11fce <defaultmount+0x6>
    d737:	75 b7                	jne    d6f0 <__where_is_shmfs+0x70>
    d739:	0f b6 50 02          	movzbl 0x2(%rax),%edx
    d73d:	3a 15 8c 48 00 00    	cmp    0x488c(%rip),%dl        # 11fcf <defaultmount+0x7>
    d743:	75 ab                	jne    d6f0 <__where_is_shmfs+0x70>
    d745:	0f b6 40 03          	movzbl 0x3(%rax),%eax
    d749:	3a 05 81 48 00 00    	cmp    0x4881(%rip),%al        # 11fd0 <defaultmount+0x8>
    d74f:	75 9f                	jne    d6f0 <__where_is_shmfs+0x70>
    d751:	49 8b 78 08          	mov    0x8(%r8),%rdi
    d755:	4c 89 f6             	mov    %r14,%rsi
    d758:	4c 89 85 18 fd ff ff 	mov    %r8,-0x2e8(%rbp)
    d75f:	e8 0c 7c ff ff       	callq  5370 <__statfs@plt>
    d764:	85 c0                	test   %eax,%eax
    d766:	4c 8b 85 18 fd ff ff 	mov    -0x2e8(%rbp),%r8
    d76d:	75 81                	jne    d6f0 <__where_is_shmfs+0x70>
    d76f:	48 81 bd 20 ff ff ff 	cmpq   $0x1021994,-0xe0(%rbp)
    d776:	94 19 02 01 
    d77a:	0f 85 70 ff ff ff    	jne    d6f0 <__where_is_shmfs+0x70>
    d780:	49 8b 78 08          	mov    0x8(%r8),%rdi
    d784:	e8 07 7c ff ff       	callq  5390 <strlen@plt>
    d789:	48 85 c0             	test   %rax,%rax
    d78c:	0f 84 5e ff ff ff    	je     d6f0 <__where_is_shmfs+0x70>
    d792:	48 8d 78 06          	lea    0x6(%rax),%rdi
    d796:	48 89 85 10 fd ff ff 	mov    %rax,-0x2f0(%rbp)
    d79d:	e8 ae 7d ff ff       	callq  5550 <malloc@plt>
    d7a2:	48 85 c0             	test   %rax,%rax
    d7a5:	48 89 05 e4 eb 20 00 	mov    %rax,0x20ebe4(%rip)        # 21c390 <mountpoint>
    d7ac:	48 8b 95 10 fd ff ff 	mov    -0x2f0(%rbp),%rdx
    d7b3:	4c 8b 85 18 fd ff ff 	mov    -0x2e8(%rbp),%r8
    d7ba:	74 35                	je     d7f1 <__where_is_shmfs+0x171>
    d7bc:	49 8b 70 08          	mov    0x8(%r8),%rsi
    d7c0:	48 89 c7             	mov    %rax,%rdi
    d7c3:	e8 28 7e ff ff       	callq  55f0 <mempcpy@plt>
    d7c8:	80 78 ff 2f          	cmpb   $0x2f,-0x1(%rax)
    d7cc:	74 07                	je     d7d5 <__where_is_shmfs+0x155>
    d7ce:	c6 00 2f             	movb   $0x2f,(%rax)
    d7d1:	48 83 c0 01          	add    $0x1,%rax
    d7d5:	c7 00 73 65 6d 2e    	movl   $0x2e6d6573,(%rax)
    d7db:	c6 40 04 00          	movb   $0x0,0x4(%rax)
    d7df:	48 83 c0 04          	add    $0x4,%rax
    d7e3:	48 2b 05 a6 eb 20 00 	sub    0x20eba6(%rip),%rax        # 21c390 <mountpoint>
    d7ea:	48 89 05 a7 eb 20 00 	mov    %rax,0x20eba7(%rip)        # 21c398 <mountpoint+0x8>
    d7f1:	48 89 df             	mov    %rbx,%rdi
    d7f4:	e8 e7 7c ff ff       	callq  54e0 <__endmntent@plt>
    d7f9:	48 81 c4 c8 02 00 00 	add    $0x2c8,%rsp
    d800:	5b                   	pop    %rbx
    d801:	41 5c                	pop    %r12
    d803:	41 5d                	pop    %r13
    d805:	41 5e                	pop    %r14
    d807:	41 5f                	pop    %r15
    d809:	c9                   	leaveq 
    d80a:	c3                   	retq   
    d80b:	0f 1f 44 00 00       	nopl   0x0(%rax,%rax,1)
    d810:	48 8d 05 ba 47 00 00 	lea    0x47ba(%rip),%rax        # 11fd1 <defaultdir>
    d817:	48 c7 05 76 eb 20 00 	movq   $0xd,0x20eb76(%rip)        # 21c398 <mountpoint+0x8>
    d81e:	0d 00 00 00 
    d822:	48 89 05 67 eb 20 00 	mov    %rax,0x20eb67(%rip)        # 21c390 <mountpoint>
    d829:	eb ce                	jmp    d7f9 <__where_is_shmfs+0x179>
    d82b:	48 8d 35 76 47 00 00 	lea    0x4776(%rip),%rsi        # 11fa8 <default_attr+0x8>
    d832:	48 8d 3d 7e 47 00 00 	lea    0x477e(%rip),%rdi        # 11fb7 <default_attr+0x17>
    d839:	e8 32 7e ff ff       	callq  5670 <__setmntent@plt>
    d83e:	48 85 c0             	test   %rax,%rax
    d841:	48 89 c3             	mov    %rax,%rbx
    d844:	0f 85 94 fe ff ff    	jne    d6de <__where_is_shmfs+0x5e>
    d84a:	eb ad                	jmp    d7f9 <__where_is_shmfs+0x179>

000000000000d84c <_L_lock_57>:
    d84c:	48 8d 3d 91 ea 20 00 	lea    0x20ea91(%rip),%rdi        # 21c2e4 <__sem_mappings_lock>
    d853:	48 81 ec 80 00 00 00 	sub    $0x80,%rsp
    d85a:	e8 41 0b 00 00       	callq  e3a0 <__lll_lock_wait_private>
    d85f:	48 81 c4 80 00 00 00 	add    $0x80,%rsp
    d866:	e9 f8 f8 ff ff       	jmpq   d163 <check_add_mapping+0x93>

000000000000d86b <_L_unlock_90>:
    d86b:	48 8d 3d 72 ea 20 00 	lea    0x20ea72(%rip),%rdi        # 21c2e4 <__sem_mappings_lock>
    d872:	48 81 ec 80 00 00 00 	sub    $0x80,%rsp
    d879:	e8 b2 0c 00 00       	callq  e530 <__lll_unlock_wake_private>
    d87e:	48 81 c4 80 00 00 00 	add    $0x80,%rsp
    d885:	e9 5d f9 ff ff       	jmpq   d1e7 <check_add_mapping+0x117>
    d88a:	90                   	nop
    d88b:	90                   	nop
    d88c:	90                   	nop
    d88d:	90                   	nop
    d88e:	90                   	nop
    d88f:	90                   	nop

000000000000d890 <walker>:
    d890:	55                   	push   %rbp
    d891:	48 8b 07             	mov    (%rdi),%rax
    d894:	48 8b 15 4d ea 20 00 	mov    0x20ea4d(%rip),%rdx        # 21c2e8 <the_sem>
    d89b:	48 89 e5             	mov    %rsp,%rbp
    d89e:	48 39 50 18          	cmp    %rdx,0x18(%rax)
    d8a2:	74 0c                	je     d8b0 <walker+0x20>
    d8a4:	c9                   	leaveq 
    d8a5:	c3                   	retq   
    d8a6:	66 2e 0f 1f 84 00 00 	nopw   %cs:0x0(%rax,%rax,1)
    d8ad:	00 00 00 
    d8b0:	48 89 05 39 ea 20 00 	mov    %rax,0x20ea39(%rip)        # 21c2f0 <rec>
    d8b7:	c9                   	leaveq 
    d8b8:	c3                   	retq   
    d8b9:	0f 1f 80 00 00 00 00 	nopl   0x0(%rax)

000000000000d8c0 <sem_close>:
    d8c0:	55                   	push   %rbp
    d8c1:	48 89 fa             	mov    %rdi,%rdx
    d8c4:	be 01 00 00 00       	mov    $0x1,%esi
    d8c9:	31 c0                	xor    %eax,%eax
    d8cb:	48 89 e5             	mov    %rsp,%rbp
    d8ce:	53                   	push   %rbx
    d8cf:	48 83 ec 08          	sub    $0x8,%rsp
    d8d3:	f0 0f b1 35 09 ea 20 	lock cmpxchg %esi,0x20ea09(%rip)        # 21c2e4 <__sem_mappings_lock>
    d8da:	00 
    d8db:	0f 85 a4 00 00 00    	jne    d985 <_L_lock_35>
    d8e1:	48 8b 3d b8 ea 20 00 	mov    0x20eab8(%rip),%rdi        # 21c3a0 <__sem_mappings>
    d8e8:	48 8d 35 a1 ff ff ff 	lea    -0x5f(%rip),%rsi        # d890 <walker>
    d8ef:	48 c7 05 f6 e9 20 00 	movq   $0x0,0x20e9f6(%rip)        # 21c2f0 <rec>
    d8f6:	00 00 00 00 
    d8fa:	48 89 15 e7 e9 20 00 	mov    %rdx,0x20e9e7(%rip)        # 21c2e8 <the_sem>
    d901:	e8 0a 7d ff ff       	callq  5610 <twalk@plt>
    d906:	48 8b 3d e3 e9 20 00 	mov    0x20e9e3(%rip),%rdi        # 21c2f0 <rec>
    d90d:	48 85 ff             	test   %rdi,%rdi
    d910:	74 5e                	je     d970 <sem_close+0xb0>
    d912:	8b 47 10             	mov    0x10(%rdi),%eax
    d915:	31 db                	xor    %ebx,%ebx
    d917:	83 e8 01             	sub    $0x1,%eax
    d91a:	85 c0                	test   %eax,%eax
    d91c:	89 47 10             	mov    %eax,0x10(%rdi)
    d91f:	74 17                	je     d938 <sem_close+0x78>
    d921:	f0 ff 0d bc e9 20 00 	lock decl 0x20e9bc(%rip)        # 21c2e4 <__sem_mappings_lock>
    d928:	75 7a                	jne    d9a4 <_L_unlock_53>
    d92a:	89 d8                	mov    %ebx,%eax
    d92c:	48 83 c4 08          	add    $0x8,%rsp
    d930:	5b                   	pop    %rbx
    d931:	c9                   	leaveq 
    d932:	c3                   	retq   
    d933:	0f 1f 44 00 00       	nopl   0x0(%rax,%rax,1)
    d938:	48 8d 15 f1 fc ff ff 	lea    -0x30f(%rip),%rdx        # d630 <__sem_search>
    d93f:	48 8d 35 5a ea 20 00 	lea    0x20ea5a(%rip),%rsi        # 21c3a0 <__sem_mappings>
    d946:	e8 c5 7a ff ff       	callq  5410 <tdelete@plt>
    d94b:	48 8b 05 9e e9 20 00 	mov    0x20e99e(%rip),%rax        # 21c2f0 <rec>
    d952:	be 20 00 00 00       	mov    $0x20,%esi
    d957:	48 8b 78 18          	mov    0x18(%rax),%rdi
    d95b:	e8 80 7c ff ff       	callq  55e0 <munmap@plt>
    d960:	48 8b 3d 89 e9 20 00 	mov    0x20e989(%rip),%rdi        # 21c2f0 <rec>
    d967:	89 c3                	mov    %eax,%ebx
    d969:	e8 82 79 ff ff       	callq  52f0 <free@plt>
    d96e:	eb b1                	jmp    d921 <sem_close+0x61>
    d970:	48 8b 05 09 a6 20 00 	mov    0x20a609(%rip),%rax        # 217f80 <_DYNAMIC+0x1f0>
    d977:	bb ff ff ff ff       	mov    $0xffffffff,%ebx
    d97c:	64 c7 00 16 00 00 00 	movl   $0x16,%fs:(%rax)
    d983:	eb 9c                	jmp    d921 <sem_close+0x61>

000000000000d985 <_L_lock_35>:
    d985:	48 8d 3d 58 e9 20 00 	lea    0x20e958(%rip),%rdi        # 21c2e4 <__sem_mappings_lock>
    d98c:	48 81 ec 80 00 00 00 	sub    $0x80,%rsp
    d993:	e8 08 0a 00 00       	callq  e3a0 <__lll_lock_wait_private>
    d998:	48 81 c4 80 00 00 00 	add    $0x80,%rsp
    d99f:	e9 3d ff ff ff       	jmpq   d8e1 <sem_close+0x21>

000000000000d9a4 <_L_unlock_53>:
    d9a4:	48 8d 3d 39 e9 20 00 	lea    0x20e939(%rip),%rdi        # 21c2e4 <__sem_mappings_lock>
    d9ab:	48 81 ec 80 00 00 00 	sub    $0x80,%rsp
    d9b2:	e8 79 0b 00 00       	callq  e530 <__lll_unlock_wake_private>
    d9b7:	48 81 c4 80 00 00 00 	add    $0x80,%rsp
    d9be:	e9 67 ff ff ff       	jmpq   d92a <sem_close+0x6a>
    d9c3:	90                   	nop
    d9c4:	90                   	nop
    d9c5:	90                   	nop
    d9c6:	90                   	nop
    d9c7:	90                   	nop
    d9c8:	90                   	nop
    d9c9:	90                   	nop
    d9ca:	90                   	nop
    d9cb:	90                   	nop
    d9cc:	90                   	nop
    d9cd:	90                   	nop
    d9ce:	90                   	nop
    d9cf:	90                   	nop

000000000000d9d0 <sem_unlink>:
    d9d0:	55                   	push   %rbp
    d9d1:	48 8d 35 a8 fc ff ff 	lea    -0x358(%rip),%rsi        # d680 <__where_is_shmfs>
    d9d8:	48 89 e5             	mov    %rsp,%rbp
    d9db:	41 55                	push   %r13
    d9dd:	41 54                	push   %r12
    d9df:	53                   	push   %rbx
    d9e0:	48 89 fb             	mov    %rdi,%rbx
    d9e3:	48 8d 3d f6 e8 20 00 	lea    0x20e8f6(%rip),%rdi        # 21c2e0 <__namedsem_once>
    d9ea:	48 83 ec 08          	sub    $0x8,%rsp
    d9ee:	e8 5d f4 ff ff       	callq  ce50 <__pthread_once>
    d9f3:	48 83 3d 95 e9 20 00 	cmpq   $0x0,0x20e995(%rip)        # 21c390 <mountpoint>
    d9fa:	00 
    d9fb:	75 0f                	jne    da0c <sem_unlink+0x3c>
    d9fd:	e9 b2 00 00 00       	jmpq   dab4 <sem_unlink+0xe4>
    da02:	66 0f 1f 44 00 00    	nopw   0x0(%rax,%rax,1)
    da08:	48 83 c3 01          	add    $0x1,%rbx
    da0c:	0f b6 03             	movzbl (%rbx),%eax
    da0f:	3c 2f                	cmp    $0x2f,%al
    da11:	74 f5                	je     da08 <sem_unlink+0x38>
    da13:	84 c0                	test   %al,%al
    da15:	0f 84 84 00 00 00    	je     da9f <sem_unlink+0xcf>
    da1b:	48 89 df             	mov    %rbx,%rdi
    da1e:	e8 6d 79 ff ff       	callq  5390 <strlen@plt>
    da23:	48 8b 15 6e e9 20 00 	mov    0x20e96e(%rip),%rdx        # 21c398 <mountpoint+0x8>
    da2a:	49 89 c5             	mov    %rax,%r13
    da2d:	48 8b 35 5c e9 20 00 	mov    0x20e95c(%rip),%rsi        # 21c390 <mountpoint>
    da34:	48 8d 44 10 1f       	lea    0x1f(%rax,%rdx,1),%rax
    da39:	48 83 e0 f0          	and    $0xfffffffffffffff0,%rax
    da3d:	48 29 c4             	sub    %rax,%rsp
    da40:	4c 8d 64 24 0f       	lea    0xf(%rsp),%r12
    da45:	49 83 e4 f0          	and    $0xfffffffffffffff0,%r12
    da49:	4c 89 e7             	mov    %r12,%rdi
    da4c:	e8 9f 7b ff ff       	callq  55f0 <mempcpy@plt>
    da51:	49 8d 55 01          	lea    0x1(%r13),%rdx
    da55:	48 89 de             	mov    %rbx,%rsi
    da58:	48 89 c7             	mov    %rax,%rdi
    da5b:	e8 90 7a ff ff       	callq  54f0 <memcpy@plt>
    da60:	4c 89 e7             	mov    %r12,%rdi
    da63:	e8 a8 78 ff ff       	callq  5310 <unlink@plt>
    da68:	85 c0                	test   %eax,%eax
    da6a:	78 14                	js     da80 <sem_unlink+0xb0>
    da6c:	48 8d 65 e8          	lea    -0x18(%rbp),%rsp
    da70:	5b                   	pop    %rbx
    da71:	41 5c                	pop    %r12
    da73:	41 5d                	pop    %r13
    da75:	c9                   	leaveq 
    da76:	c3                   	retq   
    da77:	66 0f 1f 84 00 00 00 	nopw   0x0(%rax,%rax,1)
    da7e:	00 00 
    da80:	48 8b 15 f9 a4 20 00 	mov    0x20a4f9(%rip),%rdx        # 217f80 <_DYNAMIC+0x1f0>
    da87:	64 83 3a 01          	cmpl   $0x1,%fs:(%rdx)
    da8b:	75 df                	jne    da6c <sem_unlink+0x9c>
    da8d:	64 c7 02 0d 00 00 00 	movl   $0xd,%fs:(%rdx)
    da94:	48 8d 65 e8          	lea    -0x18(%rbp),%rsp
    da98:	5b                   	pop    %rbx
    da99:	41 5c                	pop    %r12
    da9b:	41 5d                	pop    %r13
    da9d:	c9                   	leaveq 
    da9e:	c3                   	retq   
    da9f:	48 8b 05 da a4 20 00 	mov    0x20a4da(%rip),%rax        # 217f80 <_DYNAMIC+0x1f0>
    daa6:	64 c7 00 02 00 00 00 	movl   $0x2,%fs:(%rax)
    daad:	b8 ff ff ff ff       	mov    $0xffffffff,%eax
    dab2:	eb b8                	jmp    da6c <sem_unlink+0x9c>
    dab4:	48 8b 05 c5 a4 20 00 	mov    0x20a4c5(%rip),%rax        # 217f80 <_DYNAMIC+0x1f0>
    dabb:	64 c7 00 26 00 00 00 	movl   $0x26,%fs:(%rax)
    dac2:	83 c8 ff             	or     $0xffffffff,%eax
    dac5:	eb a5                	jmp    da6c <sem_unlink+0x9c>
    dac7:	90                   	nop
    dac8:	90                   	nop
    dac9:	90                   	nop
    daca:	90                   	nop
    dacb:	90                   	nop
    dacc:	90                   	nop
    dacd:	90                   	nop
    dace:	90                   	nop
    dacf:	90                   	nop

000000000000dad0 <sem_getvalue@@GLIBC_2.2.5>:
    dad0:	8b 07                	mov    (%rdi),%eax
    dad2:	55                   	push   %rbp
    dad3:	48 89 e5             	mov    %rsp,%rbp
    dad6:	89 06                	mov    %eax,(%rsi)
    dad8:	31 c0                	xor    %eax,%eax
    dada:	c9                   	leaveq 
    dadb:	c3                   	retq   
    dadc:	90                   	nop
    dadd:	90                   	nop
    dade:	90                   	nop
    dadf:	90                   	nop

000000000000dae0 <sem_wait>:
    dae0:	8b 07                	mov    (%rdi),%eax
    dae2:	85 c0                	test   %eax,%eax
    dae4:	74 0c                	je     daf2 <sem_wait+0x12>
    dae6:	8d 50 ff             	lea    -0x1(%rax),%edx
    dae9:	f0 0f b1 17          	lock cmpxchg %edx,(%rdi)
    daed:	75 f3                	jne    dae2 <sem_wait+0x2>
    daef:	31 c0                	xor    %eax,%eax
    daf1:	c3                   	retq   
    daf2:	57                   	push   %rdi
    daf3:	f0 48 83 47 08 01    	lock addq $0x1,0x8(%rdi)
    daf9:	e8 e2 07 00 00       	callq  e2e0 <__pthread_enable_asynccancel>
    dafe:	41 89 c0             	mov    %eax,%r8d
    db01:	4d 31 d2             	xor    %r10,%r10
    db04:	b8 ca 00 00 00       	mov    $0xca,%eax
    db09:	8b 77 04             	mov    0x4(%rdi),%esi
    db0c:	31 d2                	xor    %edx,%edx
    db0e:	0f 05                	syscall 
    db10:	48 89 c1             	mov    %rax,%rcx
    db13:	4c 87 c7             	xchg   %r8,%rdi
    db16:	e8 25 08 00 00       	callq  e340 <__pthread_disable_asynccancel>
    db1b:	4c 89 c7             	mov    %r8,%rdi
    db1e:	48 85 c9             	test   %rcx,%rcx
    db21:	74 06                	je     db29 <sem_wait+0x49>
    db23:	48 83 f9 f5          	cmp    $0xfffffffffffffff5,%rcx
    db27:	75 1d                	jne    db46 <sem_wait+0x66>
    db29:	8b 07                	mov    (%rdi),%eax
    db2b:	85 c0                	test   %eax,%eax
    db2d:	74 ca                	je     daf9 <sem_wait+0x19>
    db2f:	8d 50 ff             	lea    -0x1(%rax),%edx
    db32:	f0 0f b1 17          	lock cmpxchg %edx,(%rdi)
    db36:	75 f3                	jne    db2b <sem_wait+0x4b>
    db38:	31 c0                	xor    %eax,%eax
    db3a:	f0 48 83 6f 08 01    	lock subq $0x1,0x8(%rdi)
    db40:	48 8d 64 24 08       	lea    0x8(%rsp),%rsp
    db45:	c3                   	retq   
    db46:	48 f7 d9             	neg    %rcx
    db49:	48 8b 15 30 a4 20 00 	mov    0x20a430(%rip),%rdx        # 217f80 <_DYNAMIC+0x1f0>
    db50:	64 89 0a             	mov    %ecx,%fs:(%rdx)
    db53:	83 c8 ff             	or     $0xffffffff,%eax
    db56:	eb e2                	jmp    db3a <sem_wait+0x5a>

000000000000db58 <sem_wait_cleanup>:
    db58:	48 8b 3c 24          	mov    (%rsp),%rdi
    db5c:	f0 48 83 6f 08 01    	lock subq $0x1,0x8(%rdi)
    db62:	48 89 c7             	mov    %rax,%rdi
    db65:	e8 46 25 00 00       	callq  100b0 <_Unwind_Resume>
    db6a:	f4                   	hlt    
    db6b:	90                   	nop
    db6c:	90                   	nop
    db6d:	90                   	nop
    db6e:	90                   	nop
    db6f:	90                   	nop

000000000000db70 <sem_trywait>:
    db70:	8b 07                	mov    (%rdi),%eax
    db72:	85 c0                	test   %eax,%eax
    db74:	74 0c                	je     db82 <sem_trywait+0x12>
    db76:	8d 50 ff             	lea    -0x1(%rax),%edx
    db79:	f0 0f b1 17          	lock cmpxchg %edx,(%rdi)
    db7d:	75 f3                	jne    db72 <sem_trywait+0x2>
    db7f:	31 c0                	xor    %eax,%eax
    db81:	c3                   	retq   
    db82:	48 8b 15 f7 a3 20 00 	mov    0x20a3f7(%rip),%rdx        # 217f80 <_DYNAMIC+0x1f0>
    db89:	64 c7 02 0b 00 00 00 	movl   $0xb,%fs:(%rdx)
    db90:	83 c8 ff             	or     $0xffffffff,%eax
    db93:	c3                   	retq   
    db94:	90                   	nop
    db95:	90                   	nop
    db96:	90                   	nop
    db97:	90                   	nop
    db98:	90                   	nop
    db99:	90                   	nop
    db9a:	90                   	nop
    db9b:	90                   	nop
    db9c:	90                   	nop
    db9d:	90                   	nop
    db9e:	90                   	nop
    db9f:	90                   	nop

000000000000dba0 <sem_timedwait>:
    dba0:	8b 07                	mov    (%rdi),%eax
    dba2:	85 c0                	test   %eax,%eax
    dba4:	74 0d                	je     dbb3 <sem_timedwait+0x13>
    dba6:	48 8d 50 ff          	lea    -0x1(%rax),%rdx
    dbaa:	f0 0f b1 17          	lock cmpxchg %edx,(%rdi)
    dbae:	75 f2                	jne    dba2 <sem_timedwait+0x2>
    dbb0:	31 c0                	xor    %eax,%eax
    dbb2:	c3                   	retq   
    dbb3:	48 81 7e 08 00 ca 9a 	cmpq   $0x3b9aca00,0x8(%rsi)
    dbba:	3b 
    dbbb:	0f 83 8a 00 00 00    	jae    dc4b <sem_timedwait+0xab>
    dbc1:	83 3d 80 e7 20 00 00 	cmpl   $0x0,0x20e780(%rip)        # 21c348 <__have_futex_clock_realtime>
    dbc8:	0f 84 a1 00 00 00    	je     dc6f <sem_timedwait+0xcf>
    dbce:	48 83 3e 00          	cmpq   $0x0,(%rsi)
    dbd2:	0f 88 85 00 00 00    	js     dc5d <sem_timedwait+0xbd>
    dbd8:	57                   	push   %rdi
    dbd9:	49 89 f2             	mov    %rsi,%r10
    dbdc:	f0 48 83 47 08 01    	lock addq $0x1,0x8(%rdi)
    dbe2:	e8 f9 06 00 00       	callq  e2e0 <__pthread_enable_asynccancel>
    dbe7:	41 89 c0             	mov    %eax,%r8d
    dbea:	41 b9 ff ff ff ff    	mov    $0xffffffff,%r9d
    dbf0:	be 09 01 00 00       	mov    $0x109,%esi
    dbf5:	0b 77 04             	or     0x4(%rdi),%esi
    dbf8:	b8 ca 00 00 00       	mov    $0xca,%eax
    dbfd:	31 d2                	xor    %edx,%edx
    dbff:	0f 05                	syscall 
    dc01:	49 89 c1             	mov    %rax,%r9
    dc04:	4c 87 c7             	xchg   %r8,%rdi
    dc07:	e8 34 07 00 00       	callq  e340 <__pthread_disable_asynccancel>
    dc0c:	4c 89 c7             	mov    %r8,%rdi
    dc0f:	4d 85 c9             	test   %r9,%r9
    dc12:	74 06                	je     dc1a <sem_timedwait+0x7a>
    dc14:	49 83 f9 f5          	cmp    $0xfffffffffffffff5,%r9
    dc18:	75 1e                	jne    dc38 <sem_timedwait+0x98>
    dc1a:	8b 07                	mov    (%rdi),%eax
    dc1c:	85 c0                	test   %eax,%eax
    dc1e:	74 c2                	je     dbe2 <sem_timedwait+0x42>
    dc20:	48 8d 48 ff          	lea    -0x1(%rax),%rcx
    dc24:	f0 0f b1 0f          	lock cmpxchg %ecx,(%rdi)
    dc28:	75 f2                	jne    dc1c <sem_timedwait+0x7c>
    dc2a:	31 c0                	xor    %eax,%eax
    dc2c:	f0 48 83 6f 08 01    	lock subq $0x1,0x8(%rdi)
    dc32:	48 8d 64 24 08       	lea    0x8(%rsp),%rsp
    dc37:	c3                   	retq   
    dc38:	49 f7 d9             	neg    %r9
    dc3b:	48 8b 15 3e a3 20 00 	mov    0x20a33e(%rip),%rdx        # 217f80 <_DYNAMIC+0x1f0>
    dc42:	64 44 89 0a          	mov    %r9d,%fs:(%rdx)
    dc46:	83 c8 ff             	or     $0xffffffff,%eax
    dc49:	eb e1                	jmp    dc2c <sem_timedwait+0x8c>
    dc4b:	48 8b 15 2e a3 20 00 	mov    0x20a32e(%rip),%rdx        # 217f80 <_DYNAMIC+0x1f0>
    dc52:	64 c7 02 16 00 00 00 	movl   $0x16,%fs:(%rdx)
    dc59:	83 c8 ff             	or     $0xffffffff,%eax
    dc5c:	c3                   	retq   
    dc5d:	48 8b 15 1c a3 20 00 	mov    0x20a31c(%rip),%rdx        # 217f80 <_DYNAMIC+0x1f0>
    dc64:	64 c7 02 6e 00 00 00 	movl   $0x6e,%fs:(%rdx)
    dc6b:	83 c8 ff             	or     $0xffffffff,%eax
    dc6e:	c3                   	retq   
    dc6f:	41 54                	push   %r12
    dc71:	41 55                	push   %r13
    dc73:	41 56                	push   %r14
    dc75:	48 83 ec 18          	sub    $0x18,%rsp
    dc79:	49 89 fc             	mov    %rdi,%r12
    dc7c:	49 89 f5             	mov    %rsi,%r13
    dc7f:	f0 49 83 44 24 08 01 	lock addq $0x1,0x8(%r12)
    dc86:	31 f6                	xor    %esi,%esi
    dc88:	48 89 e7             	mov    %rsp,%rdi
    dc8b:	e8 40 77 ff ff       	callq  53d0 <__gettimeofday@plt>
    dc90:	48 8b 44 24 08       	mov    0x8(%rsp),%rax
    dc95:	bf e8 03 00 00       	mov    $0x3e8,%edi
    dc9a:	48 f7 e7             	mul    %rdi
    dc9d:	49 8b 7d 00          	mov    0x0(%r13),%rdi
    dca1:	49 8b 75 08          	mov    0x8(%r13),%rsi
    dca5:	48 2b 3c 24          	sub    (%rsp),%rdi
    dca9:	48 29 c6             	sub    %rax,%rsi
    dcac:	79 0a                	jns    dcb8 <sem_timedwait+0x118>
    dcae:	48 81 c6 00 ca 9a 3b 	add    $0x3b9aca00,%rsi
    dcb5:	48 ff cf             	dec    %rdi
    dcb8:	48 85 ff             	test   %rdi,%rdi
    dcbb:	41 be 6e 00 00 00    	mov    $0x6e,%r14d
    dcc1:	78 66                	js     dd29 <sem_timedwait+0x189>
    dcc3:	48 89 3c 24          	mov    %rdi,(%rsp)
    dcc7:	48 89 74 24 08       	mov    %rsi,0x8(%rsp)
    dccc:	e8 0f 06 00 00       	callq  e2e0 <__pthread_enable_asynccancel>
    dcd1:	89 44 24 10          	mov    %eax,0x10(%rsp)
    dcd5:	49 89 e2             	mov    %rsp,%r10
    dcd8:	4c 89 e7             	mov    %r12,%rdi
    dcdb:	8b 77 04             	mov    0x4(%rdi),%esi
    dcde:	b8 ca 00 00 00       	mov    $0xca,%eax
    dce3:	31 d2                	xor    %edx,%edx
    dce5:	0f 05                	syscall 
    dce7:	49 89 c6             	mov    %rax,%r14
    dcea:	8b 7c 24 10          	mov    0x10(%rsp),%edi
    dcee:	e8 4d 06 00 00       	callq  e340 <__pthread_disable_asynccancel>
    dcf3:	4d 85 f6             	test   %r14,%r14
    dcf6:	74 06                	je     dcfe <sem_timedwait+0x15e>
    dcf8:	49 83 fe f5          	cmp    $0xfffffffffffffff5,%r14
    dcfc:	75 28                	jne    dd26 <sem_timedwait+0x186>
    dcfe:	41 8b 04 24          	mov    (%r12),%eax
    dd02:	85 c0                	test   %eax,%eax
    dd04:	74 80                	je     dc86 <sem_timedwait+0xe6>
    dd06:	48 8d 48 ff          	lea    -0x1(%rax),%rcx
    dd0a:	f0 41 0f b1 0c 24    	lock cmpxchg %ecx,(%r12)
    dd10:	75 f0                	jne    dd02 <sem_timedwait+0x162>
    dd12:	31 c0                	xor    %eax,%eax
    dd14:	f0 49 83 6c 24 08 01 	lock subq $0x1,0x8(%r12)
    dd1b:	48 83 c4 18          	add    $0x18,%rsp
    dd1f:	41 5e                	pop    %r14
    dd21:	41 5d                	pop    %r13
    dd23:	41 5c                	pop    %r12
    dd25:	c3                   	retq   
    dd26:	49 f7 de             	neg    %r14
    dd29:	48 8b 15 50 a2 20 00 	mov    0x20a250(%rip),%rdx        # 217f80 <_DYNAMIC+0x1f0>
    dd30:	64 44 89 32          	mov    %r14d,%fs:(%rdx)
    dd34:	83 c8 ff             	or     $0xffffffff,%eax
    dd37:	eb db                	jmp    dd14 <sem_timedwait+0x174>

000000000000dd39 <sem_timedwait_cleanup>:
    dd39:	48 8b 3c 24          	mov    (%rsp),%rdi
    dd3d:	f0 48 83 6f 08 01    	lock subq $0x1,0x8(%rdi)
    dd43:	48 89 c7             	mov    %rax,%rdi
    dd46:	e8 65 23 00 00       	callq  100b0 <_Unwind_Resume>
    dd4b:	f4                   	hlt    

000000000000dd4c <sem_timedwait_cleanup2>:
    dd4c:	f0 49 83 6c 24 08 01 	lock subq $0x1,0x8(%r12)
    dd53:	48 89 c7             	mov    %rax,%rdi
    dd56:	4c 8b 74 24 18       	mov    0x18(%rsp),%r14
    dd5b:	4c 8b 6c 24 20       	mov    0x20(%rsp),%r13
    dd60:	4c 8b 64 24 28       	mov    0x28(%rsp),%r12
    dd65:	e8 46 23 00 00       	callq  100b0 <_Unwind_Resume>
    dd6a:	f4                   	hlt    
    dd6b:	90                   	nop
    dd6c:	90                   	nop
    dd6d:	90                   	nop
    dd6e:	90                   	nop
    dd6f:	90                   	nop

000000000000dd70 <sem_post>:
    dd70:	8b 07                	mov    (%rdi),%eax
    dd72:	3d ff ff ff 7f       	cmp    $0x7fffffff,%eax
    dd77:	74 33                	je     ddac <sem_post+0x3c>
    dd79:	8d 70 01             	lea    0x1(%rax),%esi
    dd7c:	f0 0f b1 37          	lock cmpxchg %esi,(%rdi)
    dd80:	75 f0                	jne    dd72 <sem_post+0x2>
    dd82:	48 83 7f 08 00       	cmpq   $0x0,0x8(%rdi)
    dd87:	74 19                	je     dda2 <sem_post+0x32>
    dd89:	b8 ca 00 00 00       	mov    $0xca,%eax
    dd8e:	be 01 00 00 00       	mov    $0x1,%esi
    dd93:	0b 77 04             	or     0x4(%rdi),%esi
    dd96:	ba 01 00 00 00       	mov    $0x1,%edx
    dd9b:	0f 05                	syscall 
    dd9d:	48 85 c0             	test   %rax,%rax
    dda0:	78 03                	js     dda5 <sem_post+0x35>
    dda2:	31 c0                	xor    %eax,%eax
    dda4:	c3                   	retq   
    dda5:	b8 16 00 00 00       	mov    $0x16,%eax
    ddaa:	eb 05                	jmp    ddb1 <sem_post+0x41>
    ddac:	b8 4b 00 00 00       	mov    $0x4b,%eax
    ddb1:	48 8b 15 c8 a1 20 00 	mov    0x20a1c8(%rip),%rdx        # 217f80 <_DYNAMIC+0x1f0>
    ddb8:	64 89 02             	mov    %eax,%fs:(%rdx)
    ddbb:	83 c8 ff             	or     $0xffffffff,%eax
    ddbe:	c3                   	retq   
    ddbf:	90                   	nop

000000000000ddc0 <__pthread_register_cancel>:
    ddc0:	55                   	push   %rbp
    ddc1:	48 89 e5             	mov    %rsp,%rbp
    ddc4:	64 48 8b 04 25 00 03 	mov    %fs:0x300,%rax
    ddcb:	00 00 
    ddcd:	48 89 47 48          	mov    %rax,0x48(%rdi)
    ddd1:	64 48 8b 04 25 f8 02 	mov    %fs:0x2f8,%rax
    ddd8:	00 00 
    ddda:	48 89 47 50          	mov    %rax,0x50(%rdi)
    ddde:	64 48 89 3c 25 00 03 	mov    %rdi,%fs:0x300
    dde5:	00 00 
    dde7:	c9                   	leaveq 
    dde8:	c3                   	retq   
    dde9:	0f 1f 80 00 00 00 00 	nopl   0x0(%rax)

000000000000ddf0 <__pthread_unregister_cancel>:
    ddf0:	55                   	push   %rbp
    ddf1:	48 8b 47 48          	mov    0x48(%rdi),%rax
    ddf5:	48 89 e5             	mov    %rsp,%rbp
    ddf8:	64 48 89 04 25 00 03 	mov    %rax,%fs:0x300
    ddff:	00 00 
    de01:	c9                   	leaveq 
    de02:	c3                   	retq   
    de03:	90                   	nop
    de04:	90                   	nop
    de05:	90                   	nop
    de06:	90                   	nop
    de07:	90                   	nop
    de08:	90                   	nop
    de09:	90                   	nop
    de0a:	90                   	nop
    de0b:	90                   	nop
    de0c:	90                   	nop
    de0d:	90                   	nop
    de0e:	90                   	nop
    de0f:	90                   	nop

000000000000de10 <__pthread_register_cancel_defer>:
    de10:	55                   	push   %rbp
    de11:	48 89 e5             	mov    %rsp,%rbp
    de14:	64 48 8b 04 25 00 03 	mov    %fs:0x300,%rax
    de1b:	00 00 
    de1d:	48 89 47 48          	mov    %rax,0x48(%rdi)
    de21:	64 48 8b 04 25 f8 02 	mov    %fs:0x2f8,%rax
    de28:	00 00 
    de2a:	48 89 47 50          	mov    %rax,0x50(%rdi)
    de2e:	64 8b 14 25 08 03 00 	mov    %fs:0x308,%edx
    de35:	00 
    de36:	f6 c2 02             	test   $0x2,%dl
    de39:	75 13                	jne    de4e <__pthread_register_cancel_defer+0x3e>
    de3b:	d1 ea                	shr    %edx
    de3d:	83 e2 01             	and    $0x1,%edx
    de40:	89 57 58             	mov    %edx,0x58(%rdi)
    de43:	64 48 89 3c 25 00 03 	mov    %rdi,%fs:0x300
    de4a:	00 00 
    de4c:	c9                   	leaveq 
    de4d:	c3                   	retq   
    de4e:	89 d1                	mov    %edx,%ecx
    de50:	89 d0                	mov    %edx,%eax
    de52:	83 e1 fd             	and    $0xfffffffd,%ecx
    de55:	f0 64 0f b1 0c 25 08 	lock cmpxchg %ecx,%fs:0x308
    de5c:	03 00 00 
    de5f:	39 c2                	cmp    %eax,%edx
    de61:	74 d8                	je     de3b <__pthread_register_cancel_defer+0x2b>
    de63:	89 c2                	mov    %eax,%edx
    de65:	eb e7                	jmp    de4e <__pthread_register_cancel_defer+0x3e>
    de67:	66 0f 1f 84 00 00 00 	nopw   0x0(%rax,%rax,1)
    de6e:	00 00 

000000000000de70 <__pthread_unregister_cancel_restore>:
    de70:	55                   	push   %rbp
    de71:	48 8b 47 48          	mov    0x48(%rdi),%rax
    de75:	48 89 e5             	mov    %rsp,%rbp
    de78:	64 48 89 04 25 00 03 	mov    %rax,%fs:0x300
    de7f:	00 00 
    de81:	8b 47 58             	mov    0x58(%rdi),%eax
    de84:	85 c0                	test   %eax,%eax
    de86:	74 32                	je     deba <__pthread_unregister_cancel_restore+0x4a>
    de88:	64 8b 14 25 08 03 00 	mov    %fs:0x308,%edx
    de8f:	00 
    de90:	f6 c2 02             	test   $0x2,%dl
    de93:	75 25                	jne    deba <__pthread_unregister_cancel_restore+0x4a>
    de95:	89 d1                	mov    %edx,%ecx
    de97:	89 d0                	mov    %edx,%eax
    de99:	83 c9 02             	or     $0x2,%ecx
    de9c:	f0 64 0f b1 0c 25 08 	lock cmpxchg %ecx,%fs:0x308
    dea3:	03 00 00 
    dea6:	39 c2                	cmp    %eax,%edx
    dea8:	75 37                	jne    dee1 <__pthread_unregister_cancel_restore+0x71>
    deaa:	64 8b 04 25 08 03 00 	mov    %fs:0x308,%eax
    deb1:	00 
    deb2:	83 e0 b9             	and    $0xffffffb9,%eax
    deb5:	83 f8 08             	cmp    $0x8,%eax
    deb8:	74 02                	je     debc <__pthread_unregister_cancel_restore+0x4c>
    deba:	c9                   	leaveq 
    debb:	c3                   	retq   
    debc:	64 48 c7 04 25 30 06 	movq   $0xffffffffffffffff,%fs:0x630
    dec3:	00 00 ff ff ff ff 
    dec9:	f0 64 83 0c 25 08 03 	lock orl $0x10,%fs:0x308
    ded0:	00 00 10 
    ded3:	64 48 8b 3c 25 00 03 	mov    %fs:0x300,%rdi
    deda:	00 00 
    dedc:	e8 5f 01 00 00       	callq  e040 <__pthread_unwind>
    dee1:	89 c2                	mov    %eax,%edx
    dee3:	eb b0                	jmp    de95 <__pthread_unregister_cancel_restore+0x25>
    dee5:	90                   	nop
    dee6:	90                   	nop
    dee7:	90                   	nop
    dee8:	90                   	nop
    dee9:	90                   	nop
    deea:	90                   	nop
    deeb:	90                   	nop
    deec:	90                   	nop
    deed:	90                   	nop
    deee:	90                   	nop
    deef:	90                   	nop

000000000000def0 <_pthread_cleanup_push>:
    def0:	55                   	push   %rbp
    def1:	48 89 37             	mov    %rsi,(%rdi)
    def4:	48 89 57 08          	mov    %rdx,0x8(%rdi)
    def8:	48 89 e5             	mov    %rsp,%rbp
    defb:	64 48 8b 04 25 f8 02 	mov    %fs:0x2f8,%rax
    df02:	00 00 
    df04:	48 89 47 18          	mov    %rax,0x18(%rdi)
    df08:	64 48 89 3c 25 f8 02 	mov    %rdi,%fs:0x2f8
    df0f:	00 00 
    df11:	c9                   	leaveq 
    df12:	c3                   	retq   
    df13:	66 66 66 66 2e 0f 1f 	data32 data32 data32 nopw %cs:0x0(%rax,%rax,1)
    df1a:	84 00 00 00 00 00 

000000000000df20 <_pthread_cleanup_pop>:
    df20:	55                   	push   %rbp
    df21:	48 8b 47 18          	mov    0x18(%rdi),%rax
    df25:	48 89 e5             	mov    %rsp,%rbp
    df28:	64 48 89 04 25 f8 02 	mov    %rax,%fs:0x2f8
    df2f:	00 00 
    df31:	85 f6                	test   %esi,%esi
    df33:	75 0b                	jne    df40 <_pthread_cleanup_pop+0x20>
    df35:	c9                   	leaveq 
    df36:	c3                   	retq   
    df37:	66 0f 1f 84 00 00 00 	nopw   0x0(%rax,%rax,1)
    df3e:	00 00 
    df40:	48 8b 57 08          	mov    0x8(%rdi),%rdx
    df44:	48 8b 07             	mov    (%rdi),%rax
    df47:	c9                   	leaveq 
    df48:	48 89 d7             	mov    %rdx,%rdi
    df4b:	ff e0                	jmpq   *%rax
    df4d:	90                   	nop
    df4e:	90                   	nop
    df4f:	90                   	nop

000000000000df50 <_pthread_cleanup_push_defer>:
    df50:	55                   	push   %rbp
    df51:	48 89 37             	mov    %rsi,(%rdi)
    df54:	48 89 57 08          	mov    %rdx,0x8(%rdi)
    df58:	48 89 e5             	mov    %rsp,%rbp
    df5b:	64 48 8b 04 25 f8 02 	mov    %fs:0x2f8,%rax
    df62:	00 00 
    df64:	48 89 47 18          	mov    %rax,0x18(%rdi)
    df68:	64 8b 14 25 08 03 00 	mov    %fs:0x308,%edx
    df6f:	00 
    df70:	f6 c2 02             	test   $0x2,%dl
    df73:	75 13                	jne    df88 <_pthread_cleanup_push_defer+0x38>
    df75:	d1 ea                	shr    %edx
    df77:	83 e2 01             	and    $0x1,%edx
    df7a:	89 57 10             	mov    %edx,0x10(%rdi)
    df7d:	64 48 89 3c 25 f8 02 	mov    %rdi,%fs:0x2f8
    df84:	00 00 
    df86:	c9                   	leaveq 
    df87:	c3                   	retq   
    df88:	89 d1                	mov    %edx,%ecx
    df8a:	89 d0                	mov    %edx,%eax
    df8c:	83 e1 fd             	and    $0xfffffffd,%ecx
    df8f:	f0 64 0f b1 0c 25 08 	lock cmpxchg %ecx,%fs:0x308
    df96:	03 00 00 
    df99:	39 c2                	cmp    %eax,%edx
    df9b:	74 d8                	je     df75 <_pthread_cleanup_push_defer+0x25>
    df9d:	89 c2                	mov    %eax,%edx
    df9f:	eb e7                	jmp    df88 <_pthread_cleanup_push_defer+0x38>
    dfa1:	66 66 66 66 66 66 2e 	data32 data32 data32 data32 data32 nopw %cs:0x0(%rax,%rax,1)
    dfa8:	0f 1f 84 00 00 00 00 
    dfaf:	00 

000000000000dfb0 <_pthread_cleanup_pop_restore>:
    dfb0:	55                   	push   %rbp
    dfb1:	48 8b 47 18          	mov    0x18(%rdi),%rax
    dfb5:	48 89 e5             	mov    %rsp,%rbp
    dfb8:	64 48 89 04 25 f8 02 	mov    %rax,%fs:0x2f8
    dfbf:	00 00 
    dfc1:	8b 47 10             	mov    0x10(%rdi),%eax
    dfc4:	85 c0                	test   %eax,%eax
    dfc6:	75 15                	jne    dfdd <_pthread_cleanup_pop_restore+0x2d>
    dfc8:	85 f6                	test   %esi,%esi
    dfca:	75 04                	jne    dfd0 <_pthread_cleanup_pop_restore+0x20>
    dfcc:	c9                   	leaveq 
    dfcd:	c3                   	retq   
    dfce:	66 90                	xchg   %ax,%ax
    dfd0:	48 8b 57 08          	mov    0x8(%rdi),%rdx
    dfd4:	48 8b 07             	mov    (%rdi),%rax
    dfd7:	c9                   	leaveq 
    dfd8:	48 89 d7             	mov    %rdx,%rdi
    dfdb:	ff e0                	jmpq   *%rax
    dfdd:	64 8b 14 25 08 03 00 	mov    %fs:0x308,%edx
    dfe4:	00 
    dfe5:	f6 c2 02             	test   $0x2,%dl
    dfe8:	75 de                	jne    dfc8 <_pthread_cleanup_pop_restore+0x18>
    dfea:	89 d1                	mov    %edx,%ecx
    dfec:	89 d0                	mov    %edx,%eax
    dfee:	83 c9 02             	or     $0x2,%ecx
    dff1:	f0 64 0f b1 0c 25 08 	lock cmpxchg %ecx,%fs:0x308
    dff8:	03 00 00 
    dffb:	39 c2                	cmp    %eax,%edx
    dffd:	75 35                	jne    e034 <_pthread_cleanup_pop_restore+0x84>
    dfff:	64 8b 04 25 08 03 00 	mov    %fs:0x308,%eax
    e006:	00 
    e007:	83 e0 b9             	and    $0xffffffb9,%eax
    e00a:	83 f8 08             	cmp    $0x8,%eax
    e00d:	75 b9                	jne    dfc8 <_pthread_cleanup_pop_restore+0x18>
    e00f:	64 48 c7 04 25 30 06 	movq   $0xffffffffffffffff,%fs:0x630
    e016:	00 00 ff ff ff ff 
    e01c:	f0 64 83 0c 25 08 03 	lock orl $0x10,%fs:0x308
    e023:	00 00 10 
    e026:	64 48 8b 3c 25 00 03 	mov    %fs:0x300,%rdi
    e02d:	00 00 
    e02f:	e8 0c 00 00 00       	callq  e040 <__pthread_unwind>
    e034:	89 c2                	mov    %eax,%edx
    e036:	eb b2                	jmp    dfea <_pthread_cleanup_pop_restore+0x3a>
    e038:	90                   	nop
    e039:	90                   	nop
    e03a:	90                   	nop
    e03b:	90                   	nop
    e03c:	90                   	nop
    e03d:	90                   	nop
    e03e:	90                   	nop
    e03f:	90                   	nop

000000000000e040 <__pthread_unwind>:
    e040:	55                   	push   %rbp
    e041:	48 89 fa             	mov    %rdi,%rdx
    e044:	64 48 8b 3c 25 10 00 	mov    %fs:0x10,%rdi
    e04b:	00 00 
    e04d:	48 89 e5             	mov    %rsp,%rbp
    e050:	64 48 c7 04 25 70 06 	movq   $0x0,%fs:0x670
    e057:	00 00 00 00 00 00 
    e05d:	48 8d 05 3c 00 00 00 	lea    0x3c(%rip),%rax        # e0a0 <unwind_cleanup>
    e064:	64 48 89 04 25 78 06 	mov    %rax,%fs:0x678
    e06b:	00 00 
    e06d:	48 8d 35 5c 00 00 00 	lea    0x5c(%rip),%rsi        # e0d0 <unwind_stop>
    e074:	48 81 c7 70 06 00 00 	add    $0x670,%rdi
    e07b:	e8 80 1f 00 00       	callq  10000 <_Unwind_ForcedUnwind>
    e080:	e8 7b 72 ff ff       	callq  5300 <abort@plt>
    e085:	66 66 2e 0f 1f 84 00 	data32 nopw %cs:0x0(%rax,%rax,1)
    e08c:	00 00 00 00 

000000000000e090 <__pthread_unwind_next>:
    e090:	55                   	push   %rbp
    e091:	48 8b 7f 48          	mov    0x48(%rdi),%rdi
    e095:	48 89 e5             	mov    %rsp,%rbp
    e098:	e8 a3 ff ff ff       	callq  e040 <__pthread_unwind>
    e09d:	0f 1f 00             	nopl   (%rax)

000000000000e0a0 <unwind_cleanup>:
    e0a0:	55                   	push   %rbp
    e0a1:	ba 1e 00 00 00       	mov    $0x1e,%edx
    e0a6:	48 8d 35 33 3f 00 00 	lea    0x3f33(%rip),%rsi        # 11fe0 <defaultdir+0xf>
    e0ad:	bf 02 00 00 00       	mov    $0x2,%edi
    e0b2:	b8 01 00 00 00       	mov    $0x1,%eax
    e0b7:	48 89 e5             	mov    %rsp,%rbp
    e0ba:	0f 05                	syscall 
    e0bc:	e8 3f 72 ff ff       	callq  5300 <abort@plt>
    e0c1:	66 66 66 66 66 66 2e 	data32 data32 data32 data32 data32 nopw %cs:0x0(%rax,%rax,1)
    e0c8:	0f 1f 84 00 00 00 00 
    e0cf:	00 

000000000000e0d0 <unwind_stop>:
    e0d0:	55                   	push   %rbp
    e0d1:	64 48 8b 04 25 10 00 	mov    %fs:0x10,%rax
    e0d8:	00 00 
    e0da:	48 89 e5             	mov    %rsp,%rbp
    e0dd:	48 89 5d d8          	mov    %rbx,-0x28(%rbp)
    e0e1:	4c 89 65 e0          	mov    %r12,-0x20(%rbp)
    e0e5:	4c 89 6d e8          	mov    %r13,-0x18(%rbp)
    e0e9:	4c 89 75 f0          	mov    %r14,-0x10(%rbp)
    e0ed:	4c 89 7d f8          	mov    %r15,-0x8(%rbp)
    e0f1:	48 83 ec 50          	sub    $0x50,%rsp
    e0f5:	64 4c 8b 2c 25 f8 02 	mov    %fs:0x2f8,%r13
    e0fc:	00 00 
    e0fe:	48 8b 98 90 06 00 00 	mov    0x690(%rax),%rbx
    e105:	48 03 98 98 06 00 00 	add    0x698(%rax),%rbx
    e10c:	83 e6 10             	and    $0x10,%esi
    e10f:	74 2f                	je     e140 <unwind_stop+0x70>
    e111:	41 bc 01 00 00 00    	mov    $0x1,%r12d
    e117:	4d 85 ed             	test   %r13,%r13
    e11a:	75 6a                	jne    e186 <unwind_stop+0xb6>
    e11c:	45 85 e4             	test   %r12d,%r12d
    e11f:	75 58                	jne    e179 <unwind_stop+0xa9>
    e121:	31 c0                	xor    %eax,%eax
    e123:	48 8b 5d d8          	mov    -0x28(%rbp),%rbx
    e127:	4c 8b 65 e0          	mov    -0x20(%rbp),%r12
    e12b:	4c 8b 6d e8          	mov    -0x18(%rbp),%r13
    e12f:	4c 8b 75 f0          	mov    -0x10(%rbp),%r14
    e133:	4c 8b 7d f8          	mov    -0x8(%rbp),%r15
    e137:	c9                   	leaveq 
    e138:	c3                   	retq   
    e139:	0f 1f 80 00 00 00 00 	nopl   0x0(%rax)
    e140:	4c 89 c7             	mov    %r8,%rdi
    e143:	4c 89 45 b8          	mov    %r8,-0x48(%rbp)
    e147:	4c 89 4d c0          	mov    %r9,-0x40(%rbp)
    e14b:	e8 70 1e 00 00       	callq  ffc0 <_Unwind_GetCFA>
    e150:	4c 8b 4d c0          	mov    -0x40(%rbp),%r9
    e154:	48 29 d8             	sub    %rbx,%rax
    e157:	45 31 e4             	xor    %r12d,%r12d
    e15a:	4c 8b 45 b8          	mov    -0x48(%rbp),%r8
    e15e:	49 8b 51 30          	mov    0x30(%r9),%rdx
    e162:	48 c1 ca 11          	ror    $0x11,%rdx
    e166:	64 48 33 14 25 30 00 	xor    %fs:0x30,%rdx
    e16d:	00 00 
    e16f:	48 29 da             	sub    %rbx,%rdx
    e172:	48 39 d0             	cmp    %rdx,%rax
    e175:	72 a0                	jb     e117 <unwind_stop+0x47>
    e177:	eb 98                	jmp    e111 <unwind_stop+0x41>
    e179:	be 01 00 00 00       	mov    $0x1,%esi
    e17e:	4c 89 cf             	mov    %r9,%rdi
    e181:	e8 8a 75 ff ff       	callq  5710 <__libc_longjmp@plt>
    e186:	4d 8b 71 50          	mov    0x50(%r9),%r14
    e18a:	4c 89 c7             	mov    %r8,%rdi
    e18d:	4c 89 4d c0          	mov    %r9,-0x40(%rbp)
    e191:	e8 2a 1e 00 00       	callq  ffc0 <_Unwind_GetCFA>
    e196:	4c 8b 4d c0          	mov    -0x40(%rbp),%r9
    e19a:	4d 39 f5             	cmp    %r14,%r13
    e19d:	0f 84 79 ff ff ff    	je     e11c <unwind_stop+0x4c>
    e1a3:	45 85 e4             	test   %r12d,%r12d
    e1a6:	75 15                	jne    e1bd <unwind_stop+0xed>
    e1a8:	48 89 c1             	mov    %rax,%rcx
    e1ab:	4c 89 ea             	mov    %r13,%rdx
    e1ae:	48 29 d9             	sub    %rbx,%rcx
    e1b1:	48 29 da             	sub    %rbx,%rdx
    e1b4:	48 39 d1             	cmp    %rdx,%rcx
    e1b7:	0f 82 64 ff ff ff    	jb     e121 <unwind_stop+0x51>
    e1bd:	48 29 d8             	sub    %rbx,%rax
    e1c0:	48 89 45 c8          	mov    %rax,-0x38(%rbp)
    e1c4:	4d 8b 7d 18          	mov    0x18(%r13),%r15
    e1c8:	4c 89 4d c0          	mov    %r9,-0x40(%rbp)
    e1cc:	49 8b 7d 08          	mov    0x8(%r13),%rdi
    e1d0:	41 ff 55 00          	callq  *0x0(%r13)
    e1d4:	4d 39 fe             	cmp    %r15,%r14
    e1d7:	4c 8b 4d c0          	mov    -0x40(%rbp),%r9
    e1db:	74 25                	je     e202 <unwind_stop+0x132>
    e1dd:	45 85 e4             	test   %r12d,%r12d
    e1e0:	4d 89 fd             	mov    %r15,%r13
    e1e3:	75 df                	jne    e1c4 <unwind_stop+0xf4>
    e1e5:	4c 89 fa             	mov    %r15,%rdx
    e1e8:	4c 89 f8             	mov    %r15,%rax
    e1eb:	48 29 da             	sub    %rbx,%rdx
    e1ee:	48 39 55 c8          	cmp    %rdx,-0x38(%rbp)
    e1f2:	73 d0                	jae    e1c4 <unwind_stop+0xf4>
    e1f4:	64 48 89 04 25 f8 02 	mov    %rax,%fs:0x2f8
    e1fb:	00 00 
    e1fd:	e9 1a ff ff ff       	jmpq   e11c <unwind_stop+0x4c>
    e202:	4c 89 f0             	mov    %r14,%rax
    e205:	eb ed                	jmp    e1f4 <unwind_stop+0x124>
    e207:	90                   	nop
    e208:	90                   	nop
    e209:	90                   	nop
    e20a:	90                   	nop
    e20b:	90                   	nop
    e20c:	90                   	nop
    e20d:	90                   	nop
    e20e:	90                   	nop
    e20f:	90                   	nop

000000000000e210 <longjmp>:
    e210:	55                   	push   %rbp
    e211:	48 89 e5             	mov    %rsp,%rbp
    e214:	e8 f7 74 ff ff       	callq  5710 <__libc_longjmp@plt>
    e219:	90                   	nop
    e21a:	90                   	nop
    e21b:	90                   	nop
    e21c:	90                   	nop
    e21d:	90                   	nop
    e21e:	90                   	nop
    e21f:	90                   	nop

000000000000e220 <__GI___pthread_cleanup_upto>:
    e220:	55                   	push   %rbp
    e221:	64 48 8b 04 25 10 00 	mov    %fs:0x10,%rax
    e228:	00 00 
    e22a:	48 89 e5             	mov    %rsp,%rbp
    e22d:	41 56                	push   %r14
    e22f:	41 55                	push   %r13
    e231:	41 54                	push   %r12
    e233:	53                   	push   %rbx
    e234:	4c 8b a0 90 06 00 00 	mov    0x690(%rax),%r12
    e23b:	48 8b 80 98 06 00 00 	mov    0x698(%rax),%rax
    e242:	64 48 8b 1c 25 f8 02 	mov    %fs:0x2f8,%rbx
    e249:	00 00 
    e24b:	48 85 db             	test   %rbx,%rbx
    e24e:	74 75                	je     e2c5 <__GI___pthread_cleanup_upto+0xa5>
    e250:	49 01 c4             	add    %rax,%r12
    e253:	48 89 da             	mov    %rbx,%rdx
    e256:	48 8b 47 30          	mov    0x30(%rdi),%rax
    e25a:	4c 29 e2             	sub    %r12,%rdx
    e25d:	48 89 d9             	mov    %rbx,%rcx
    e260:	4c 8d 77 30          	lea    0x30(%rdi),%r14
    e264:	48 c1 c8 11          	ror    $0x11,%rax
    e268:	64 48 33 04 25 30 00 	xor    %fs:0x30,%rax
    e26f:	00 00 
    e271:	4c 29 e0             	sub    %r12,%rax
    e274:	48 39 c2             	cmp    %rax,%rdx
    e277:	73 4e                	jae    e2c7 <__GI___pthread_cleanup_upto+0xa7>
    e279:	49 89 f5             	mov    %rsi,%r13
    e27c:	4d 29 e5             	sub    %r12,%r13
    e27f:	49 39 d5             	cmp    %rdx,%r13
    e282:	72 32                	jb     e2b6 <__GI___pthread_cleanup_upto+0x96>
    e284:	eb 3f                	jmp    e2c5 <__GI___pthread_cleanup_upto+0xa5>
    e286:	66 2e 0f 1f 84 00 00 	nopw   %cs:0x0(%rax,%rax,1)
    e28d:	00 00 00 
    e290:	48 89 da             	mov    %rbx,%rdx
    e293:	49 8b 06             	mov    (%r14),%rax
    e296:	48 89 d9             	mov    %rbx,%rcx
    e299:	48 c1 c8 11          	ror    $0x11,%rax
    e29d:	64 48 33 04 25 30 00 	xor    %fs:0x30,%rax
    e2a4:	00 00 
    e2a6:	4c 29 e2             	sub    %r12,%rdx
    e2a9:	4c 29 e0             	sub    %r12,%rax
    e2ac:	48 39 c2             	cmp    %rax,%rdx
    e2af:	73 16                	jae    e2c7 <__GI___pthread_cleanup_upto+0xa7>
    e2b1:	49 39 d5             	cmp    %rdx,%r13
    e2b4:	73 0f                	jae    e2c5 <__GI___pthread_cleanup_upto+0xa5>
    e2b6:	48 8b 7b 08          	mov    0x8(%rbx),%rdi
    e2ba:	ff 13                	callq  *(%rbx)
    e2bc:	48 8b 5b 18          	mov    0x18(%rbx),%rbx
    e2c0:	48 85 db             	test   %rbx,%rbx
    e2c3:	75 cb                	jne    e290 <__GI___pthread_cleanup_upto+0x70>
    e2c5:	31 c9                	xor    %ecx,%ecx
    e2c7:	64 48 89 0c 25 f8 02 	mov    %rcx,%fs:0x2f8
    e2ce:	00 00 
    e2d0:	5b                   	pop    %rbx
    e2d1:	41 5c                	pop    %r12
    e2d3:	41 5d                	pop    %r13
    e2d5:	41 5e                	pop    %r14
    e2d7:	c9                   	leaveq 
    e2d8:	c3                   	retq   
    e2d9:	90                   	nop
    e2da:	90                   	nop
    e2db:	90                   	nop
    e2dc:	90                   	nop
    e2dd:	90                   	nop
    e2de:	90                   	nop
    e2df:	90                   	nop

000000000000e2e0 <__pthread_enable_asynccancel>:
    e2e0:	64 8b 04 25 08 03 00 	mov    %fs:0x308,%eax
    e2e7:	00 
    e2e8:	41 89 c3             	mov    %eax,%r11d
    e2eb:	41 83 cb 02          	or     $0x2,%r11d
    e2ef:	41 39 c3             	cmp    %eax,%r11d
    e2f2:	74 17                	je     e30b <__pthread_enable_asynccancel+0x2b>
    e2f4:	f0 64 44 0f b1 1c 25 	lock cmpxchg %r11d,%fs:0x308
    e2fb:	08 03 00 00 
    e2ff:	75 e7                	jne    e2e8 <__pthread_enable_asynccancel+0x8>
    e301:	41 83 e3 bb          	and    $0xffffffbb,%r11d
    e305:	41 83 fb 0a          	cmp    $0xa,%r11d
    e309:	74 01                	je     e30c <__pthread_enable_asynccancel+0x2c>
    e30b:	c3                   	retq   
    e30c:	48 83 ec 08          	sub    $0x8,%rsp
    e310:	64 48 c7 04 25 30 06 	movq   $0xffffffffffffffff,%fs:0x630
    e317:	00 00 ff ff ff ff 
    e31d:	f0 64 83 0c 25 08 03 	lock orl $0x10,%fs:0x308
    e324:	00 00 10 
    e327:	64 48 8b 3c 25 00 03 	mov    %fs:0x300,%rdi
    e32e:	00 00 
    e330:	e8 0b fd ff ff       	callq  e040 <__pthread_unwind>
    e335:	f4                   	hlt    
    e336:	66 2e 0f 1f 84 00 00 	nopw   %cs:0x0(%rax,%rax,1)
    e33d:	00 00 00 

000000000000e340 <__pthread_disable_asynccancel>:
    e340:	f7 c7 02 00 00 00    	test   $0x2,%edi
    e346:	75 27                	jne    e36f <__pthread_disable_asynccancel+0x2f>
    e348:	64 8b 04 25 08 03 00 	mov    %fs:0x308,%eax
    e34f:	00 
    e350:	41 89 c3             	mov    %eax,%r11d
    e353:	41 83 e3 fd          	and    $0xfffffffd,%r11d
    e357:	f0 64 44 0f b1 1c 25 	lock cmpxchg %r11d,%fs:0x308
    e35e:	08 03 00 00 
    e362:	75 ec                	jne    e350 <__pthread_disable_asynccancel+0x10>
    e364:	44 89 d8             	mov    %r11d,%eax
    e367:	83 e0 0c             	and    $0xc,%eax
    e36a:	83 f8 04             	cmp    $0x4,%eax
    e36d:	74 01                	je     e370 <__pthread_disable_asynccancel+0x30>
    e36f:	c3                   	retq   
    e370:	64 48 8b 3c 25 00 00 	mov    %fs:0x0,%rdi
    e377:	00 00 
    e379:	b8 ca 00 00 00       	mov    $0xca,%eax
    e37e:	4d 31 d2             	xor    %r10,%r10
    e381:	48 81 c7 08 03 00 00 	add    $0x308,%rdi
    e388:	64 8b 34 25 48 00 00 	mov    %fs:0x48,%esi
    e38f:	00 
    e390:	0f 05                	syscall 
    e392:	64 8b 04 25 08 03 00 	mov    %fs:0x308,%eax
    e399:	00 
    e39a:	eb cb                	jmp    e367 <__pthread_disable_asynccancel+0x27>
    e39c:	90                   	nop
    e39d:	90                   	nop
    e39e:	90                   	nop
    e39f:	90                   	nop

000000000000e3a0 <__lll_lock_wait_private>:
    e3a0:	41 52                	push   %r10
    e3a2:	52                   	push   %rdx
    e3a3:	4d 31 d2             	xor    %r10,%r10
    e3a6:	ba 02 00 00 00       	mov    $0x2,%edx
    e3ab:	64 8b 34 25 48 00 00 	mov    %fs:0x48,%esi
    e3b2:	00 
    e3b3:	39 d0                	cmp    %edx,%eax
    e3b5:	75 07                	jne    e3be <__lll_lock_wait_private+0x1e>
    e3b7:	b8 ca 00 00 00       	mov    $0xca,%eax
    e3bc:	0f 05                	syscall 
    e3be:	89 d0                	mov    %edx,%eax
    e3c0:	87 07                	xchg   %eax,(%rdi)
    e3c2:	85 c0                	test   %eax,%eax
    e3c4:	75 f1                	jne    e3b7 <__lll_lock_wait_private+0x17>
    e3c6:	5a                   	pop    %rdx
    e3c7:	41 5a                	pop    %r10
    e3c9:	c3                   	retq   
    e3ca:	66 0f 1f 44 00 00    	nopw   0x0(%rax,%rax,1)

000000000000e3d0 <__lll_lock_wait>:
    e3d0:	41 52                	push   %r10
    e3d2:	52                   	push   %rdx
    e3d3:	4d 31 d2             	xor    %r10,%r10
    e3d6:	ba 02 00 00 00       	mov    $0x2,%edx
    e3db:	81 f6 80 00 00 00    	xor    $0x80,%esi
    e3e1:	64 23 34 25 48 00 00 	and    %fs:0x48,%esi
    e3e8:	00 
    e3e9:	39 d0                	cmp    %edx,%eax
    e3eb:	75 07                	jne    e3f4 <__lll_lock_wait+0x24>
    e3ed:	b8 ca 00 00 00       	mov    $0xca,%eax
    e3f2:	0f 05                	syscall 
    e3f4:	89 d0                	mov    %edx,%eax
    e3f6:	87 07                	xchg   %eax,(%rdi)
    e3f8:	85 c0                	test   %eax,%eax
    e3fa:	75 f1                	jne    e3ed <__lll_lock_wait+0x1d>
    e3fc:	5a                   	pop    %rdx
    e3fd:	41 5a                	pop    %r10
    e3ff:	c3                   	retq   

000000000000e400 <__lll_timedlock_wait>:
    e400:	83 3d 41 df 20 00 00 	cmpl   $0x0,0x20df41(%rip)        # 21c348 <__have_futex_clock_realtime>
    e407:	74 59                	je     e462 <__lll_timedlock_wait+0x62>
    e409:	48 83 3a 00          	cmpq   $0x0,(%rdx)
    e40d:	78 4d                	js     e45c <__lll_timedlock_wait+0x5c>
    e40f:	41 51                	push   %r9
    e411:	49 89 d2             	mov    %rdx,%r10
    e414:	41 b9 ff ff ff ff    	mov    $0xffffffff,%r9d
    e41a:	81 f6 80 00 00 00    	xor    $0x80,%esi
    e420:	64 23 34 25 48 00 00 	and    %fs:0x48,%esi
    e427:	00 
    e428:	81 ce 09 01 00 00    	or     $0x109,%esi
    e42e:	ba 02 00 00 00       	mov    $0x2,%edx
    e433:	39 d0                	cmp    %edx,%eax
    e435:	75 0c                	jne    e443 <__lll_timedlock_wait+0x43>
    e437:	b8 ca 00 00 00       	mov    $0xca,%eax
    e43c:	ba 02 00 00 00       	mov    $0x2,%edx
    e441:	0f 05                	syscall 
    e443:	87 17                	xchg   %edx,(%rdi)
    e445:	85 d2                	test   %edx,%edx
    e447:	74 0e                	je     e457 <__lll_timedlock_wait+0x57>
    e449:	83 f8 92             	cmp    $0xffffff92,%eax
    e44c:	74 05                	je     e453 <__lll_timedlock_wait+0x53>
    e44e:	83 f8 ea             	cmp    $0xffffffea,%eax
    e451:	75 e4                	jne    e437 <__lll_timedlock_wait+0x37>
    e453:	89 c2                	mov    %eax,%edx
    e455:	f7 da                	neg    %edx
    e457:	89 d0                	mov    %edx,%eax
    e459:	41 59                	pop    %r9
    e45b:	c3                   	retq   
    e45c:	b8 6e 00 00 00       	mov    $0x6e,%eax
    e461:	c3                   	retq   
    e462:	48 81 7a 08 00 ca 9a 	cmpq   $0x3b9aca00,0x8(%rdx)
    e469:	3b 
    e46a:	0f 83 ae 00 00 00    	jae    e51e <__lll_timedlock_wait+0x11e>
    e470:	41 50                	push   %r8
    e472:	41 51                	push   %r9
    e474:	41 54                	push   %r12
    e476:	41 55                	push   %r13
    e478:	41 56                	push   %r14
    e47a:	56                   	push   %rsi
    e47b:	48 83 ec 18          	sub    $0x18,%rsp
    e47f:	49 89 fc             	mov    %rdi,%r12
    e482:	49 89 d5             	mov    %rdx,%r13
    e485:	ba 02 00 00 00       	mov    $0x2,%edx
    e48a:	41 87 14 24          	xchg   %edx,(%r12)
    e48e:	85 d2                	test   %edx,%edx
    e490:	74 7b                	je     e50d <__lll_timedlock_wait+0x10d>
    e492:	48 89 e7             	mov    %rsp,%rdi
    e495:	31 f6                	xor    %esi,%esi
    e497:	e8 34 6f ff ff       	callq  53d0 <__gettimeofday@plt>
    e49c:	48 8b 44 24 08       	mov    0x8(%rsp),%rax
    e4a1:	bf e8 03 00 00       	mov    $0x3e8,%edi
    e4a6:	48 f7 e7             	mul    %rdi
    e4a9:	49 8b 7d 00          	mov    0x0(%r13),%rdi
    e4ad:	49 8b 75 08          	mov    0x8(%r13),%rsi
    e4b1:	48 2b 3c 24          	sub    (%rsp),%rdi
    e4b5:	48 29 c6             	sub    %rax,%rsi
    e4b8:	79 0a                	jns    e4c4 <__lll_timedlock_wait+0xc4>
    e4ba:	48 81 c6 00 ca 9a 3b 	add    $0x3b9aca00,%rsi
    e4c1:	48 ff cf             	dec    %rdi
    e4c4:	48 85 ff             	test   %rdi,%rdi
    e4c7:	78 3f                	js     e508 <__lll_timedlock_wait+0x108>
    e4c9:	48 89 3c 24          	mov    %rdi,(%rsp)
    e4cd:	48 89 74 24 08       	mov    %rsi,0x8(%rsp)
    e4d2:	ba 02 00 00 00       	mov    $0x2,%edx
    e4d7:	b8 01 00 00 00       	mov    $0x1,%eax
    e4dc:	49 89 e2             	mov    %rsp,%r10
    e4df:	8b 74 24 18          	mov    0x18(%rsp),%esi
    e4e3:	81 f6 80 00 00 00    	xor    $0x80,%esi
    e4e9:	64 23 34 25 48 00 00 	and    %fs:0x48,%esi
    e4f0:	00 
    e4f1:	4c 89 e7             	mov    %r12,%rdi
    e4f4:	b8 ca 00 00 00       	mov    $0xca,%eax
    e4f9:	0f 05                	syscall 
    e4fb:	41 87 14 24          	xchg   %edx,(%r12)
    e4ff:	85 d2                	test   %edx,%edx
    e501:	74 0a                	je     e50d <__lll_timedlock_wait+0x10d>
    e503:	83 f8 92             	cmp    $0xffffff92,%eax
    e506:	75 8a                	jne    e492 <__lll_timedlock_wait+0x92>
    e508:	ba 6e 00 00 00       	mov    $0x6e,%edx
    e50d:	48 83 c4 20          	add    $0x20,%rsp
    e511:	41 5e                	pop    %r14
    e513:	41 5d                	pop    %r13
    e515:	41 5c                	pop    %r12
    e517:	41 59                	pop    %r9
    e519:	41 58                	pop    %r8
    e51b:	89 d0                	mov    %edx,%eax
    e51d:	c3                   	retq   
    e51e:	b8 16 00 00 00       	mov    $0x16,%eax
    e523:	c3                   	retq   
    e524:	66 66 66 2e 0f 1f 84 	data32 data32 nopw %cs:0x0(%rax,%rax,1)
    e52b:	00 00 00 00 00 

000000000000e530 <__lll_unlock_wake_private>:
    e530:	56                   	push   %rsi
    e531:	52                   	push   %rdx
    e532:	c7 07 00 00 00 00    	movl   $0x0,(%rdi)
    e538:	64 8b 34 25 48 00 00 	mov    %fs:0x48,%esi
    e53f:	00 
    e540:	83 ce 01             	or     $0x1,%esi
    e543:	ba 01 00 00 00       	mov    $0x1,%edx
    e548:	b8 ca 00 00 00       	mov    $0xca,%eax
    e54d:	0f 05                	syscall 
    e54f:	5a                   	pop    %rdx
    e550:	5e                   	pop    %rsi
    e551:	c3                   	retq   
    e552:	66 66 66 66 66 2e 0f 	data32 data32 data32 data32 nopw %cs:0x0(%rax,%rax,1)
    e559:	1f 84 00 00 00 00 00 

000000000000e560 <__lll_unlock_wake>:
    e560:	56                   	push   %rsi
    e561:	52                   	push   %rdx
    e562:	c7 07 00 00 00 00    	movl   $0x0,(%rdi)
    e568:	81 f6 80 00 00 00    	xor    $0x80,%esi
    e56e:	64 23 34 25 48 00 00 	and    %fs:0x48,%esi
    e575:	00 
    e576:	83 ce 01             	or     $0x1,%esi
    e579:	ba 01 00 00 00       	mov    $0x1,%edx
    e57e:	b8 ca 00 00 00       	mov    $0xca,%eax
    e583:	0f 05                	syscall 
    e585:	5a                   	pop    %rdx
    e586:	5e                   	pop    %rsi
    e587:	c3                   	retq   
    e588:	0f 1f 84 00 00 00 00 	nopl   0x0(%rax,%rax,1)
    e58f:	00 

000000000000e590 <__lll_timedwait_tid>:
    e590:	41 54                	push   %r12
    e592:	41 55                	push   %r13
    e594:	49 89 fc             	mov    %rdi,%r12
    e597:	49 89 f5             	mov    %rsi,%r13
    e59a:	48 83 ec 10          	sub    $0x10,%rsp
    e59e:	48 89 e7             	mov    %rsp,%rdi
    e5a1:	31 f6                	xor    %esi,%esi
    e5a3:	e8 28 6e ff ff       	callq  53d0 <__gettimeofday@plt>
    e5a8:	48 8b 44 24 08       	mov    0x8(%rsp),%rax
    e5ad:	bf e8 03 00 00       	mov    $0x3e8,%edi
    e5b2:	48 f7 e7             	mul    %rdi
    e5b5:	49 8b 7d 00          	mov    0x0(%r13),%rdi
    e5b9:	49 8b 75 08          	mov    0x8(%r13),%rsi
    e5bd:	48 2b 3c 24          	sub    (%rsp),%rdi
    e5c1:	48 29 c6             	sub    %rax,%rsi
    e5c4:	79 0a                	jns    e5d0 <__lll_timedwait_tid+0x40>
    e5c6:	48 81 c6 00 ca 9a 3b 	add    $0x3b9aca00,%rsi
    e5cd:	48 ff cf             	dec    %rdi
    e5d0:	48 85 ff             	test   %rdi,%rdi
    e5d3:	78 36                	js     e60b <__lll_timedwait_tid+0x7b>
    e5d5:	48 89 3c 24          	mov    %rdi,(%rsp)
    e5d9:	48 89 74 24 08       	mov    %rsi,0x8(%rsp)
    e5de:	41 8b 14 24          	mov    (%r12),%edx
    e5e2:	85 d2                	test   %edx,%edx
    e5e4:	74 14                	je     e5fa <__lll_timedwait_tid+0x6a>
    e5e6:	49 89 e2             	mov    %rsp,%r10
    e5e9:	31 f6                	xor    %esi,%esi
    e5eb:	4c 89 e7             	mov    %r12,%rdi
    e5ee:	b8 ca 00 00 00       	mov    $0xca,%eax
    e5f3:	0f 05                	syscall 
    e5f5:	83 3f 00             	cmpl   $0x0,(%rdi)
    e5f8:	75 0b                	jne    e605 <__lll_timedwait_tid+0x75>
    e5fa:	31 c0                	xor    %eax,%eax
    e5fc:	48 83 c4 10          	add    $0x10,%rsp
    e600:	41 5d                	pop    %r13
    e602:	41 5c                	pop    %r12
    e604:	c3                   	retq   
    e605:	48 83 f8 92          	cmp    $0xffffffffffffff92,%rax
    e609:	75 93                	jne    e59e <__lll_timedwait_tid+0xe>
    e60b:	b8 6e 00 00 00       	mov    $0x6e,%eax
    e610:	eb ea                	jmp    e5fc <__lll_timedwait_tid+0x6c>
    e612:	90                   	nop
    e613:	90                   	nop
    e614:	90                   	nop
    e615:	90                   	nop
    e616:	90                   	nop
    e617:	90                   	nop
    e618:	90                   	nop
    e619:	90                   	nop
    e61a:	90                   	nop
    e61b:	90                   	nop
    e61c:	90                   	nop
    e61d:	90                   	nop
    e61e:	90                   	nop
    e61f:	90                   	nop

000000000000e620 <__lll_robust_lock_wait>:
    e620:	41 52                	push   %r10
    e622:	52                   	push   %rdx
    e623:	4d 31 d2             	xor    %r10,%r10
    e626:	81 f6 80 00 00 00    	xor    $0x80,%esi
    e62c:	64 23 34 25 48 00 00 	and    %fs:0x48,%esi
    e633:	00 
    e634:	89 c2                	mov    %eax,%edx
    e636:	81 ca 00 00 00 80    	or     $0x80000000,%edx
    e63c:	a9 00 00 00 40       	test   $0x40000000,%eax
    e641:	75 2b                	jne    e66e <__lll_robust_lock_wait+0x4e>
    e643:	39 d0                	cmp    %edx,%eax
    e645:	74 06                	je     e64d <__lll_robust_lock_wait+0x2d>
    e647:	f0 0f b1 17          	lock cmpxchg %edx,(%rdi)
    e64b:	75 09                	jne    e656 <__lll_robust_lock_wait+0x36>
    e64d:	b8 ca 00 00 00       	mov    $0xca,%eax
    e652:	0f 05                	syscall 
    e654:	8b 07                	mov    (%rdi),%eax
    e656:	85 c0                	test   %eax,%eax
    e658:	75 da                	jne    e634 <__lll_robust_lock_wait+0x14>
    e65a:	64 8b 14 25 d0 02 00 	mov    %fs:0x2d0,%edx
    e661:	00 
    e662:	81 ca 00 00 00 80    	or     $0x80000000,%edx
    e668:	f0 0f b1 17          	lock cmpxchg %edx,(%rdi)
    e66c:	75 c6                	jne    e634 <__lll_robust_lock_wait+0x14>
    e66e:	5a                   	pop    %rdx
    e66f:	41 5a                	pop    %r10
    e671:	c3                   	retq   
    e672:	66 66 66 66 66 2e 0f 	data32 data32 data32 data32 nopw %cs:0x0(%rax,%rax,1)
    e679:	1f 84 00 00 00 00 00 

000000000000e680 <__lll_robust_timedlock_wait>:
    e680:	83 3d c1 dc 20 00 00 	cmpl   $0x0,0x20dcc1(%rip)        # 21c348 <__have_futex_clock_realtime>
    e687:	0f 84 81 00 00 00    	je     e70e <__lll_robust_timedlock_wait+0x8e>
    e68d:	48 83 3a 00          	cmpq   $0x0,(%rdx)
    e691:	78 75                	js     e708 <__lll_robust_timedlock_wait+0x88>
    e693:	41 51                	push   %r9
    e695:	49 89 d2             	mov    %rdx,%r10
    e698:	41 b9 ff ff ff ff    	mov    $0xffffffff,%r9d
    e69e:	81 f6 80 00 00 00    	xor    $0x80,%esi
    e6a4:	64 23 34 25 48 00 00 	and    %fs:0x48,%esi
    e6ab:	00 
    e6ac:	81 ce 09 01 00 00    	or     $0x109,%esi
    e6b2:	a9 00 00 00 40       	test   $0x40000000,%eax
    e6b7:	75 3c                	jne    e6f5 <__lll_robust_timedlock_wait+0x75>
    e6b9:	89 c2                	mov    %eax,%edx
    e6bb:	81 ca 00 00 00 80    	or     $0x80000000,%edx
    e6c1:	39 c2                	cmp    %eax,%edx
    e6c3:	74 0d                	je     e6d2 <__lll_robust_timedlock_wait+0x52>
    e6c5:	f0 0f b1 17          	lock cmpxchg %edx,(%rdi)
    e6c9:	48 c7 c1 00 00 00 00 	mov    $0x0,%rcx
    e6d0:	75 0b                	jne    e6dd <__lll_robust_timedlock_wait+0x5d>
    e6d2:	b8 ca 00 00 00       	mov    $0xca,%eax
    e6d7:	0f 05                	syscall 
    e6d9:	89 c1                	mov    %eax,%ecx
    e6db:	8b 07                	mov    (%rdi),%eax
    e6dd:	85 c0                	test   %eax,%eax
    e6df:	75 17                	jne    e6f8 <__lll_robust_timedlock_wait+0x78>
    e6e1:	64 8b 14 25 d0 02 00 	mov    %fs:0x2d0,%edx
    e6e8:	00 
    e6e9:	81 ca 00 00 00 80    	or     $0x80000000,%edx
    e6ef:	f0 0f b1 17          	lock cmpxchg %edx,(%rdi)
    e6f3:	75 03                	jne    e6f8 <__lll_robust_timedlock_wait+0x78>
    e6f5:	41 59                	pop    %r9
    e6f7:	c3                   	retq   
    e6f8:	83 f9 92             	cmp    $0xffffff92,%ecx
    e6fb:	74 05                	je     e702 <__lll_robust_timedlock_wait+0x82>
    e6fd:	83 f9 ea             	cmp    $0xffffffea,%ecx
    e700:	75 b0                	jne    e6b2 <__lll_robust_timedlock_wait+0x32>
    e702:	89 c8                	mov    %ecx,%eax
    e704:	f7 d8                	neg    %eax
    e706:	eb ed                	jmp    e6f5 <__lll_robust_timedlock_wait+0x75>
    e708:	b8 6e 00 00 00       	mov    $0x6e,%eax
    e70d:	c3                   	retq   
    e70e:	48 81 7a 08 00 ca 9a 	cmpq   $0x3b9aca00,0x8(%rdx)
    e715:	3b 
    e716:	0f 83 d0 00 00 00    	jae    e7ec <__lll_robust_timedlock_wait+0x16c>
    e71c:	41 50                	push   %r8
    e71e:	41 51                	push   %r9
    e720:	41 54                	push   %r12
    e722:	41 55                	push   %r13
    e724:	56                   	push   %rsi
    e725:	48 83 ec 20          	sub    $0x20,%rsp
    e729:	49 89 fc             	mov    %rdi,%r12
    e72c:	49 89 d5             	mov    %rdx,%r13
    e72f:	48 89 44 24 10       	mov    %rax,0x10(%rsp)
    e734:	48 89 e7             	mov    %rsp,%rdi
    e737:	31 f6                	xor    %esi,%esi
    e739:	e8 92 6c ff ff       	callq  53d0 <__gettimeofday@plt>
    e73e:	48 8b 44 24 08       	mov    0x8(%rsp),%rax
    e743:	bf e8 03 00 00       	mov    $0x3e8,%edi
    e748:	48 f7 e7             	mul    %rdi
    e74b:	49 8b 7d 00          	mov    0x0(%r13),%rdi
    e74f:	49 8b 75 08          	mov    0x8(%r13),%rsi
    e753:	48 2b 3c 24          	sub    (%rsp),%rdi
    e757:	48 29 c6             	sub    %rax,%rsi
    e75a:	79 0a                	jns    e766 <__lll_robust_timedlock_wait+0xe6>
    e75c:	48 81 c6 00 ca 9a 3b 	add    $0x3b9aca00,%rsi
    e763:	48 ff cf             	dec    %rdi
    e766:	48 85 ff             	test   %rdi,%rdi
    e769:	0f 88 8c 00 00 00    	js     e7fb <__lll_robust_timedlock_wait+0x17b>
    e76f:	48 89 3c 24          	mov    %rdi,(%rsp)
    e773:	48 89 74 24 08       	mov    %rsi,0x8(%rsp)
    e778:	48 8b 54 24 10       	mov    0x10(%rsp),%rdx
    e77d:	89 d0                	mov    %edx,%eax
    e77f:	81 ca 00 00 00 80    	or     $0x80000000,%edx
    e785:	a9 00 00 00 40       	test   $0x40000000,%eax
    e78a:	75 53                	jne    e7df <__lll_robust_timedlock_wait+0x15f>
    e78c:	39 c2                	cmp    %eax,%edx
    e78e:	74 0f                	je     e79f <__lll_robust_timedlock_wait+0x11f>
    e790:	f0 41 0f b1 14 24    	lock cmpxchg %edx,(%r12)
    e796:	48 c7 c1 00 00 00 00 	mov    $0x0,%rcx
    e79d:	75 26                	jne    e7c5 <__lll_robust_timedlock_wait+0x145>
    e79f:	49 89 e2             	mov    %rsp,%r10
    e7a2:	8b 74 24 20          	mov    0x20(%rsp),%esi
    e7a6:	81 f6 80 00 00 00    	xor    $0x80,%esi
    e7ac:	64 23 34 25 48 00 00 	and    %fs:0x48,%esi
    e7b3:	00 
    e7b4:	4c 89 e7             	mov    %r12,%rdi
    e7b7:	b8 ca 00 00 00       	mov    $0xca,%eax
    e7bc:	0f 05                	syscall 
    e7be:	48 89 c1             	mov    %rax,%rcx
    e7c1:	41 8b 04 24          	mov    (%r12),%eax
    e7c5:	85 c0                	test   %eax,%eax
    e7c7:	75 29                	jne    e7f2 <__lll_robust_timedlock_wait+0x172>
    e7c9:	64 8b 14 25 d0 02 00 	mov    %fs:0x2d0,%edx
    e7d0:	00 
    e7d1:	81 ca 00 00 00 80    	or     $0x80000000,%edx
    e7d7:	f0 41 0f b1 14 24    	lock cmpxchg %edx,(%r12)
    e7dd:	75 13                	jne    e7f2 <__lll_robust_timedlock_wait+0x172>
    e7df:	48 83 c4 28          	add    $0x28,%rsp
    e7e3:	41 5d                	pop    %r13
    e7e5:	41 5c                	pop    %r12
    e7e7:	41 59                	pop    %r9
    e7e9:	41 58                	pop    %r8
    e7eb:	c3                   	retq   
    e7ec:	b8 16 00 00 00       	mov    $0x16,%eax
    e7f1:	c3                   	retq   
    e7f2:	83 f9 92             	cmp    $0xffffff92,%ecx
    e7f5:	0f 85 34 ff ff ff    	jne    e72f <__lll_robust_timedlock_wait+0xaf>
    e7fb:	b8 6e 00 00 00       	mov    $0x6e,%eax
    e800:	eb dd                	jmp    e7df <__lll_robust_timedlock_wait+0x15f>
    e802:	90                   	nop
    e803:	90                   	nop
    e804:	90                   	nop
    e805:	90                   	nop
    e806:	90                   	nop
    e807:	90                   	nop
    e808:	90                   	nop
    e809:	90                   	nop
    e80a:	90                   	nop
    e80b:	90                   	nop
    e80c:	90                   	nop
    e80d:	90                   	nop
    e80e:	90                   	nop
    e80f:	90                   	nop

000000000000e810 <__vfork>:
    e810:	5f                   	pop    %rdi
    e811:	64 8b 34 25 d4 02 00 	mov    %fs:0x2d4,%esi
    e818:	00 
    e819:	89 f2                	mov    %esi,%edx
    e81b:	f7 da                	neg    %edx
    e81d:	64 89 14 25 d4 02 00 	mov    %edx,%fs:0x2d4
    e824:	00 
    e825:	b8 3a 00 00 00       	mov    $0x3a,%eax
    e82a:	0f 05                	syscall 
    e82c:	57                   	push   %rdi
    e82d:	48 85 c0             	test   %rax,%rax
    e830:	74 08                	je     e83a <__vfork+0x2a>
    e832:	64 89 34 25 d4 02 00 	mov    %esi,%fs:0x2d4
    e839:	00 
    e83a:	3d 01 f0 ff ff       	cmp    $0xfffff001,%eax
    e83f:	73 01                	jae    e842 <__vfork+0x32>
    e841:	c3                   	retq   
    e842:	48 8b 0d 37 97 20 00 	mov    0x209737(%rip),%rcx        # 217f80 <_DYNAMIC+0x1f0>
    e849:	f7 d8                	neg    %eax
    e84b:	64 89 01             	mov    %eax,%fs:(%rcx)
    e84e:	48 83 c8 ff          	or     $0xffffffffffffffff,%rax
    e852:	c3                   	retq   
    e853:	90                   	nop
    e854:	90                   	nop
    e855:	90                   	nop
    e856:	90                   	nop
    e857:	90                   	nop
    e858:	90                   	nop
    e859:	90                   	nop
    e85a:	90                   	nop
    e85b:	90                   	nop
    e85c:	90                   	nop
    e85d:	90                   	nop
    e85e:	90                   	nop
    e85f:	90                   	nop

000000000000e860 <__write>:
    e860:	83 3d f1 da 20 00 00 	cmpl   $0x0,0x20daf1(%rip)        # 21c358 <__pthread_multiple_threads>
    e867:	75 10                	jne    e879 <__write_nocancel+0x10>

000000000000e869 <__write_nocancel>:
    e869:	b8 01 00 00 00       	mov    $0x1,%eax
    e86e:	0f 05                	syscall 
    e870:	48 3d 01 f0 ff ff    	cmp    $0xfffffffffffff001,%rax
    e876:	73 31                	jae    e8a9 <__write_nocancel+0x40>
    e878:	c3                   	retq   
    e879:	48 83 ec 08          	sub    $0x8,%rsp
    e87d:	e8 5e fa ff ff       	callq  e2e0 <__pthread_enable_asynccancel>
    e882:	48 89 04 24          	mov    %rax,(%rsp)
    e886:	b8 01 00 00 00       	mov    $0x1,%eax
    e88b:	0f 05                	syscall 
    e88d:	48 8b 3c 24          	mov    (%rsp),%rdi
    e891:	48 89 c2             	mov    %rax,%rdx
    e894:	e8 a7 fa ff ff       	callq  e340 <__pthread_disable_asynccancel>
    e899:	48 89 d0             	mov    %rdx,%rax
    e89c:	48 83 c4 08          	add    $0x8,%rsp
    e8a0:	48 3d 01 f0 ff ff    	cmp    $0xfffffffffffff001,%rax
    e8a6:	73 01                	jae    e8a9 <__write_nocancel+0x40>
    e8a8:	c3                   	retq   
    e8a9:	48 8b 0d d0 96 20 00 	mov    0x2096d0(%rip),%rcx        # 217f80 <_DYNAMIC+0x1f0>
    e8b0:	f7 d8                	neg    %eax
    e8b2:	64 89 01             	mov    %eax,%fs:(%rcx)
    e8b5:	48 83 c8 ff          	or     $0xffffffffffffffff,%rax
    e8b9:	c3                   	retq   
    e8ba:	90                   	nop
    e8bb:	90                   	nop
    e8bc:	90                   	nop
    e8bd:	90                   	nop
    e8be:	90                   	nop
    e8bf:	90                   	nop

000000000000e8c0 <__read>:
    e8c0:	83 3d 91 da 20 00 00 	cmpl   $0x0,0x20da91(%rip)        # 21c358 <__pthread_multiple_threads>
    e8c7:	75 10                	jne    e8d9 <__read_nocancel+0x10>

000000000000e8c9 <__read_nocancel>:
    e8c9:	b8 00 00 00 00       	mov    $0x0,%eax
    e8ce:	0f 05                	syscall 
    e8d0:	48 3d 01 f0 ff ff    	cmp    $0xfffffffffffff001,%rax
    e8d6:	73 31                	jae    e909 <__read_nocancel+0x40>
    e8d8:	c3                   	retq   
    e8d9:	48 83 ec 08          	sub    $0x8,%rsp
    e8dd:	e8 fe f9 ff ff       	callq  e2e0 <__pthread_enable_asynccancel>
    e8e2:	48 89 04 24          	mov    %rax,(%rsp)
    e8e6:	b8 00 00 00 00       	mov    $0x0,%eax
    e8eb:	0f 05                	syscall 
    e8ed:	48 8b 3c 24          	mov    (%rsp),%rdi
    e8f1:	48 89 c2             	mov    %rax,%rdx
    e8f4:	e8 47 fa ff ff       	callq  e340 <__pthread_disable_asynccancel>
    e8f9:	48 89 d0             	mov    %rdx,%rax
    e8fc:	48 83 c4 08          	add    $0x8,%rsp
    e900:	48 3d 01 f0 ff ff    	cmp    $0xfffffffffffff001,%rax
    e906:	73 01                	jae    e909 <__read_nocancel+0x40>
    e908:	c3                   	retq   
    e909:	48 8b 0d 70 96 20 00 	mov    0x209670(%rip),%rcx        # 217f80 <_DYNAMIC+0x1f0>
    e910:	f7 d8                	neg    %eax
    e912:	64 89 01             	mov    %eax,%fs:(%rcx)
    e915:	48 83 c8 ff          	or     $0xffffffffffffffff,%rax
    e919:	c3                   	retq   
    e91a:	90                   	nop
    e91b:	90                   	nop
    e91c:	90                   	nop
    e91d:	90                   	nop
    e91e:	90                   	nop
    e91f:	90                   	nop

000000000000e920 <__close>:
    e920:	83 3d 31 da 20 00 00 	cmpl   $0x0,0x20da31(%rip)        # 21c358 <__pthread_multiple_threads>
    e927:	75 10                	jne    e939 <__close_nocancel+0x10>

000000000000e929 <__close_nocancel>:
    e929:	b8 03 00 00 00       	mov    $0x3,%eax
    e92e:	0f 05                	syscall 
    e930:	48 3d 01 f0 ff ff    	cmp    $0xfffffffffffff001,%rax
    e936:	73 31                	jae    e969 <__close_nocancel+0x40>
    e938:	c3                   	retq   
    e939:	48 83 ec 08          	sub    $0x8,%rsp
    e93d:	e8 9e f9 ff ff       	callq  e2e0 <__pthread_enable_asynccancel>
    e942:	48 89 04 24          	mov    %rax,(%rsp)
    e946:	b8 03 00 00 00       	mov    $0x3,%eax
    e94b:	0f 05                	syscall 
    e94d:	48 8b 3c 24          	mov    (%rsp),%rdi
    e951:	48 89 c2             	mov    %rax,%rdx
    e954:	e8 e7 f9 ff ff       	callq  e340 <__pthread_disable_asynccancel>
    e959:	48 89 d0             	mov    %rdx,%rax
    e95c:	48 83 c4 08          	add    $0x8,%rsp
    e960:	48 3d 01 f0 ff ff    	cmp    $0xfffffffffffff001,%rax
    e966:	73 01                	jae    e969 <__close_nocancel+0x40>
    e968:	c3                   	retq   
    e969:	48 8b 0d 10 96 20 00 	mov    0x209610(%rip),%rcx        # 217f80 <_DYNAMIC+0x1f0>
    e970:	f7 d8                	neg    %eax
    e972:	64 89 01             	mov    %eax,%fs:(%rcx)
    e975:	48 83 c8 ff          	or     $0xffffffffffffffff,%rax
    e979:	c3                   	retq   
    e97a:	90                   	nop
    e97b:	90                   	nop
    e97c:	90                   	nop
    e97d:	90                   	nop
    e97e:	90                   	nop
    e97f:	90                   	nop

000000000000e980 <do_fcntl>:
    e980:	55                   	push   %rbp
    e981:	83 fe 09             	cmp    $0x9,%esi
    e984:	49 89 d0             	mov    %rdx,%r8
    e987:	48 89 e5             	mov    %rsp,%rbp
    e98a:	74 24                	je     e9b0 <do_fcntl+0x30>
    e98c:	4c 89 c2             	mov    %r8,%rdx
    e98f:	48 63 f6             	movslq %esi,%rsi
    e992:	48 63 ff             	movslq %edi,%rdi
    e995:	b8 48 00 00 00       	mov    $0x48,%eax
    e99a:	0f 05                	syscall 
    e99c:	48 3d 00 f0 ff ff    	cmp    $0xfffffffffffff000,%rax
    e9a2:	77 75                	ja     ea19 <do_fcntl+0x99>
    e9a4:	c9                   	leaveq 
    e9a5:	c3                   	retq   
    e9a6:	66 2e 0f 1f 84 00 00 	nopw   %cs:0x0(%rax,%rax,1)
    e9ad:	00 00 00 
    e9b0:	8b 05 42 d9 20 00    	mov    0x20d942(%rip),%eax        # 21c2f8 <miss_F_GETOWN_EX>
    e9b6:	85 c0                	test   %eax,%eax
    e9b8:	75 d2                	jne    e98c <do_fcntl+0xc>
    e9ba:	4c 63 cf             	movslq %edi,%r9
    e9bd:	41 ba 48 00 00 00    	mov    $0x48,%r10d
    e9c3:	48 8d 55 f0          	lea    -0x10(%rbp),%rdx
    e9c7:	be 10 00 00 00       	mov    $0x10,%esi
    e9cc:	4c 89 cf             	mov    %r9,%rdi
    e9cf:	44 89 d0             	mov    %r10d,%eax
    e9d2:	0f 05                	syscall 
    e9d4:	3d 00 f0 ff ff       	cmp    $0xfffff000,%eax
    e9d9:	77 15                	ja     e9f0 <do_fcntl+0x70>
    e9db:	83 7d f0 02          	cmpl   $0x2,-0x10(%rbp)
    e9df:	74 4f                	je     ea30 <do_fcntl+0xb0>
    e9e1:	8b 45 f4             	mov    -0xc(%rbp),%eax
    e9e4:	c9                   	leaveq 
    e9e5:	c3                   	retq   
    e9e6:	66 2e 0f 1f 84 00 00 	nopw   %cs:0x0(%rax,%rax,1)
    e9ed:	00 00 00 
    e9f0:	83 f8 ea             	cmp    $0xffffffea,%eax
    e9f3:	75 24                	jne    ea19 <do_fcntl+0x99>
    e9f5:	4c 89 c2             	mov    %r8,%rdx
    e9f8:	be 09 00 00 00       	mov    $0x9,%esi
    e9fd:	4c 89 cf             	mov    %r9,%rdi
    ea00:	44 89 d0             	mov    %r10d,%eax
    ea03:	0f 05                	syscall 
    ea05:	48 3d 00 f0 ff ff    	cmp    $0xfffffffffffff000,%rax
    ea0b:	77 2a                	ja     ea37 <do_fcntl+0xb7>
    ea0d:	c7 05 e1 d8 20 00 01 	movl   $0x1,0x20d8e1(%rip)        # 21c2f8 <miss_F_GETOWN_EX>
    ea14:	00 00 00 
    ea17:	c9                   	leaveq 
    ea18:	c3                   	retq   
    ea19:	48 8b 15 60 95 20 00 	mov    0x209560(%rip),%rdx        # 217f80 <_DYNAMIC+0x1f0>
    ea20:	f7 d8                	neg    %eax
    ea22:	64 89 02             	mov    %eax,%fs:(%rdx)
    ea25:	b8 ff ff ff ff       	mov    $0xffffffff,%eax
    ea2a:	c9                   	leaveq 
    ea2b:	c3                   	retq   
    ea2c:	0f 1f 40 00          	nopl   0x0(%rax)
    ea30:	8b 45 f4             	mov    -0xc(%rbp),%eax
    ea33:	c9                   	leaveq 
    ea34:	f7 d8                	neg    %eax
    ea36:	c3                   	retq   
    ea37:	48 8b 15 42 95 20 00 	mov    0x209542(%rip),%rdx        # 217f80 <_DYNAMIC+0x1f0>
    ea3e:	f7 d8                	neg    %eax
    ea40:	64 89 02             	mov    %eax,%fs:(%rdx)
    ea43:	83 c8 ff             	or     $0xffffffff,%eax
    ea46:	eb c5                	jmp    ea0d <do_fcntl+0x8d>
    ea48:	0f 1f 84 00 00 00 00 	nopl   0x0(%rax,%rax,1)
    ea4f:	00 

000000000000ea50 <__fcntl_nocancel>:
    ea50:	55                   	push   %rbp
    ea51:	48 89 e5             	mov    %rsp,%rbp
    ea54:	48 83 ec 50          	sub    $0x50,%rsp
    ea58:	48 8d 45 10          	lea    0x10(%rbp),%rax
    ea5c:	48 89 55 e0          	mov    %rdx,-0x20(%rbp)
    ea60:	c7 45 b0 18 00 00 00 	movl   $0x18,-0x50(%rbp)
    ea67:	48 89 45 b8          	mov    %rax,-0x48(%rbp)
    ea6b:	48 8d 45 d0          	lea    -0x30(%rbp),%rax
    ea6f:	48 89 45 c0          	mov    %rax,-0x40(%rbp)
    ea73:	e8 08 ff ff ff       	callq  e980 <do_fcntl>
    ea78:	c9                   	leaveq 
    ea79:	c3                   	retq   
    ea7a:	66 0f 1f 44 00 00    	nopw   0x0(%rax,%rax,1)

000000000000ea80 <__fcntl>:
    ea80:	55                   	push   %rbp
    ea81:	48 89 e5             	mov    %rsp,%rbp
    ea84:	41 54                	push   %r12
    ea86:	49 89 d4             	mov    %rdx,%r12
    ea89:	48 8d 45 10          	lea    0x10(%rbp),%rax
    ea8d:	53                   	push   %rbx
    ea8e:	48 83 ec 60          	sub    $0x60,%rsp
    ea92:	48 89 45 a8          	mov    %rax,-0x58(%rbp)
    ea96:	48 8d 45 c0          	lea    -0x40(%rbp),%rax
    ea9a:	83 fe 07             	cmp    $0x7,%esi
    ea9d:	48 89 55 d0          	mov    %rdx,-0x30(%rbp)
    eaa1:	c7 45 a0 18 00 00 00 	movl   $0x18,-0x60(%rbp)
    eaa8:	48 89 45 b0          	mov    %rax,-0x50(%rbp)
    eaac:	75 42                	jne    eaf0 <__fcntl+0x70>
    eaae:	8b 15 a4 d8 20 00    	mov    0x20d8a4(%rip),%edx        # 21c358 <__pthread_multiple_threads>
    eab4:	85 d2                	test   %edx,%edx
    eab6:	74 38                	je     eaf0 <__fcntl+0x70>
    eab8:	89 7d 98             	mov    %edi,-0x68(%rbp)
    eabb:	e8 20 f8 ff ff       	callq  e2e0 <__pthread_enable_asynccancel>
    eac0:	8b 7d 98             	mov    -0x68(%rbp),%edi
    eac3:	89 c3                	mov    %eax,%ebx
    eac5:	4c 89 e2             	mov    %r12,%rdx
    eac8:	be 07 00 00 00       	mov    $0x7,%esi
    eacd:	e8 ae fe ff ff       	callq  e980 <do_fcntl>
    ead2:	89 df                	mov    %ebx,%edi
    ead4:	89 45 98             	mov    %eax,-0x68(%rbp)
    ead7:	e8 64 f8 ff ff       	callq  e340 <__pthread_disable_asynccancel>
    eadc:	8b 45 98             	mov    -0x68(%rbp),%eax
    eadf:	48 83 c4 60          	add    $0x60,%rsp
    eae3:	5b                   	pop    %rbx
    eae4:	41 5c                	pop    %r12
    eae6:	c9                   	leaveq 
    eae7:	c3                   	retq   
    eae8:	0f 1f 84 00 00 00 00 	nopl   0x0(%rax,%rax,1)
    eaef:	00 
    eaf0:	4c 89 e2             	mov    %r12,%rdx
    eaf3:	e8 88 fe ff ff       	callq  e980 <do_fcntl>
    eaf8:	48 83 c4 60          	add    $0x60,%rsp
    eafc:	5b                   	pop    %rbx
    eafd:	41 5c                	pop    %r12
    eaff:	c9                   	leaveq 
    eb00:	c3                   	retq   
    eb01:	90                   	nop
    eb02:	90                   	nop
    eb03:	90                   	nop
    eb04:	90                   	nop
    eb05:	90                   	nop
    eb06:	90                   	nop
    eb07:	90                   	nop
    eb08:	90                   	nop
    eb09:	90                   	nop
    eb0a:	90                   	nop
    eb0b:	90                   	nop
    eb0c:	90                   	nop
    eb0d:	90                   	nop
    eb0e:	90                   	nop
    eb0f:	90                   	nop

000000000000eb10 <accept>:
    eb10:	83 3d 41 d8 20 00 00 	cmpl   $0x0,0x20d841(%rip)        # 21c358 <__pthread_multiple_threads>
    eb17:	75 10                	jne    eb29 <__accept_nocancel+0x10>

000000000000eb19 <__accept_nocancel>:
    eb19:	b8 2b 00 00 00       	mov    $0x2b,%eax
    eb1e:	0f 05                	syscall 
    eb20:	48 3d 01 f0 ff ff    	cmp    $0xfffffffffffff001,%rax
    eb26:	73 31                	jae    eb59 <__accept_nocancel+0x40>
    eb28:	c3                   	retq   
    eb29:	48 83 ec 08          	sub    $0x8,%rsp
    eb2d:	e8 ae f7 ff ff       	callq  e2e0 <__pthread_enable_asynccancel>
    eb32:	48 89 04 24          	mov    %rax,(%rsp)
    eb36:	b8 2b 00 00 00       	mov    $0x2b,%eax
    eb3b:	0f 05                	syscall 
    eb3d:	48 8b 3c 24          	mov    (%rsp),%rdi
    eb41:	48 89 c2             	mov    %rax,%rdx
    eb44:	e8 f7 f7 ff ff       	callq  e340 <__pthread_disable_asynccancel>
    eb49:	48 89 d0             	mov    %rdx,%rax
    eb4c:	48 83 c4 08          	add    $0x8,%rsp
    eb50:	48 3d 01 f0 ff ff    	cmp    $0xfffffffffffff001,%rax
    eb56:	73 01                	jae    eb59 <__accept_nocancel+0x40>
    eb58:	c3                   	retq   
    eb59:	48 8b 0d 20 94 20 00 	mov    0x209420(%rip),%rcx        # 217f80 <_DYNAMIC+0x1f0>
    eb60:	f7 d8                	neg    %eax
    eb62:	64 89 01             	mov    %eax,%fs:(%rcx)
    eb65:	48 83 c8 ff          	or     $0xffffffffffffffff,%rax
    eb69:	c3                   	retq   
    eb6a:	90                   	nop
    eb6b:	90                   	nop
    eb6c:	90                   	nop
    eb6d:	90                   	nop
    eb6e:	90                   	nop
    eb6f:	90                   	nop

000000000000eb70 <__connect>:
    eb70:	83 3d e1 d7 20 00 00 	cmpl   $0x0,0x20d7e1(%rip)        # 21c358 <__pthread_multiple_threads>
    eb77:	75 10                	jne    eb89 <__connect_nocancel+0x10>

000000000000eb79 <__connect_nocancel>:
    eb79:	b8 2a 00 00 00       	mov    $0x2a,%eax
    eb7e:	0f 05                	syscall 
    eb80:	48 3d 01 f0 ff ff    	cmp    $0xfffffffffffff001,%rax
    eb86:	73 31                	jae    ebb9 <__connect_nocancel+0x40>
    eb88:	c3                   	retq   
    eb89:	48 83 ec 08          	sub    $0x8,%rsp
    eb8d:	e8 4e f7 ff ff       	callq  e2e0 <__pthread_enable_asynccancel>
    eb92:	48 89 04 24          	mov    %rax,(%rsp)
    eb96:	b8 2a 00 00 00       	mov    $0x2a,%eax
    eb9b:	0f 05                	syscall 
    eb9d:	48 8b 3c 24          	mov    (%rsp),%rdi
    eba1:	48 89 c2             	mov    %rax,%rdx
    eba4:	e8 97 f7 ff ff       	callq  e340 <__pthread_disable_asynccancel>
    eba9:	48 89 d0             	mov    %rdx,%rax
    ebac:	48 83 c4 08          	add    $0x8,%rsp
    ebb0:	48 3d 01 f0 ff ff    	cmp    $0xfffffffffffff001,%rax
    ebb6:	73 01                	jae    ebb9 <__connect_nocancel+0x40>
    ebb8:	c3                   	retq   
    ebb9:	48 8b 0d c0 93 20 00 	mov    0x2093c0(%rip),%rcx        # 217f80 <_DYNAMIC+0x1f0>
    ebc0:	f7 d8                	neg    %eax
    ebc2:	64 89 01             	mov    %eax,%fs:(%rcx)
    ebc5:	48 83 c8 ff          	or     $0xffffffffffffffff,%rax
    ebc9:	c3                   	retq   
    ebca:	90                   	nop
    ebcb:	90                   	nop
    ebcc:	90                   	nop
    ebcd:	90                   	nop
    ebce:	90                   	nop
    ebcf:	90                   	nop

000000000000ebd0 <recv>:
    ebd0:	55                   	push   %rbp
    ebd1:	48 89 e5             	mov    %rsp,%rbp
    ebd4:	53                   	push   %rbx
    ebd5:	48 83 ec 28          	sub    $0x28,%rsp
    ebd9:	8b 05 79 d7 20 00    	mov    0x20d779(%rip),%eax        # 21c358 <__pthread_multiple_threads>
    ebdf:	85 c0                	test   %eax,%eax
    ebe1:	75 22                	jne    ec05 <recv+0x35>
    ebe3:	45 31 c9             	xor    %r9d,%r9d
    ebe6:	45 31 c0             	xor    %r8d,%r8d
    ebe9:	4c 63 d1             	movslq %ecx,%r10
    ebec:	48 63 ff             	movslq %edi,%rdi
    ebef:	b8 2d 00 00 00       	mov    $0x2d,%eax
    ebf4:	0f 05                	syscall 
    ebf6:	48 3d 00 f0 ff ff    	cmp    $0xfffffffffffff000,%rax
    ebfc:	77 5a                	ja     ec58 <recv+0x88>
    ebfe:	48 83 c4 28          	add    $0x28,%rsp
    ec02:	5b                   	pop    %rbx
    ec03:	c9                   	leaveq 
    ec04:	c3                   	retq   
    ec05:	48 89 55 d8          	mov    %rdx,-0x28(%rbp)
    ec09:	89 4d d0             	mov    %ecx,-0x30(%rbp)
    ec0c:	48 89 75 e0          	mov    %rsi,-0x20(%rbp)
    ec10:	89 7d e8             	mov    %edi,-0x18(%rbp)
    ec13:	e8 c8 f6 ff ff       	callq  e2e0 <__pthread_enable_asynccancel>
    ec18:	8b 4d d0             	mov    -0x30(%rbp),%ecx
    ec1b:	8b 7d e8             	mov    -0x18(%rbp),%edi
    ec1e:	89 c3                	mov    %eax,%ebx
    ec20:	45 31 c9             	xor    %r9d,%r9d
    ec23:	45 31 c0             	xor    %r8d,%r8d
    ec26:	48 8b 55 d8          	mov    -0x28(%rbp),%rdx
    ec2a:	48 8b 75 e0          	mov    -0x20(%rbp),%rsi
    ec2e:	b8 2d 00 00 00       	mov    $0x2d,%eax
    ec33:	4c 63 d1             	movslq %ecx,%r10
    ec36:	48 63 ff             	movslq %edi,%rdi
    ec39:	0f 05                	syscall 
    ec3b:	48 89 c2             	mov    %rax,%rdx
    ec3e:	48 81 fa 00 f0 ff ff 	cmp    $0xfffffffffffff000,%rdx
    ec45:	77 23                	ja     ec6a <recv+0x9a>
    ec47:	89 df                	mov    %ebx,%edi
    ec49:	48 89 45 e8          	mov    %rax,-0x18(%rbp)
    ec4d:	e8 ee f6 ff ff       	callq  e340 <__pthread_disable_asynccancel>
    ec52:	48 8b 45 e8          	mov    -0x18(%rbp),%rax
    ec56:	eb a6                	jmp    ebfe <recv+0x2e>
    ec58:	48 8b 15 21 93 20 00 	mov    0x209321(%rip),%rdx        # 217f80 <_DYNAMIC+0x1f0>
    ec5f:	f7 d8                	neg    %eax
    ec61:	64 89 02             	mov    %eax,%fs:(%rdx)
    ec64:	48 83 c8 ff          	or     $0xffffffffffffffff,%rax
    ec68:	eb 94                	jmp    ebfe <recv+0x2e>
    ec6a:	48 8b 05 0f 93 20 00 	mov    0x20930f(%rip),%rax        # 217f80 <_DYNAMIC+0x1f0>
    ec71:	f7 da                	neg    %edx
    ec73:	64 89 10             	mov    %edx,%fs:(%rax)
    ec76:	48 83 c8 ff          	or     $0xffffffffffffffff,%rax
    ec7a:	eb cb                	jmp    ec47 <recv+0x77>
    ec7c:	90                   	nop
    ec7d:	90                   	nop
    ec7e:	90                   	nop
    ec7f:	90                   	nop

000000000000ec80 <recvfrom>:
    ec80:	83 3d d1 d6 20 00 00 	cmpl   $0x0,0x20d6d1(%rip)        # 21c358 <__pthread_multiple_threads>
    ec87:	75 13                	jne    ec9c <__recvfrom_nocancel+0x13>

000000000000ec89 <__recvfrom_nocancel>:
    ec89:	49 89 ca             	mov    %rcx,%r10
    ec8c:	b8 2d 00 00 00       	mov    $0x2d,%eax
    ec91:	0f 05                	syscall 
    ec93:	48 3d 01 f0 ff ff    	cmp    $0xfffffffffffff001,%rax
    ec99:	73 34                	jae    eccf <__recvfrom_nocancel+0x46>
    ec9b:	c3                   	retq   
    ec9c:	48 83 ec 08          	sub    $0x8,%rsp
    eca0:	e8 3b f6 ff ff       	callq  e2e0 <__pthread_enable_asynccancel>
    eca5:	48 89 04 24          	mov    %rax,(%rsp)
    eca9:	49 89 ca             	mov    %rcx,%r10
    ecac:	b8 2d 00 00 00       	mov    $0x2d,%eax
    ecb1:	0f 05                	syscall 
    ecb3:	48 8b 3c 24          	mov    (%rsp),%rdi
    ecb7:	48 89 c2             	mov    %rax,%rdx
    ecba:	e8 81 f6 ff ff       	callq  e340 <__pthread_disable_asynccancel>
    ecbf:	48 89 d0             	mov    %rdx,%rax
    ecc2:	48 83 c4 08          	add    $0x8,%rsp
    ecc6:	48 3d 01 f0 ff ff    	cmp    $0xfffffffffffff001,%rax
    eccc:	73 01                	jae    eccf <__recvfrom_nocancel+0x46>
    ecce:	c3                   	retq   
    eccf:	48 8b 0d aa 92 20 00 	mov    0x2092aa(%rip),%rcx        # 217f80 <_DYNAMIC+0x1f0>
    ecd6:	f7 d8                	neg    %eax
    ecd8:	64 89 01             	mov    %eax,%fs:(%rcx)
    ecdb:	48 83 c8 ff          	or     $0xffffffffffffffff,%rax
    ecdf:	c3                   	retq   

000000000000ece0 <recvmsg>:
    ece0:	83 3d 71 d6 20 00 00 	cmpl   $0x0,0x20d671(%rip)        # 21c358 <__pthread_multiple_threads>
    ece7:	75 10                	jne    ecf9 <__recvmsg_nocancel+0x10>

000000000000ece9 <__recvmsg_nocancel>:
    ece9:	b8 2f 00 00 00       	mov    $0x2f,%eax
    ecee:	0f 05                	syscall 
    ecf0:	48 3d 01 f0 ff ff    	cmp    $0xfffffffffffff001,%rax
    ecf6:	73 31                	jae    ed29 <__recvmsg_nocancel+0x40>
    ecf8:	c3                   	retq   
    ecf9:	48 83 ec 08          	sub    $0x8,%rsp
    ecfd:	e8 de f5 ff ff       	callq  e2e0 <__pthread_enable_asynccancel>
    ed02:	48 89 04 24          	mov    %rax,(%rsp)
    ed06:	b8 2f 00 00 00       	mov    $0x2f,%eax
    ed0b:	0f 05                	syscall 
    ed0d:	48 8b 3c 24          	mov    (%rsp),%rdi
    ed11:	48 89 c2             	mov    %rax,%rdx
    ed14:	e8 27 f6 ff ff       	callq  e340 <__pthread_disable_asynccancel>
    ed19:	48 89 d0             	mov    %rdx,%rax
    ed1c:	48 83 c4 08          	add    $0x8,%rsp
    ed20:	48 3d 01 f0 ff ff    	cmp    $0xfffffffffffff001,%rax
    ed26:	73 01                	jae    ed29 <__recvmsg_nocancel+0x40>
    ed28:	c3                   	retq   
    ed29:	48 8b 0d 50 92 20 00 	mov    0x209250(%rip),%rcx        # 217f80 <_DYNAMIC+0x1f0>
    ed30:	f7 d8                	neg    %eax
    ed32:	64 89 01             	mov    %eax,%fs:(%rcx)
    ed35:	48 83 c8 ff          	or     $0xffffffffffffffff,%rax
    ed39:	c3                   	retq   
    ed3a:	90                   	nop
    ed3b:	90                   	nop
    ed3c:	90                   	nop
    ed3d:	90                   	nop
    ed3e:	90                   	nop
    ed3f:	90                   	nop

000000000000ed40 <__send>:
    ed40:	55                   	push   %rbp
    ed41:	48 89 e5             	mov    %rsp,%rbp
    ed44:	53                   	push   %rbx
    ed45:	48 83 ec 28          	sub    $0x28,%rsp
    ed49:	8b 05 09 d6 20 00    	mov    0x20d609(%rip),%eax        # 21c358 <__pthread_multiple_threads>
    ed4f:	85 c0                	test   %eax,%eax
    ed51:	75 22                	jne    ed75 <__send+0x35>
    ed53:	45 31 c9             	xor    %r9d,%r9d
    ed56:	45 31 c0             	xor    %r8d,%r8d
    ed59:	4c 63 d1             	movslq %ecx,%r10
    ed5c:	48 63 ff             	movslq %edi,%rdi
    ed5f:	b8 2c 00 00 00       	mov    $0x2c,%eax
    ed64:	0f 05                	syscall 
    ed66:	48 3d 00 f0 ff ff    	cmp    $0xfffffffffffff000,%rax
    ed6c:	77 5a                	ja     edc8 <__send+0x88>
    ed6e:	48 83 c4 28          	add    $0x28,%rsp
    ed72:	5b                   	pop    %rbx
    ed73:	c9                   	leaveq 
    ed74:	c3                   	retq   
    ed75:	48 89 55 d8          	mov    %rdx,-0x28(%rbp)
    ed79:	89 4d d0             	mov    %ecx,-0x30(%rbp)
    ed7c:	48 89 75 e0          	mov    %rsi,-0x20(%rbp)
    ed80:	89 7d e8             	mov    %edi,-0x18(%rbp)
    ed83:	e8 58 f5 ff ff       	callq  e2e0 <__pthread_enable_asynccancel>
    ed88:	8b 4d d0             	mov    -0x30(%rbp),%ecx
    ed8b:	8b 7d e8             	mov    -0x18(%rbp),%edi
    ed8e:	89 c3                	mov    %eax,%ebx
    ed90:	45 31 c9             	xor    %r9d,%r9d
    ed93:	45 31 c0             	xor    %r8d,%r8d
    ed96:	48 8b 55 d8          	mov    -0x28(%rbp),%rdx
    ed9a:	48 8b 75 e0          	mov    -0x20(%rbp),%rsi
    ed9e:	b8 2c 00 00 00       	mov    $0x2c,%eax
    eda3:	4c 63 d1             	movslq %ecx,%r10
    eda6:	48 63 ff             	movslq %edi,%rdi
    eda9:	0f 05                	syscall 
    edab:	48 89 c2             	mov    %rax,%rdx
    edae:	48 81 fa 00 f0 ff ff 	cmp    $0xfffffffffffff000,%rdx
    edb5:	77 23                	ja     edda <__send+0x9a>
    edb7:	89 df                	mov    %ebx,%edi
    edb9:	48 89 45 e8          	mov    %rax,-0x18(%rbp)
    edbd:	e8 7e f5 ff ff       	callq  e340 <__pthread_disable_asynccancel>
    edc2:	48 8b 45 e8          	mov    -0x18(%rbp),%rax
    edc6:	eb a6                	jmp    ed6e <__send+0x2e>
    edc8:	48 8b 15 b1 91 20 00 	mov    0x2091b1(%rip),%rdx        # 217f80 <_DYNAMIC+0x1f0>
    edcf:	f7 d8                	neg    %eax
    edd1:	64 89 02             	mov    %eax,%fs:(%rdx)
    edd4:	48 83 c8 ff          	or     $0xffffffffffffffff,%rax
    edd8:	eb 94                	jmp    ed6e <__send+0x2e>
    edda:	48 8b 05 9f 91 20 00 	mov    0x20919f(%rip),%rax        # 217f80 <_DYNAMIC+0x1f0>
    ede1:	f7 da                	neg    %edx
    ede3:	64 89 10             	mov    %edx,%fs:(%rax)
    ede6:	48 83 c8 ff          	or     $0xffffffffffffffff,%rax
    edea:	eb cb                	jmp    edb7 <__send+0x77>
    edec:	90                   	nop
    eded:	90                   	nop
    edee:	90                   	nop
    edef:	90                   	nop

000000000000edf0 <sendmsg>:
    edf0:	83 3d 61 d5 20 00 00 	cmpl   $0x0,0x20d561(%rip)        # 21c358 <__pthread_multiple_threads>
    edf7:	75 10                	jne    ee09 <__sendmsg_nocancel+0x10>

000000000000edf9 <__sendmsg_nocancel>:
    edf9:	b8 2e 00 00 00       	mov    $0x2e,%eax
    edfe:	0f 05                	syscall 
    ee00:	48 3d 01 f0 ff ff    	cmp    $0xfffffffffffff001,%rax
    ee06:	73 31                	jae    ee39 <__sendmsg_nocancel+0x40>
    ee08:	c3                   	retq   
    ee09:	48 83 ec 08          	sub    $0x8,%rsp
    ee0d:	e8 ce f4 ff ff       	callq  e2e0 <__pthread_enable_asynccancel>
    ee12:	48 89 04 24          	mov    %rax,(%rsp)
    ee16:	b8 2e 00 00 00       	mov    $0x2e,%eax
    ee1b:	0f 05                	syscall 
    ee1d:	48 8b 3c 24          	mov    (%rsp),%rdi
    ee21:	48 89 c2             	mov    %rax,%rdx
    ee24:	e8 17 f5 ff ff       	callq  e340 <__pthread_disable_asynccancel>
    ee29:	48 89 d0             	mov    %rdx,%rax
    ee2c:	48 83 c4 08          	add    $0x8,%rsp
    ee30:	48 3d 01 f0 ff ff    	cmp    $0xfffffffffffff001,%rax
    ee36:	73 01                	jae    ee39 <__sendmsg_nocancel+0x40>
    ee38:	c3                   	retq   
    ee39:	48 8b 0d 40 91 20 00 	mov    0x209140(%rip),%rcx        # 217f80 <_DYNAMIC+0x1f0>
    ee40:	f7 d8                	neg    %eax
    ee42:	64 89 01             	mov    %eax,%fs:(%rcx)
    ee45:	48 83 c8 ff          	or     $0xffffffffffffffff,%rax
    ee49:	c3                   	retq   
    ee4a:	90                   	nop
    ee4b:	90                   	nop
    ee4c:	90                   	nop
    ee4d:	90                   	nop
    ee4e:	90                   	nop
    ee4f:	90                   	nop

000000000000ee50 <sendto>:
    ee50:	83 3d 01 d5 20 00 00 	cmpl   $0x0,0x20d501(%rip)        # 21c358 <__pthread_multiple_threads>
    ee57:	75 13                	jne    ee6c <__sendto_nocancel+0x13>

000000000000ee59 <__sendto_nocancel>:
    ee59:	49 89 ca             	mov    %rcx,%r10
    ee5c:	b8 2c 00 00 00       	mov    $0x2c,%eax
    ee61:	0f 05                	syscall 
    ee63:	48 3d 01 f0 ff ff    	cmp    $0xfffffffffffff001,%rax
    ee69:	73 34                	jae    ee9f <__sendto_nocancel+0x46>
    ee6b:	c3                   	retq   
    ee6c:	48 83 ec 08          	sub    $0x8,%rsp
    ee70:	e8 6b f4 ff ff       	callq  e2e0 <__pthread_enable_asynccancel>
    ee75:	48 89 04 24          	mov    %rax,(%rsp)
    ee79:	49 89 ca             	mov    %rcx,%r10
    ee7c:	b8 2c 00 00 00       	mov    $0x2c,%eax
    ee81:	0f 05                	syscall 
    ee83:	48 8b 3c 24          	mov    (%rsp),%rdi
    ee87:	48 89 c2             	mov    %rax,%rdx
    ee8a:	e8 b1 f4 ff ff       	callq  e340 <__pthread_disable_asynccancel>
    ee8f:	48 89 d0             	mov    %rdx,%rax
    ee92:	48 83 c4 08          	add    $0x8,%rsp
    ee96:	48 3d 01 f0 ff ff    	cmp    $0xfffffffffffff001,%rax
    ee9c:	73 01                	jae    ee9f <__sendto_nocancel+0x46>
    ee9e:	c3                   	retq   
    ee9f:	48 8b 0d da 90 20 00 	mov    0x2090da(%rip),%rcx        # 217f80 <_DYNAMIC+0x1f0>
    eea6:	f7 d8                	neg    %eax
    eea8:	64 89 01             	mov    %eax,%fs:(%rcx)
    eeab:	48 83 c8 ff          	or     $0xffffffffffffffff,%rax
    eeaf:	c3                   	retq   

000000000000eeb0 <fsync>:
    eeb0:	83 3d a1 d4 20 00 00 	cmpl   $0x0,0x20d4a1(%rip)        # 21c358 <__pthread_multiple_threads>
    eeb7:	75 10                	jne    eec9 <__fsync_nocancel+0x10>

000000000000eeb9 <__fsync_nocancel>:
    eeb9:	b8 4a 00 00 00       	mov    $0x4a,%eax
    eebe:	0f 05                	syscall 
    eec0:	48 3d 01 f0 ff ff    	cmp    $0xfffffffffffff001,%rax
    eec6:	73 31                	jae    eef9 <__fsync_nocancel+0x40>
    eec8:	c3                   	retq   
    eec9:	48 83 ec 08          	sub    $0x8,%rsp
    eecd:	e8 0e f4 ff ff       	callq  e2e0 <__pthread_enable_asynccancel>
    eed2:	48 89 04 24          	mov    %rax,(%rsp)
    eed6:	b8 4a 00 00 00       	mov    $0x4a,%eax
    eedb:	0f 05                	syscall 
    eedd:	48 8b 3c 24          	mov    (%rsp),%rdi
    eee1:	48 89 c2             	mov    %rax,%rdx
    eee4:	e8 57 f4 ff ff       	callq  e340 <__pthread_disable_asynccancel>
    eee9:	48 89 d0             	mov    %rdx,%rax
    eeec:	48 83 c4 08          	add    $0x8,%rsp
    eef0:	48 3d 01 f0 ff ff    	cmp    $0xfffffffffffff001,%rax
    eef6:	73 01                	jae    eef9 <__fsync_nocancel+0x40>
    eef8:	c3                   	retq   
    eef9:	48 8b 0d 80 90 20 00 	mov    0x209080(%rip),%rcx        # 217f80 <_DYNAMIC+0x1f0>
    ef00:	f7 d8                	neg    %eax
    ef02:	64 89 01             	mov    %eax,%fs:(%rcx)
    ef05:	48 83 c8 ff          	or     $0xffffffffffffffff,%rax
    ef09:	c3                   	retq   
    ef0a:	90                   	nop
    ef0b:	90                   	nop
    ef0c:	90                   	nop
    ef0d:	90                   	nop
    ef0e:	90                   	nop
    ef0f:	90                   	nop

000000000000ef10 <__lseek>:
    ef10:	83 3d 41 d4 20 00 00 	cmpl   $0x0,0x20d441(%rip)        # 21c358 <__pthread_multiple_threads>
    ef17:	75 10                	jne    ef29 <__lseek_nocancel+0x10>

000000000000ef19 <__lseek_nocancel>:
    ef19:	b8 08 00 00 00       	mov    $0x8,%eax
    ef1e:	0f 05                	syscall 
    ef20:	48 3d 01 f0 ff ff    	cmp    $0xfffffffffffff001,%rax
    ef26:	73 31                	jae    ef59 <__lseek_nocancel+0x40>
    ef28:	c3                   	retq   
    ef29:	48 83 ec 08          	sub    $0x8,%rsp
    ef2d:	e8 ae f3 ff ff       	callq  e2e0 <__pthread_enable_asynccancel>
    ef32:	48 89 04 24          	mov    %rax,(%rsp)
    ef36:	b8 08 00 00 00       	mov    $0x8,%eax
    ef3b:	0f 05                	syscall 
    ef3d:	48 8b 3c 24          	mov    (%rsp),%rdi
    ef41:	48 89 c2             	mov    %rax,%rdx
    ef44:	e8 f7 f3 ff ff       	callq  e340 <__pthread_disable_asynccancel>
    ef49:	48 89 d0             	mov    %rdx,%rax
    ef4c:	48 83 c4 08          	add    $0x8,%rsp
    ef50:	48 3d 01 f0 ff ff    	cmp    $0xfffffffffffff001,%rax
    ef56:	73 01                	jae    ef59 <__lseek_nocancel+0x40>
    ef58:	c3                   	retq   
    ef59:	48 8b 0d 20 90 20 00 	mov    0x209020(%rip),%rcx        # 217f80 <_DYNAMIC+0x1f0>
    ef60:	f7 d8                	neg    %eax
    ef62:	64 89 01             	mov    %eax,%fs:(%rcx)
    ef65:	48 83 c8 ff          	or     $0xffffffffffffffff,%rax
    ef69:	c3                   	retq   
    ef6a:	90                   	nop
    ef6b:	90                   	nop
    ef6c:	90                   	nop
    ef6d:	90                   	nop
    ef6e:	90                   	nop
    ef6f:	90                   	nop

000000000000ef70 <msync>:
    ef70:	83 3d e1 d3 20 00 00 	cmpl   $0x0,0x20d3e1(%rip)        # 21c358 <__pthread_multiple_threads>
    ef77:	75 10                	jne    ef89 <__msync_nocancel+0x10>

000000000000ef79 <__msync_nocancel>:
    ef79:	b8 1a 00 00 00       	mov    $0x1a,%eax
    ef7e:	0f 05                	syscall 
    ef80:	48 3d 01 f0 ff ff    	cmp    $0xfffffffffffff001,%rax
    ef86:	73 31                	jae    efb9 <__msync_nocancel+0x40>
    ef88:	c3                   	retq   
    ef89:	48 83 ec 08          	sub    $0x8,%rsp
    ef8d:	e8 4e f3 ff ff       	callq  e2e0 <__pthread_enable_asynccancel>
    ef92:	48 89 04 24          	mov    %rax,(%rsp)
    ef96:	b8 1a 00 00 00       	mov    $0x1a,%eax
    ef9b:	0f 05                	syscall 
    ef9d:	48 8b 3c 24          	mov    (%rsp),%rdi
    efa1:	48 89 c2             	mov    %rax,%rdx
    efa4:	e8 97 f3 ff ff       	callq  e340 <__pthread_disable_asynccancel>
    efa9:	48 89 d0             	mov    %rdx,%rax
    efac:	48 83 c4 08          	add    $0x8,%rsp
    efb0:	48 3d 01 f0 ff ff    	cmp    $0xfffffffffffff001,%rax
    efb6:	73 01                	jae    efb9 <__msync_nocancel+0x40>
    efb8:	c3                   	retq   
    efb9:	48 8b 0d c0 8f 20 00 	mov    0x208fc0(%rip),%rcx        # 217f80 <_DYNAMIC+0x1f0>
    efc0:	f7 d8                	neg    %eax
    efc2:	64 89 01             	mov    %eax,%fs:(%rcx)
    efc5:	48 83 c8 ff          	or     $0xffffffffffffffff,%rax
    efc9:	c3                   	retq   
    efca:	90                   	nop
    efcb:	90                   	nop
    efcc:	90                   	nop
    efcd:	90                   	nop
    efce:	90                   	nop
    efcf:	90                   	nop

000000000000efd0 <__nanosleep>:
    efd0:	83 3d 81 d3 20 00 00 	cmpl   $0x0,0x20d381(%rip)        # 21c358 <__pthread_multiple_threads>
    efd7:	75 10                	jne    efe9 <__nanosleep_nocancel+0x10>

000000000000efd9 <__nanosleep_nocancel>:
    efd9:	b8 23 00 00 00       	mov    $0x23,%eax
    efde:	0f 05                	syscall 
    efe0:	48 3d 01 f0 ff ff    	cmp    $0xfffffffffffff001,%rax
    efe6:	73 31                	jae    f019 <__nanosleep_nocancel+0x40>
    efe8:	c3                   	retq   
    efe9:	48 83 ec 08          	sub    $0x8,%rsp
    efed:	e8 ee f2 ff ff       	callq  e2e0 <__pthread_enable_asynccancel>
    eff2:	48 89 04 24          	mov    %rax,(%rsp)
    eff6:	b8 23 00 00 00       	mov    $0x23,%eax
    effb:	0f 05                	syscall 
    effd:	48 8b 3c 24          	mov    (%rsp),%rdi
    f001:	48 89 c2             	mov    %rax,%rdx
    f004:	e8 37 f3 ff ff       	callq  e340 <__pthread_disable_asynccancel>
    f009:	48 89 d0             	mov    %rdx,%rax
    f00c:	48 83 c4 08          	add    $0x8,%rsp
    f010:	48 3d 01 f0 ff ff    	cmp    $0xfffffffffffff001,%rax
    f016:	73 01                	jae    f019 <__nanosleep_nocancel+0x40>
    f018:	c3                   	retq   
    f019:	48 8b 0d 60 8f 20 00 	mov    0x208f60(%rip),%rcx        # 217f80 <_DYNAMIC+0x1f0>
    f020:	f7 d8                	neg    %eax
    f022:	64 89 01             	mov    %eax,%fs:(%rcx)
    f025:	48 83 c8 ff          	or     $0xffffffffffffffff,%rax
    f029:	c3                   	retq   
    f02a:	90                   	nop
    f02b:	90                   	nop
    f02c:	90                   	nop
    f02d:	90                   	nop
    f02e:	90                   	nop
    f02f:	90                   	nop

000000000000f030 <__open>:
    f030:	83 3d 21 d3 20 00 00 	cmpl   $0x0,0x20d321(%rip)        # 21c358 <__pthread_multiple_threads>
    f037:	75 10                	jne    f049 <__open_nocancel+0x10>

000000000000f039 <__open_nocancel>:
    f039:	b8 02 00 00 00       	mov    $0x2,%eax
    f03e:	0f 05                	syscall 
    f040:	48 3d 01 f0 ff ff    	cmp    $0xfffffffffffff001,%rax
    f046:	73 31                	jae    f079 <__open_nocancel+0x40>
    f048:	c3                   	retq   
    f049:	48 83 ec 08          	sub    $0x8,%rsp
    f04d:	e8 8e f2 ff ff       	callq  e2e0 <__pthread_enable_asynccancel>
    f052:	48 89 04 24          	mov    %rax,(%rsp)
    f056:	b8 02 00 00 00       	mov    $0x2,%eax
    f05b:	0f 05                	syscall 
    f05d:	48 8b 3c 24          	mov    (%rsp),%rdi
    f061:	48 89 c2             	mov    %rax,%rdx
    f064:	e8 d7 f2 ff ff       	callq  e340 <__pthread_disable_asynccancel>
    f069:	48 89 d0             	mov    %rdx,%rax
    f06c:	48 83 c4 08          	add    $0x8,%rsp
    f070:	48 3d 01 f0 ff ff    	cmp    $0xfffffffffffff001,%rax
    f076:	73 01                	jae    f079 <__open_nocancel+0x40>
    f078:	c3                   	retq   
    f079:	48 8b 0d 00 8f 20 00 	mov    0x208f00(%rip),%rcx        # 217f80 <_DYNAMIC+0x1f0>
    f080:	f7 d8                	neg    %eax
    f082:	64 89 01             	mov    %eax,%fs:(%rcx)
    f085:	48 83 c8 ff          	or     $0xffffffffffffffff,%rax
    f089:	c3                   	retq   
    f08a:	90                   	nop
    f08b:	90                   	nop
    f08c:	90                   	nop
    f08d:	90                   	nop
    f08e:	90                   	nop
    f08f:	90                   	nop

000000000000f090 <pause>:
    f090:	83 3d c1 d2 20 00 00 	cmpl   $0x0,0x20d2c1(%rip)        # 21c358 <__pthread_multiple_threads>
    f097:	75 10                	jne    f0a9 <__pause_nocancel+0x10>

000000000000f099 <__pause_nocancel>:
    f099:	b8 22 00 00 00       	mov    $0x22,%eax
    f09e:	0f 05                	syscall 
    f0a0:	48 3d 01 f0 ff ff    	cmp    $0xfffffffffffff001,%rax
    f0a6:	73 31                	jae    f0d9 <__pause_nocancel+0x40>
    f0a8:	c3                   	retq   
    f0a9:	48 83 ec 08          	sub    $0x8,%rsp
    f0ad:	e8 2e f2 ff ff       	callq  e2e0 <__pthread_enable_asynccancel>
    f0b2:	48 89 04 24          	mov    %rax,(%rsp)
    f0b6:	b8 22 00 00 00       	mov    $0x22,%eax
    f0bb:	0f 05                	syscall 
    f0bd:	48 8b 3c 24          	mov    (%rsp),%rdi
    f0c1:	48 89 c2             	mov    %rax,%rdx
    f0c4:	e8 77 f2 ff ff       	callq  e340 <__pthread_disable_asynccancel>
    f0c9:	48 89 d0             	mov    %rdx,%rax
    f0cc:	48 83 c4 08          	add    $0x8,%rsp
    f0d0:	48 3d 01 f0 ff ff    	cmp    $0xfffffffffffff001,%rax
    f0d6:	73 01                	jae    f0d9 <__pause_nocancel+0x40>
    f0d8:	c3                   	retq   
    f0d9:	48 8b 0d a0 8e 20 00 	mov    0x208ea0(%rip),%rcx        # 217f80 <_DYNAMIC+0x1f0>
    f0e0:	f7 d8                	neg    %eax
    f0e2:	64 89 01             	mov    %eax,%fs:(%rcx)
    f0e5:	48 83 c8 ff          	or     $0xffffffffffffffff,%rax
    f0e9:	c3                   	retq   
    f0ea:	90                   	nop
    f0eb:	90                   	nop
    f0ec:	90                   	nop
    f0ed:	90                   	nop
    f0ee:	90                   	nop
    f0ef:	90                   	nop

000000000000f0f0 <__pread64>:
    f0f0:	83 3d 61 d2 20 00 00 	cmpl   $0x0,0x20d261(%rip)        # 21c358 <__pthread_multiple_threads>
    f0f7:	75 13                	jne    f10c <__pread_nocancel+0x13>

000000000000f0f9 <__pread_nocancel>:
    f0f9:	49 89 ca             	mov    %rcx,%r10
    f0fc:	b8 11 00 00 00       	mov    $0x11,%eax
    f101:	0f 05                	syscall 
    f103:	48 3d 01 f0 ff ff    	cmp    $0xfffffffffffff001,%rax
    f109:	73 34                	jae    f13f <__pread_nocancel+0x46>
    f10b:	c3                   	retq   
    f10c:	48 83 ec 08          	sub    $0x8,%rsp
    f110:	e8 cb f1 ff ff       	callq  e2e0 <__pthread_enable_asynccancel>
    f115:	48 89 04 24          	mov    %rax,(%rsp)
    f119:	49 89 ca             	mov    %rcx,%r10
    f11c:	b8 11 00 00 00       	mov    $0x11,%eax
    f121:	0f 05                	syscall 
    f123:	48 8b 3c 24          	mov    (%rsp),%rdi
    f127:	48 89 c2             	mov    %rax,%rdx
    f12a:	e8 11 f2 ff ff       	callq  e340 <__pthread_disable_asynccancel>
    f12f:	48 89 d0             	mov    %rdx,%rax
    f132:	48 83 c4 08          	add    $0x8,%rsp
    f136:	48 3d 01 f0 ff ff    	cmp    $0xfffffffffffff001,%rax
    f13c:	73 01                	jae    f13f <__pread_nocancel+0x46>
    f13e:	c3                   	retq   
    f13f:	48 8b 0d 3a 8e 20 00 	mov    0x208e3a(%rip),%rcx        # 217f80 <_DYNAMIC+0x1f0>
    f146:	f7 d8                	neg    %eax
    f148:	64 89 01             	mov    %eax,%fs:(%rcx)
    f14b:	48 83 c8 ff          	or     $0xffffffffffffffff,%rax
    f14f:	c3                   	retq   

000000000000f150 <__pwrite64>:
    f150:	83 3d 01 d2 20 00 00 	cmpl   $0x0,0x20d201(%rip)        # 21c358 <__pthread_multiple_threads>
    f157:	75 13                	jne    f16c <__pwrite_nocancel+0x13>

000000000000f159 <__pwrite_nocancel>:
    f159:	49 89 ca             	mov    %rcx,%r10
    f15c:	b8 12 00 00 00       	mov    $0x12,%eax
    f161:	0f 05                	syscall 
    f163:	48 3d 01 f0 ff ff    	cmp    $0xfffffffffffff001,%rax
    f169:	73 34                	jae    f19f <__pwrite_nocancel+0x46>
    f16b:	c3                   	retq   
    f16c:	48 83 ec 08          	sub    $0x8,%rsp
    f170:	e8 6b f1 ff ff       	callq  e2e0 <__pthread_enable_asynccancel>
    f175:	48 89 04 24          	mov    %rax,(%rsp)
    f179:	49 89 ca             	mov    %rcx,%r10
    f17c:	b8 12 00 00 00       	mov    $0x12,%eax
    f181:	0f 05                	syscall 
    f183:	48 8b 3c 24          	mov    (%rsp),%rdi
    f187:	48 89 c2             	mov    %rax,%rdx
    f18a:	e8 b1 f1 ff ff       	callq  e340 <__pthread_disable_asynccancel>
    f18f:	48 89 d0             	mov    %rdx,%rax
    f192:	48 83 c4 08          	add    $0x8,%rsp
    f196:	48 3d 01 f0 ff ff    	cmp    $0xfffffffffffff001,%rax
    f19c:	73 01                	jae    f19f <__pwrite_nocancel+0x46>
    f19e:	c3                   	retq   
    f19f:	48 8b 0d da 8d 20 00 	mov    0x208dda(%rip),%rcx        # 217f80 <_DYNAMIC+0x1f0>
    f1a6:	f7 d8                	neg    %eax
    f1a8:	64 89 01             	mov    %eax,%fs:(%rcx)
    f1ab:	48 83 c8 ff          	or     $0xffffffffffffffff,%rax
    f1af:	c3                   	retq   

000000000000f1b0 <tcdrain>:
    f1b0:	55                   	push   %rbp
    f1b1:	48 89 e5             	mov    %rsp,%rbp
    f1b4:	48 83 ec 10          	sub    $0x10,%rsp
    f1b8:	8b 05 9a d1 20 00    	mov    0x20d19a(%rip),%eax        # 21c358 <__pthread_multiple_threads>
    f1be:	85 c0                	test   %eax,%eax
    f1c0:	75 2f                	jne    f1f1 <tcdrain+0x41>
    f1c2:	ba 01 00 00 00       	mov    $0x1,%edx
    f1c7:	be 09 54 00 00       	mov    $0x5409,%esi
    f1cc:	48 63 ff             	movslq %edi,%rdi
    f1cf:	b8 10 00 00 00       	mov    $0x10,%eax
    f1d4:	0f 05                	syscall 
    f1d6:	48 3d 00 f0 ff ff    	cmp    $0xfffffffffffff000,%rax
    f1dc:	77 02                	ja     f1e0 <tcdrain+0x30>
    f1de:	c9                   	leaveq 
    f1df:	c3                   	retq   
    f1e0:	48 8b 15 99 8d 20 00 	mov    0x208d99(%rip),%rdx        # 217f80 <_DYNAMIC+0x1f0>
    f1e7:	f7 d8                	neg    %eax
    f1e9:	64 89 02             	mov    %eax,%fs:(%rdx)
    f1ec:	83 c8 ff             	or     $0xffffffff,%eax
    f1ef:	c9                   	leaveq 
    f1f0:	c3                   	retq   
    f1f1:	89 7d f8             	mov    %edi,-0x8(%rbp)
    f1f4:	e8 e7 f0 ff ff       	callq  e2e0 <__pthread_enable_asynccancel>
    f1f9:	8b 7d f8             	mov    -0x8(%rbp),%edi
    f1fc:	41 89 c0             	mov    %eax,%r8d
    f1ff:	ba 01 00 00 00       	mov    $0x1,%edx
    f204:	be 09 54 00 00       	mov    $0x5409,%esi
    f209:	b8 10 00 00 00       	mov    $0x10,%eax
    f20e:	48 63 ff             	movslq %edi,%rdi
    f211:	0f 05                	syscall 
    f213:	48 89 c2             	mov    %rax,%rdx
    f216:	48 81 fa 00 f0 ff ff 	cmp    $0xfffffffffffff000,%rdx
    f21d:	77 10                	ja     f22f <tcdrain+0x7f>
    f21f:	89 45 f8             	mov    %eax,-0x8(%rbp)
    f222:	44 89 c7             	mov    %r8d,%edi
    f225:	e8 16 f1 ff ff       	callq  e340 <__pthread_disable_asynccancel>
    f22a:	8b 45 f8             	mov    -0x8(%rbp),%eax
    f22d:	c9                   	leaveq 
    f22e:	c3                   	retq   
    f22f:	48 8b 05 4a 8d 20 00 	mov    0x208d4a(%rip),%rax        # 217f80 <_DYNAMIC+0x1f0>
    f236:	f7 da                	neg    %edx
    f238:	64 89 10             	mov    %edx,%fs:(%rax)
    f23b:	83 c8 ff             	or     $0xffffffff,%eax
    f23e:	eb df                	jmp    f21f <tcdrain+0x6f>

000000000000f240 <__wait>:
    f240:	55                   	push   %rbp
    f241:	48 89 fe             	mov    %rdi,%rsi
    f244:	48 89 e5             	mov    %rsp,%rbp
    f247:	48 83 ec 10          	sub    $0x10,%rsp
    f24b:	8b 05 07 d1 20 00    	mov    0x20d107(%rip),%eax        # 21c358 <__pthread_multiple_threads>
    f251:	85 c0                	test   %eax,%eax
    f253:	75 2e                	jne    f283 <__wait+0x43>
    f255:	45 31 d2             	xor    %r10d,%r10d
    f258:	31 d2                	xor    %edx,%edx
    f25a:	48 c7 c7 ff ff ff ff 	mov    $0xffffffffffffffff,%rdi
    f261:	b8 3d 00 00 00       	mov    $0x3d,%eax
    f266:	0f 05                	syscall 
    f268:	48 3d 00 f0 ff ff    	cmp    $0xfffffffffffff000,%rax
    f26e:	77 02                	ja     f272 <__wait+0x32>
    f270:	c9                   	leaveq 
    f271:	c3                   	retq   
    f272:	48 8b 15 07 8d 20 00 	mov    0x208d07(%rip),%rdx        # 217f80 <_DYNAMIC+0x1f0>
    f279:	f7 d8                	neg    %eax
    f27b:	64 89 02             	mov    %eax,%fs:(%rdx)
    f27e:	83 c8 ff             	or     $0xffffffff,%eax
    f281:	c9                   	leaveq 
    f282:	c3                   	retq   
    f283:	48 89 7d f8          	mov    %rdi,-0x8(%rbp)
    f287:	e8 54 f0 ff ff       	callq  e2e0 <__pthread_enable_asynccancel>
    f28c:	45 31 d2             	xor    %r10d,%r10d
    f28f:	41 89 c0             	mov    %eax,%r8d
    f292:	31 d2                	xor    %edx,%edx
    f294:	48 8b 75 f8          	mov    -0x8(%rbp),%rsi
    f298:	48 83 cf ff          	or     $0xffffffffffffffff,%rdi
    f29c:	b8 3d 00 00 00       	mov    $0x3d,%eax
    f2a1:	0f 05                	syscall 
    f2a3:	48 89 c2             	mov    %rax,%rdx
    f2a6:	48 81 fa 00 f0 ff ff 	cmp    $0xfffffffffffff000,%rdx
    f2ad:	77 10                	ja     f2bf <__wait+0x7f>
    f2af:	89 45 f8             	mov    %eax,-0x8(%rbp)
    f2b2:	44 89 c7             	mov    %r8d,%edi
    f2b5:	e8 86 f0 ff ff       	callq  e340 <__pthread_disable_asynccancel>
    f2ba:	8b 45 f8             	mov    -0x8(%rbp),%eax
    f2bd:	c9                   	leaveq 
    f2be:	c3                   	retq   
    f2bf:	48 8b 05 ba 8c 20 00 	mov    0x208cba(%rip),%rax        # 217f80 <_DYNAMIC+0x1f0>
    f2c6:	f7 da                	neg    %edx
    f2c8:	64 89 10             	mov    %edx,%fs:(%rax)
    f2cb:	83 c8 ff             	or     $0xffffffff,%eax
    f2ce:	eb df                	jmp    f2af <__wait+0x6f>

000000000000f2d0 <waitpid>:
    f2d0:	55                   	push   %rbp
    f2d1:	48 89 e5             	mov    %rsp,%rbp
    f2d4:	48 83 ec 20          	sub    $0x20,%rsp
    f2d8:	8b 05 7a d0 20 00    	mov    0x20d07a(%rip),%eax        # 21c358 <__pthread_multiple_threads>
    f2de:	85 c0                	test   %eax,%eax
    f2e0:	75 2b                	jne    f30d <waitpid+0x3d>
    f2e2:	45 31 d2             	xor    %r10d,%r10d
    f2e5:	48 63 d2             	movslq %edx,%rdx
    f2e8:	48 63 ff             	movslq %edi,%rdi
    f2eb:	b8 3d 00 00 00       	mov    $0x3d,%eax
    f2f0:	0f 05                	syscall 
    f2f2:	48 3d 00 f0 ff ff    	cmp    $0xfffffffffffff000,%rax
    f2f8:	77 02                	ja     f2fc <waitpid+0x2c>
    f2fa:	c9                   	leaveq 
    f2fb:	c3                   	retq   
    f2fc:	48 8b 15 7d 8c 20 00 	mov    0x208c7d(%rip),%rdx        # 217f80 <_DYNAMIC+0x1f0>
    f303:	f7 d8                	neg    %eax
    f305:	64 89 02             	mov    %eax,%fs:(%rdx)
    f308:	83 c8 ff             	or     $0xffffffff,%eax
    f30b:	c9                   	leaveq 
    f30c:	c3                   	retq   
    f30d:	89 55 e8             	mov    %edx,-0x18(%rbp)
    f310:	48 89 75 f0          	mov    %rsi,-0x10(%rbp)
    f314:	89 7d f8             	mov    %edi,-0x8(%rbp)
    f317:	e8 c4 ef ff ff       	callq  e2e0 <__pthread_enable_asynccancel>
    f31c:	8b 55 e8             	mov    -0x18(%rbp),%edx
    f31f:	8b 7d f8             	mov    -0x8(%rbp),%edi
    f322:	41 89 c0             	mov    %eax,%r8d
    f325:	45 31 d2             	xor    %r10d,%r10d
    f328:	48 8b 75 f0          	mov    -0x10(%rbp),%rsi
    f32c:	b8 3d 00 00 00       	mov    $0x3d,%eax
    f331:	48 63 d2             	movslq %edx,%rdx
    f334:	48 63 ff             	movslq %edi,%rdi
    f337:	0f 05                	syscall 
    f339:	48 89 c2             	mov    %rax,%rdx
    f33c:	48 81 fa 00 f0 ff ff 	cmp    $0xfffffffffffff000,%rdx
    f343:	77 10                	ja     f355 <waitpid+0x85>
    f345:	89 45 f8             	mov    %eax,-0x8(%rbp)
    f348:	44 89 c7             	mov    %r8d,%edi
    f34b:	e8 f0 ef ff ff       	callq  e340 <__pthread_disable_asynccancel>
    f350:	8b 45 f8             	mov    -0x8(%rbp),%eax
    f353:	c9                   	leaveq 
    f354:	c3                   	retq   
    f355:	48 8b 05 24 8c 20 00 	mov    0x208c24(%rip),%rax        # 217f80 <_DYNAMIC+0x1f0>
    f35c:	f7 da                	neg    %edx
    f35e:	64 89 10             	mov    %edx,%fs:(%rax)
    f361:	83 c8 ff             	or     $0xffffffff,%eax
    f364:	eb df                	jmp    f345 <waitpid+0x75>
    f366:	90                   	nop
    f367:	90                   	nop
    f368:	90                   	nop
    f369:	90                   	nop
    f36a:	90                   	nop
    f36b:	90                   	nop
    f36c:	90                   	nop
    f36d:	90                   	nop
    f36e:	90                   	nop
    f36f:	90                   	nop

000000000000f370 <__msgrcv>:
    f370:	83 3d e1 cf 20 00 00 	cmpl   $0x0,0x20cfe1(%rip)        # 21c358 <__pthread_multiple_threads>
    f377:	75 13                	jne    f38c <__msgrcv_nocancel+0x13>

000000000000f379 <__msgrcv_nocancel>:
    f379:	49 89 ca             	mov    %rcx,%r10
    f37c:	b8 46 00 00 00       	mov    $0x46,%eax
    f381:	0f 05                	syscall 
    f383:	48 3d 01 f0 ff ff    	cmp    $0xfffffffffffff001,%rax
    f389:	73 34                	jae    f3bf <__msgrcv_nocancel+0x46>
    f38b:	c3                   	retq   
    f38c:	48 83 ec 08          	sub    $0x8,%rsp
    f390:	e8 4b ef ff ff       	callq  e2e0 <__pthread_enable_asynccancel>
    f395:	48 89 04 24          	mov    %rax,(%rsp)
    f399:	49 89 ca             	mov    %rcx,%r10
    f39c:	b8 46 00 00 00       	mov    $0x46,%eax
    f3a1:	0f 05                	syscall 
    f3a3:	48 8b 3c 24          	mov    (%rsp),%rdi
    f3a7:	48 89 c2             	mov    %rax,%rdx
    f3aa:	e8 91 ef ff ff       	callq  e340 <__pthread_disable_asynccancel>
    f3af:	48 89 d0             	mov    %rdx,%rax
    f3b2:	48 83 c4 08          	add    $0x8,%rsp
    f3b6:	48 3d 01 f0 ff ff    	cmp    $0xfffffffffffff001,%rax
    f3bc:	73 01                	jae    f3bf <__msgrcv_nocancel+0x46>
    f3be:	c3                   	retq   
    f3bf:	48 8b 0d ba 8b 20 00 	mov    0x208bba(%rip),%rcx        # 217f80 <_DYNAMIC+0x1f0>
    f3c6:	f7 d8                	neg    %eax
    f3c8:	64 89 01             	mov    %eax,%fs:(%rcx)
    f3cb:	48 83 c8 ff          	or     $0xffffffffffffffff,%rax
    f3cf:	c3                   	retq   

000000000000f3d0 <__msgsnd>:
    f3d0:	83 3d 81 cf 20 00 00 	cmpl   $0x0,0x20cf81(%rip)        # 21c358 <__pthread_multiple_threads>
    f3d7:	75 13                	jne    f3ec <__msgsnd_nocancel+0x13>

000000000000f3d9 <__msgsnd_nocancel>:
    f3d9:	49 89 ca             	mov    %rcx,%r10
    f3dc:	b8 45 00 00 00       	mov    $0x45,%eax
    f3e1:	0f 05                	syscall 
    f3e3:	48 3d 01 f0 ff ff    	cmp    $0xfffffffffffff001,%rax
    f3e9:	73 34                	jae    f41f <__msgsnd_nocancel+0x46>
    f3eb:	c3                   	retq   
    f3ec:	48 83 ec 08          	sub    $0x8,%rsp
    f3f0:	e8 eb ee ff ff       	callq  e2e0 <__pthread_enable_asynccancel>
    f3f5:	48 89 04 24          	mov    %rax,(%rsp)
    f3f9:	49 89 ca             	mov    %rcx,%r10
    f3fc:	b8 45 00 00 00       	mov    $0x45,%eax
    f401:	0f 05                	syscall 
    f403:	48 8b 3c 24          	mov    (%rsp),%rdi
    f407:	48 89 c2             	mov    %rax,%rdx
    f40a:	e8 31 ef ff ff       	callq  e340 <__pthread_disable_asynccancel>
    f40f:	48 89 d0             	mov    %rdx,%rax
    f412:	48 83 c4 08          	add    $0x8,%rsp
    f416:	48 3d 01 f0 ff ff    	cmp    $0xfffffffffffff001,%rax
    f41c:	73 01                	jae    f41f <__msgsnd_nocancel+0x46>
    f41e:	c3                   	retq   
    f41f:	48 8b 0d 5a 8b 20 00 	mov    0x208b5a(%rip),%rcx        # 217f80 <_DYNAMIC+0x1f0>
    f426:	f7 d8                	neg    %eax
    f428:	64 89 01             	mov    %eax,%fs:(%rcx)
    f42b:	48 83 c8 ff          	or     $0xffffffffffffffff,%rax
    f42f:	c3                   	retq   

000000000000f430 <do_sigwait>:
    f430:	55                   	push   %rbp
    f431:	49 89 f8             	mov    %rdi,%r8
    f434:	48 89 e5             	mov    %rsp,%rbp
    f437:	53                   	push   %rbx
    f438:	48 89 f3             	mov    %rsi,%rbx
    f43b:	48 83 ec 10          	sub    $0x10,%rsp
    f43f:	48 85 ff             	test   %rdi,%rdi
    f442:	74 0f                	je     f453 <do_sigwait+0x23>
    f444:	48 b8 00 00 00 80 01 	movabs $0x180000000,%rax
    f44b:	00 00 00 
    f44e:	48 85 07             	test   %rax,(%rdi)
    f451:	75 48                	jne    f49b <do_sigwait+0x6b>
    f453:	41 b9 80 00 00 00    	mov    $0x80,%r9d
    f459:	41 ba 08 00 00 00    	mov    $0x8,%r10d
    f45f:	31 d2                	xor    %edx,%edx
    f461:	31 f6                	xor    %esi,%esi
    f463:	4c 89 c7             	mov    %r8,%rdi
    f466:	44 89 c8             	mov    %r9d,%eax
    f469:	0f 05                	syscall 
    f46b:	3d 00 f0 ff ff       	cmp    $0xfffff000,%eax
    f470:	76 1e                	jbe    f490 <do_sigwait+0x60>
    f472:	83 f8 fc             	cmp    $0xfffffffc,%eax
    f475:	74 e2                	je     f459 <do_sigwait+0x29>
    f477:	3d 00 f0 ff ff       	cmp    $0xfffff000,%eax
    f47c:	76 12                	jbe    f490 <do_sigwait+0x60>
    f47e:	f7 d8                	neg    %eax
    f480:	48 83 c4 10          	add    $0x10,%rsp
    f484:	5b                   	pop    %rbx
    f485:	c9                   	leaveq 
    f486:	c3                   	retq   
    f487:	66 0f 1f 84 00 00 00 	nopw   0x0(%rax,%rax,1)
    f48e:	00 00 
    f490:	89 03                	mov    %eax,(%rbx)
    f492:	31 c0                	xor    %eax,%eax
    f494:	48 83 c4 10          	add    $0x10,%rsp
    f498:	5b                   	pop    %rbx
    f499:	c9                   	leaveq 
    f49a:	c3                   	retq   
    f49b:	48 8b 07             	mov    (%rdi),%rax
    f49e:	4c 8d 85 70 ff ff ff 	lea    -0x90(%rbp),%r8
    f4a5:	48 89 85 70 ff ff ff 	mov    %rax,-0x90(%rbp)
    f4ac:	48 b8 ff ff ff 7f fe 	movabs $0xfffffffe7fffffff,%rax
    f4b3:	ff ff ff 
    f4b6:	48 21 85 70 ff ff ff 	and    %rax,-0x90(%rbp)
    f4bd:	eb 94                	jmp    f453 <do_sigwait+0x23>
    f4bf:	90                   	nop

000000000000f4c0 <sigwait>:
    f4c0:	55                   	push   %rbp
    f4c1:	48 89 e5             	mov    %rsp,%rbp
    f4c4:	53                   	push   %rbx
    f4c5:	48 83 ec 18          	sub    $0x18,%rsp
    f4c9:	8b 05 89 ce 20 00    	mov    0x20ce89(%rip),%eax        # 21c358 <__pthread_multiple_threads>
    f4cf:	85 c0                	test   %eax,%eax
    f4d1:	75 0b                	jne    f4de <sigwait+0x1e>
    f4d3:	48 83 c4 18          	add    $0x18,%rsp
    f4d7:	5b                   	pop    %rbx
    f4d8:	c9                   	leaveq 
    f4d9:	e9 52 ff ff ff       	jmpq   f430 <do_sigwait>
    f4de:	48 89 75 e0          	mov    %rsi,-0x20(%rbp)
    f4e2:	48 89 7d e8          	mov    %rdi,-0x18(%rbp)
    f4e6:	e8 f5 ed ff ff       	callq  e2e0 <__pthread_enable_asynccancel>
    f4eb:	48 8b 75 e0          	mov    -0x20(%rbp),%rsi
    f4ef:	48 8b 7d e8          	mov    -0x18(%rbp),%rdi
    f4f3:	89 c3                	mov    %eax,%ebx
    f4f5:	e8 36 ff ff ff       	callq  f430 <do_sigwait>
    f4fa:	89 df                	mov    %ebx,%edi
    f4fc:	89 45 e8             	mov    %eax,-0x18(%rbp)
    f4ff:	e8 3c ee ff ff       	callq  e340 <__pthread_disable_asynccancel>
    f504:	8b 45 e8             	mov    -0x18(%rbp),%eax
    f507:	48 83 c4 18          	add    $0x18,%rsp
    f50b:	5b                   	pop    %rbx
    f50c:	c9                   	leaveq 
    f50d:	c3                   	retq   
    f50e:	90                   	nop
    f50f:	90                   	nop

000000000000f510 <__sigsuspend_nocancel>:
    f510:	55                   	push   %rbp
    f511:	be 08 00 00 00       	mov    $0x8,%esi
    f516:	b8 82 00 00 00       	mov    $0x82,%eax
    f51b:	48 89 e5             	mov    %rsp,%rbp
    f51e:	0f 05                	syscall 
    f520:	48 3d 00 f0 ff ff    	cmp    $0xfffffffffffff000,%rax
    f526:	77 02                	ja     f52a <__sigsuspend_nocancel+0x1a>
    f528:	c9                   	leaveq 
    f529:	c3                   	retq   
    f52a:	48 8b 15 4f 8a 20 00 	mov    0x208a4f(%rip),%rdx        # 217f80 <_DYNAMIC+0x1f0>
    f531:	f7 d8                	neg    %eax
    f533:	64 89 02             	mov    %eax,%fs:(%rdx)
    f536:	83 c8 ff             	or     $0xffffffff,%eax
    f539:	c9                   	leaveq 
    f53a:	c3                   	retq   
    f53b:	0f 1f 44 00 00       	nopl   0x0(%rax,%rax,1)

000000000000f540 <__libc_sigsuspend>:
    f540:	55                   	push   %rbp
    f541:	48 89 e5             	mov    %rsp,%rbp
    f544:	48 83 ec 10          	sub    $0x10,%rsp
    f548:	8b 05 0a ce 20 00    	mov    0x20ce0a(%rip),%eax        # 21c358 <__pthread_multiple_threads>
    f54e:	85 c0                	test   %eax,%eax
    f550:	75 27                	jne    f579 <__libc_sigsuspend+0x39>
    f552:	be 08 00 00 00       	mov    $0x8,%esi
    f557:	b8 82 00 00 00       	mov    $0x82,%eax
    f55c:	0f 05                	syscall 
    f55e:	48 3d 00 f0 ff ff    	cmp    $0xfffffffffffff000,%rax
    f564:	77 02                	ja     f568 <__libc_sigsuspend+0x28>
    f566:	c9                   	leaveq 
    f567:	c3                   	retq   
    f568:	48 8b 15 11 8a 20 00 	mov    0x208a11(%rip),%rdx        # 217f80 <_DYNAMIC+0x1f0>
    f56f:	f7 d8                	neg    %eax
    f571:	64 89 02             	mov    %eax,%fs:(%rdx)
    f574:	83 c8 ff             	or     $0xffffffff,%eax
    f577:	c9                   	leaveq 
    f578:	c3                   	retq   
    f579:	48 89 7d f8          	mov    %rdi,-0x8(%rbp)
    f57d:	e8 5e ed ff ff       	callq  e2e0 <__pthread_enable_asynccancel>
    f582:	be 08 00 00 00       	mov    $0x8,%esi
    f587:	89 c2                	mov    %eax,%edx
    f589:	48 8b 7d f8          	mov    -0x8(%rbp),%rdi
    f58d:	b8 82 00 00 00       	mov    $0x82,%eax
    f592:	0f 05                	syscall 
    f594:	48 89 c6             	mov    %rax,%rsi
    f597:	48 81 fe 00 f0 ff ff 	cmp    $0xfffffffffffff000,%rsi
    f59e:	77 0f                	ja     f5af <__libc_sigsuspend+0x6f>
    f5a0:	89 45 f8             	mov    %eax,-0x8(%rbp)
    f5a3:	89 d7                	mov    %edx,%edi
    f5a5:	e8 96 ed ff ff       	callq  e340 <__pthread_disable_asynccancel>
    f5aa:	8b 45 f8             	mov    -0x8(%rbp),%eax
    f5ad:	c9                   	leaveq 
    f5ae:	c3                   	retq   
    f5af:	48 8b 05 ca 89 20 00 	mov    0x2089ca(%rip),%rax        # 217f80 <_DYNAMIC+0x1f0>
    f5b6:	f7 de                	neg    %esi
    f5b8:	64 89 30             	mov    %esi,%fs:(%rax)
    f5bb:	83 c8 ff             	or     $0xffffffff,%eax
    f5be:	eb e0                	jmp    f5a0 <__libc_sigsuspend+0x60>

000000000000f5c0 <raise>:
    f5c0:	55                   	push   %rbp
    f5c1:	48 89 e5             	mov    %rsp,%rbp
    f5c4:	64 8b 0c 25 d4 02 00 	mov    %fs:0x2d4,%ecx
    f5cb:	00 
    f5cc:	64 8b 34 25 d0 02 00 	mov    %fs:0x2d0,%esi
    f5d3:	00 
    f5d4:	89 c8                	mov    %ecx,%eax
    f5d6:	48 63 d7             	movslq %edi,%rdx
    f5d9:	48 63 f6             	movslq %esi,%rsi
    f5dc:	c1 f8 1f             	sar    $0x1f,%eax
    f5df:	89 c7                	mov    %eax,%edi
    f5e1:	31 cf                	xor    %ecx,%edi
    f5e3:	29 c7                	sub    %eax,%edi
    f5e5:	b8 ea 00 00 00       	mov    $0xea,%eax
    f5ea:	48 63 ff             	movslq %edi,%rdi
    f5ed:	0f 05                	syscall 
    f5ef:	48 3d 00 f0 ff ff    	cmp    $0xfffffffffffff000,%rax
    f5f5:	77 02                	ja     f5f9 <raise+0x39>
    f5f7:	c9                   	leaveq 
    f5f8:	c3                   	retq   
    f5f9:	48 8b 15 80 89 20 00 	mov    0x208980(%rip),%rdx        # 217f80 <_DYNAMIC+0x1f0>
    f600:	f7 d8                	neg    %eax
    f602:	64 89 02             	mov    %eax,%fs:(%rdx)
    f605:	83 c8 ff             	or     $0xffffffff,%eax
    f608:	c9                   	leaveq 
    f609:	c3                   	retq   
    f60a:	90                   	nop
    f60b:	90                   	nop
    f60c:	90                   	nop
    f60d:	90                   	nop
    f60e:	90                   	nop
    f60f:	90                   	nop

000000000000f610 <system>:
    f610:	55                   	push   %rbp
    f611:	48 89 e5             	mov    %rsp,%rbp
    f614:	c9                   	leaveq 
    f615:	e9 86 5d ff ff       	jmpq   53a0 <__libc_system@plt>
    f61a:	90                   	nop
    f61b:	90                   	nop
    f61c:	90                   	nop
    f61d:	90                   	nop
    f61e:	90                   	nop
    f61f:	90                   	nop

000000000000f620 <_IO_flockfile>:
    f620:	55                   	push   %rbp
    f621:	48 8b 97 88 00 00 00 	mov    0x88(%rdi),%rdx
    f628:	49 89 f9             	mov    %rdi,%r9
    f62b:	64 4c 8b 04 25 10 00 	mov    %fs:0x10,%r8
    f632:	00 00 
    f634:	48 89 e5             	mov    %rsp,%rbp
    f637:	4c 39 42 08          	cmp    %r8,0x8(%rdx)
    f63b:	74 18                	je     f655 <_IO_flockfile+0x35>
    f63d:	be 01 00 00 00       	mov    $0x1,%esi
    f642:	31 c0                	xor    %eax,%eax
    f644:	f0 0f b1 32          	lock cmpxchg %esi,(%rdx)
    f648:	75 11                	jne    f65b <_L_lock_15>
    f64a:	49 8b 91 88 00 00 00 	mov    0x88(%r9),%rdx
    f651:	4c 89 42 08          	mov    %r8,0x8(%rdx)
    f655:	83 42 04 01          	addl   $0x1,0x4(%rdx)
    f659:	c9                   	leaveq 
    f65a:	c3                   	retq   

000000000000f65b <_L_lock_15>:
    f65b:	48 8d 3a             	lea    (%rdx),%rdi
    f65e:	48 81 ec 80 00 00 00 	sub    $0x80,%rsp
    f665:	e8 36 ed ff ff       	callq  e3a0 <__lll_lock_wait_private>
    f66a:	48 81 c4 80 00 00 00 	add    $0x80,%rsp
    f671:	eb d7                	jmp    f64a <_IO_flockfile+0x2a>
    f673:	90                   	nop
    f674:	90                   	nop
    f675:	90                   	nop
    f676:	90                   	nop
    f677:	90                   	nop
    f678:	90                   	nop
    f679:	90                   	nop
    f67a:	90                   	nop
    f67b:	90                   	nop
    f67c:	90                   	nop
    f67d:	90                   	nop
    f67e:	90                   	nop
    f67f:	90                   	nop

000000000000f680 <_IO_ftrylockfile>:
    f680:	55                   	push   %rbp
    f681:	48 8b 97 88 00 00 00 	mov    0x88(%rdi),%rdx
    f688:	64 48 8b 34 25 10 00 	mov    %fs:0x10,%rsi
    f68f:	00 00 
    f691:	48 89 e5             	mov    %rsp,%rbp
    f694:	48 39 72 08          	cmp    %rsi,0x8(%rdx)
    f698:	74 36                	je     f6d0 <_IO_ftrylockfile+0x50>
    f69a:	31 c0                	xor    %eax,%eax
    f69c:	b9 01 00 00 00       	mov    $0x1,%ecx
    f6a1:	f0 0f b1 0a          	lock cmpxchg %ecx,(%rdx)
    f6a5:	85 c0                	test   %eax,%eax
    f6a7:	ba 10 00 00 00       	mov    $0x10,%edx
    f6ac:	74 0a                	je     f6b8 <_IO_ftrylockfile+0x38>
    f6ae:	89 d0                	mov    %edx,%eax
    f6b0:	c9                   	leaveq 
    f6b1:	c3                   	retq   
    f6b2:	66 0f 1f 44 00 00    	nopw   0x0(%rax,%rax,1)
    f6b8:	48 8b 87 88 00 00 00 	mov    0x88(%rdi),%rax
    f6bf:	30 d2                	xor    %dl,%dl
    f6c1:	48 89 70 08          	mov    %rsi,0x8(%rax)
    f6c5:	c7 40 04 01 00 00 00 	movl   $0x1,0x4(%rax)
    f6cc:	89 d0                	mov    %edx,%eax
    f6ce:	c9                   	leaveq 
    f6cf:	c3                   	retq   
    f6d0:	83 42 04 01          	addl   $0x1,0x4(%rdx)
    f6d4:	31 d2                	xor    %edx,%edx
    f6d6:	eb d6                	jmp    f6ae <_IO_ftrylockfile+0x2e>
    f6d8:	90                   	nop
    f6d9:	90                   	nop
    f6da:	90                   	nop
    f6db:	90                   	nop
    f6dc:	90                   	nop
    f6dd:	90                   	nop
    f6de:	90                   	nop
    f6df:	90                   	nop

000000000000f6e0 <_IO_funlockfile>:
    f6e0:	55                   	push   %rbp
    f6e1:	48 8b 97 88 00 00 00 	mov    0x88(%rdi),%rdx
    f6e8:	48 89 e5             	mov    %rsp,%rbp
    f6eb:	8b 42 04             	mov    0x4(%rdx),%eax
    f6ee:	83 e8 01             	sub    $0x1,%eax
    f6f1:	85 c0                	test   %eax,%eax
    f6f3:	89 42 04             	mov    %eax,0x4(%rdx)
    f6f6:	75 0d                	jne    f705 <_IO_funlockfile+0x25>
    f6f8:	48 c7 42 08 00 00 00 	movq   $0x0,0x8(%rdx)
    f6ff:	00 
    f700:	f0 ff 0a             	lock decl (%rdx)
    f703:	75 02                	jne    f707 <_L_unlock_15>
    f705:	c9                   	leaveq 
    f706:	c3                   	retq   

000000000000f707 <_L_unlock_15>:
    f707:	48 8d 3a             	lea    (%rdx),%rdi
    f70a:	48 81 ec 80 00 00 00 	sub    $0x80,%rsp
    f711:	e8 1a ee ff ff       	callq  e530 <__lll_unlock_wake_private>
    f716:	48 81 c4 80 00 00 00 	add    $0x80,%rsp
    f71d:	eb e6                	jmp    f705 <_IO_funlockfile+0x25>
    f71f:	90                   	nop
    f720:	90                   	nop
    f721:	66 66 66 66 66 66 2e 	data32 data32 data32 data32 data32 nopw %cs:0x0(%rax,%rax,1)
    f728:	0f 1f 84 00 00 00 00 
    f72f:	00 

000000000000f730 <__restore_rt>:
    f730:	48 c7 c0 0f 00 00 00 	mov    $0xf,%rax
    f737:	0f 05                	syscall 
    f739:	0f 1f 80 00 00 00 00 	nopl   0x0(%rax)

000000000000f740 <__libc_sigaction>:
    f740:	55                   	push   %rbp
    f741:	49 89 d0             	mov    %rdx,%r8
    f744:	48 89 e5             	mov    %rsp,%rbp
    f747:	48 81 ec c8 00 00 00 	sub    $0xc8,%rsp
    f74e:	48 85 f6             	test   %rsi,%rsi
    f751:	0f 84 b2 00 00 00    	je     f809 <__libc_sigaction+0xc9>
    f757:	48 8b 06             	mov    (%rsi),%rax
    f75a:	48 89 85 60 ff ff ff 	mov    %rax,-0xa0(%rbp)
    f761:	48 8b 46 08          	mov    0x8(%rsi),%rax
    f765:	48 89 85 78 ff ff ff 	mov    %rax,-0x88(%rbp)
    f76c:	48 8b 46 10          	mov    0x10(%rsi),%rax
    f770:	48 89 45 80          	mov    %rax,-0x80(%rbp)
    f774:	48 8b 46 18          	mov    0x18(%rsi),%rax
    f778:	48 89 45 88          	mov    %rax,-0x78(%rbp)
    f77c:	48 8b 46 20          	mov    0x20(%rsi),%rax
    f780:	48 89 45 90          	mov    %rax,-0x70(%rbp)
    f784:	48 8b 46 28          	mov    0x28(%rsi),%rax
    f788:	48 89 45 98          	mov    %rax,-0x68(%rbp)
    f78c:	48 8b 46 30          	mov    0x30(%rsi),%rax
    f790:	48 89 45 a0          	mov    %rax,-0x60(%rbp)
    f794:	48 8b 46 38          	mov    0x38(%rsi),%rax
    f798:	48 89 45 a8          	mov    %rax,-0x58(%rbp)
    f79c:	48 8b 46 40          	mov    0x40(%rsi),%rax
    f7a0:	48 89 45 b0          	mov    %rax,-0x50(%rbp)
    f7a4:	48 8b 46 48          	mov    0x48(%rsi),%rax
    f7a8:	48 89 45 b8          	mov    %rax,-0x48(%rbp)
    f7ac:	48 8b 46 50          	mov    0x50(%rsi),%rax
    f7b0:	48 89 45 c0          	mov    %rax,-0x40(%rbp)
    f7b4:	48 8b 46 58          	mov    0x58(%rsi),%rax
    f7b8:	48 89 45 c8          	mov    %rax,-0x38(%rbp)
    f7bc:	48 8b 46 60          	mov    0x60(%rsi),%rax
    f7c0:	48 89 45 d0          	mov    %rax,-0x30(%rbp)
    f7c4:	48 8b 46 68          	mov    0x68(%rsi),%rax
    f7c8:	48 89 45 d8          	mov    %rax,-0x28(%rbp)
    f7cc:	48 8b 46 70          	mov    0x70(%rsi),%rax
    f7d0:	48 89 45 e0          	mov    %rax,-0x20(%rbp)
    f7d4:	48 8b 46 78          	mov    0x78(%rsi),%rax
    f7d8:	48 89 45 e8          	mov    %rax,-0x18(%rbp)
    f7dc:	48 8b 86 80 00 00 00 	mov    0x80(%rsi),%rax
    f7e3:	48 89 45 f0          	mov    %rax,-0x10(%rbp)
    f7e7:	8b 86 88 00 00 00    	mov    0x88(%rsi),%eax
    f7ed:	0d 00 00 00 04       	or     $0x4000000,%eax
    f7f2:	48 98                	cltq   
    f7f4:	48 89 85 68 ff ff ff 	mov    %rax,-0x98(%rbp)
    f7fb:	48 8d 05 2e ff ff ff 	lea    -0xd2(%rip),%rax        # f730 <__restore_rt>
    f802:	48 89 85 70 ff ff ff 	mov    %rax,-0x90(%rbp)
    f809:	48 8d 95 c0 fe ff ff 	lea    -0x140(%rbp),%rdx
    f810:	31 c0                	xor    %eax,%eax
    f812:	48 8d 8d 60 ff ff ff 	lea    -0xa0(%rbp),%rcx
    f819:	4d 85 c0             	test   %r8,%r8
    f81c:	41 ba 08 00 00 00    	mov    $0x8,%r10d
    f822:	48 63 ff             	movslq %edi,%rdi
    f825:	48 0f 44 d0          	cmove  %rax,%rdx
    f829:	48 85 f6             	test   %rsi,%rsi
    f82c:	48 89 c6             	mov    %rax,%rsi
    f82f:	48 0f 45 f1          	cmovne %rcx,%rsi
    f833:	b0 0d                	mov    $0xd,%al
    f835:	0f 05                	syscall 
    f837:	48 3d 00 f0 ff ff    	cmp    $0xfffffffffffff000,%rax
    f83d:	0f 87 ec 00 00 00    	ja     f92f <__libc_sigaction+0x1ef>
    f843:	85 c0                	test   %eax,%eax
    f845:	0f 88 e2 00 00 00    	js     f92d <__libc_sigaction+0x1ed>
    f84b:	4d 85 c0             	test   %r8,%r8
    f84e:	0f 84 d9 00 00 00    	je     f92d <__libc_sigaction+0x1ed>
    f854:	48 8b 95 c0 fe ff ff 	mov    -0x140(%rbp),%rdx
    f85b:	49 89 10             	mov    %rdx,(%r8)
    f85e:	48 8b 95 d8 fe ff ff 	mov    -0x128(%rbp),%rdx
    f865:	49 89 50 08          	mov    %rdx,0x8(%r8)
    f869:	48 8b 95 e0 fe ff ff 	mov    -0x120(%rbp),%rdx
    f870:	49 89 50 10          	mov    %rdx,0x10(%r8)
    f874:	48 8b 95 e8 fe ff ff 	mov    -0x118(%rbp),%rdx
    f87b:	49 89 50 18          	mov    %rdx,0x18(%r8)
    f87f:	48 8b 95 f0 fe ff ff 	mov    -0x110(%rbp),%rdx
    f886:	49 89 50 20          	mov    %rdx,0x20(%r8)
    f88a:	48 8b 95 f8 fe ff ff 	mov    -0x108(%rbp),%rdx
    f891:	49 89 50 28          	mov    %rdx,0x28(%r8)
    f895:	48 8b 95 00 ff ff ff 	mov    -0x100(%rbp),%rdx
    f89c:	49 89 50 30          	mov    %rdx,0x30(%r8)
    f8a0:	48 8b 95 08 ff ff ff 	mov    -0xf8(%rbp),%rdx
    f8a7:	49 89 50 38          	mov    %rdx,0x38(%r8)
    f8ab:	48 8b 95 10 ff ff ff 	mov    -0xf0(%rbp),%rdx
    f8b2:	49 89 50 40          	mov    %rdx,0x40(%r8)
    f8b6:	48 8b 95 18 ff ff ff 	mov    -0xe8(%rbp),%rdx
    f8bd:	49 89 50 48          	mov    %rdx,0x48(%r8)
    f8c1:	48 8b 95 20 ff ff ff 	mov    -0xe0(%rbp),%rdx
    f8c8:	49 89 50 50          	mov    %rdx,0x50(%r8)
    f8cc:	48 8b 95 28 ff ff ff 	mov    -0xd8(%rbp),%rdx
    f8d3:	49 89 50 58          	mov    %rdx,0x58(%r8)
    f8d7:	48 8b 95 30 ff ff ff 	mov    -0xd0(%rbp),%rdx
    f8de:	49 89 50 60          	mov    %rdx,0x60(%r8)
    f8e2:	48 8b 95 38 ff ff ff 	mov    -0xc8(%rbp),%rdx
    f8e9:	49 89 50 68          	mov    %rdx,0x68(%r8)
    f8ed:	48 8b 95 40 ff ff ff 	mov    -0xc0(%rbp),%rdx
    f8f4:	49 89 50 70          	mov    %rdx,0x70(%r8)
    f8f8:	48 8b 95 48 ff ff ff 	mov    -0xb8(%rbp),%rdx
    f8ff:	49 89 50 78          	mov    %rdx,0x78(%r8)
    f903:	48 8b 95 50 ff ff ff 	mov    -0xb0(%rbp),%rdx
    f90a:	49 89 90 80 00 00 00 	mov    %rdx,0x80(%r8)
    f911:	48 8b 95 c8 fe ff ff 	mov    -0x138(%rbp),%rdx
    f918:	41 89 90 88 00 00 00 	mov    %edx,0x88(%r8)
    f91f:	48 8b 95 d0 fe ff ff 	mov    -0x130(%rbp),%rdx
    f926:	49 89 90 90 00 00 00 	mov    %rdx,0x90(%r8)
    f92d:	c9                   	leaveq 
    f92e:	c3                   	retq   
    f92f:	48 8b 15 4a 86 20 00 	mov    0x20864a(%rip),%rdx        # 217f80 <_DYNAMIC+0x1f0>
    f936:	f7 d8                	neg    %eax
    f938:	64 89 02             	mov    %eax,%fs:(%rdx)
    f93b:	83 c8 ff             	or     $0xffffffff,%eax
    f93e:	c9                   	leaveq 
    f93f:	c3                   	retq   

000000000000f940 <__sigaction>:
    f940:	8d 47 e0             	lea    -0x20(%rdi),%eax
    f943:	55                   	push   %rbp
    f944:	83 f8 01             	cmp    $0x1,%eax
    f947:	48 89 e5             	mov    %rsp,%rbp
    f94a:	76 06                	jbe    f952 <__sigaction+0x12>
    f94c:	c9                   	leaveq 
    f94d:	e9 ee fd ff ff       	jmpq   f740 <__libc_sigaction>
    f952:	48 8b 05 27 86 20 00 	mov    0x208627(%rip),%rax        # 217f80 <_DYNAMIC+0x1f0>
    f959:	64 c7 00 16 00 00 00 	movl   $0x16,%fs:(%rax)
    f960:	83 c8 ff             	or     $0xffffffff,%eax
    f963:	c9                   	leaveq 
    f964:	c3                   	retq   
    f965:	90                   	nop
    f966:	90                   	nop
    f967:	90                   	nop
    f968:	90                   	nop
    f969:	90                   	nop
    f96a:	90                   	nop
    f96b:	90                   	nop
    f96c:	90                   	nop
    f96d:	90                   	nop
    f96e:	90                   	nop
    f96f:	90                   	nop

000000000000f970 <__h_errno_location>:
    f970:	55                   	push   %rbp
    f971:	48 89 e5             	mov    %rsp,%rbp
    f974:	66 48 8d 3d 0c 86 20 	data32 lea 0x20860c(%rip),%rdi        # 217f88 <_DYNAMIC+0x1f8>
    f97b:	00 
    f97c:	66 66 48 e8 cc 5a ff 	data32 data32 callq 5450 <__tls_get_addr@plt>
    f983:	ff 
    f984:	c9                   	leaveq 
    f985:	c3                   	retq   
    f986:	90                   	nop
    f987:	90                   	nop
    f988:	90                   	nop
    f989:	90                   	nop
    f98a:	90                   	nop
    f98b:	90                   	nop
    f98c:	90                   	nop
    f98d:	90                   	nop
    f98e:	90                   	nop
    f98f:	90                   	nop

000000000000f990 <__res_state>:
    f990:	48 8b 05 01 86 20 00 	mov    0x208601(%rip),%rax        # 217f98 <_DYNAMIC+0x208>
    f997:	55                   	push   %rbp
    f998:	48 89 e5             	mov    %rsp,%rbp
    f99b:	64 48 8b 00          	mov    %fs:(%rax),%rax
    f99f:	c9                   	leaveq 
    f9a0:	c3                   	retq   
    f9a1:	90                   	nop
    f9a2:	90                   	nop
    f9a3:	90                   	nop
    f9a4:	90                   	nop
    f9a5:	90                   	nop
    f9a6:	90                   	nop
    f9a7:	90                   	nop
    f9a8:	90                   	nop
    f9a9:	90                   	nop
    f9aa:	90                   	nop
    f9ab:	90                   	nop
    f9ac:	90                   	nop
    f9ad:	90                   	nop
    f9ae:	90                   	nop
    f9af:	90                   	nop

000000000000f9b0 <__libc_allocate_rtsig>:
    f9b0:	55                   	push   %rbp
    f9b1:	48 89 e5             	mov    %rsp,%rbp
    f9b4:	c9                   	leaveq 
    f9b5:	e9 46 5d ff ff       	jmpq   5700 <__libc_allocate_rtsig_private@plt>
    f9ba:	66 0f 1f 44 00 00    	nopw   0x0(%rax,%rax,1)

000000000000f9c0 <__libc_current_sigrtmax>:
    f9c0:	55                   	push   %rbp
    f9c1:	48 89 e5             	mov    %rsp,%rbp
    f9c4:	c9                   	leaveq 
    f9c5:	e9 46 5b ff ff       	jmpq   5510 <__libc_current_sigrtmax_private@plt>
    f9ca:	66 0f 1f 44 00 00    	nopw   0x0(%rax,%rax,1)

000000000000f9d0 <__libc_current_sigrtmin>:
    f9d0:	55                   	push   %rbp
    f9d1:	48 89 e5             	mov    %rsp,%rbp
    f9d4:	c9                   	leaveq 
    f9d5:	e9 26 5c ff ff       	jmpq   5600 <__libc_current_sigrtmin_private@plt>
    f9da:	90                   	nop
    f9db:	90                   	nop
    f9dc:	90                   	nop
    f9dd:	90                   	nop
    f9de:	90                   	nop
    f9df:	90                   	nop

000000000000f9e0 <pthread_kill_other_threads_np@GLIBC_2.2.5>:
    f9e0:	55                   	push   %rbp
    f9e1:	48 89 e5             	mov    %rsp,%rbp
    f9e4:	c9                   	leaveq 
    f9e5:	c3                   	retq   
    f9e6:	90                   	nop
    f9e7:	90                   	nop
    f9e8:	90                   	nop
    f9e9:	90                   	nop
    f9ea:	90                   	nop
    f9eb:	90                   	nop
    f9ec:	90                   	nop
    f9ed:	90                   	nop
    f9ee:	90                   	nop
    f9ef:	90                   	nop

000000000000f9f0 <pthread_getaffinity_np@@GLIBC_2.3.4>:
    f9f0:	49 89 f0             	mov    %rsi,%r8
    f9f3:	55                   	push   %rbp
    f9f4:	be ff ff ff 7f       	mov    $0x7fffffff,%esi
    f9f9:	49 81 f8 ff ff ff 7f 	cmp    $0x7fffffff,%r8
    fa00:	49 89 d1             	mov    %rdx,%r9
    fa03:	48 63 bf d0 02 00 00 	movslq 0x2d0(%rdi),%rdi
    fa0a:	48 89 e5             	mov    %rsp,%rbp
    fa0d:	49 0f 46 f0          	cmovbe %r8,%rsi
    fa11:	b8 cc 00 00 00       	mov    $0xcc,%eax
    fa16:	0f 05                	syscall 
    fa18:	3d 00 f0 ff ff       	cmp    $0xfffff000,%eax
    fa1d:	76 09                	jbe    fa28 <pthread_getaffinity_np@@GLIBC_2.3.4+0x38>
    fa1f:	f7 d8                	neg    %eax
    fa21:	c9                   	leaveq 
    fa22:	c3                   	retq   
    fa23:	0f 1f 44 00 00       	nopl   0x0(%rax,%rax,1)
    fa28:	48 98                	cltq   
    fa2a:	4c 89 c2             	mov    %r8,%rdx
    fa2d:	31 f6                	xor    %esi,%esi
    fa2f:	49 8d 3c 01          	lea    (%r9,%rax,1),%rdi
    fa33:	48 29 c2             	sub    %rax,%rdx
    fa36:	e8 b5 59 ff ff       	callq  53f0 <memset@plt>
    fa3b:	31 c0                	xor    %eax,%eax
    fa3d:	c9                   	leaveq 
    fa3e:	c3                   	retq   
    fa3f:	90                   	nop

000000000000fa40 <pthread_getaffinity_np@GLIBC_2.3.3>:
    fa40:	55                   	push   %rbp
    fa41:	48 89 f2             	mov    %rsi,%rdx
    fa44:	be 80 00 00 00       	mov    $0x80,%esi
    fa49:	48 89 e5             	mov    %rsp,%rbp
    fa4c:	c9                   	leaveq 
    fa4d:	e9 9e ff ff ff       	jmpq   f9f0 <pthread_getaffinity_np@@GLIBC_2.3.4>
    fa52:	90                   	nop
    fa53:	90                   	nop
    fa54:	90                   	nop
    fa55:	90                   	nop
    fa56:	90                   	nop
    fa57:	90                   	nop
    fa58:	90                   	nop
    fa59:	90                   	nop
    fa5a:	90                   	nop
    fa5b:	90                   	nop
    fa5c:	90                   	nop
    fa5d:	90                   	nop
    fa5e:	90                   	nop
    fa5f:	90                   	nop

000000000000fa60 <__determine_cpumask_size>:
    fa60:	55                   	push   %rbp
    fa61:	4c 63 d7             	movslq %edi,%r10
    fa64:	41 b8 80 00 00 00    	mov    $0x80,%r8d
    fa6a:	48 89 e5             	mov    %rsp,%rbp
    fa6d:	53                   	push   %rbx
    fa6e:	bb cc 00 00 00       	mov    $0xcc,%ebx
    fa73:	48 81 ec 98 00 00 00 	sub    $0x98,%rsp
    fa7a:	4c 8d 4c 24 0f       	lea    0xf(%rsp),%r9
    fa7f:	49 83 e1 f0          	and    $0xfffffffffffffff0,%r9
    fa83:	eb 2d                	jmp    fab2 <__determine_cpumask_size+0x52>
    fa85:	0f 1f 00             	nopl   (%rax)
    fa88:	4b 8d 44 00 0f       	lea    0xf(%r8,%r8,1),%rax
    fa8d:	48 83 e0 f0          	and    $0xfffffffffffffff0,%rax
    fa91:	48 8d 50 10          	lea    0x10(%rax),%rdx
    fa95:	49 01 c0             	add    %rax,%r8
    fa98:	48 29 d4             	sub    %rdx,%rsp
    fa9b:	48 8d 54 24 0f       	lea    0xf(%rsp),%rdx
    faa0:	48 83 e2 f0          	and    $0xfffffffffffffff0,%rdx
    faa4:	48 8d 0c 02          	lea    (%rdx,%rax,1),%rcx
    faa8:	49 39 c9             	cmp    %rcx,%r9
    faab:	49 89 d1             	mov    %rdx,%r9
    faae:	4c 0f 45 c0          	cmovne %rax,%r8
    fab2:	4c 89 ca             	mov    %r9,%rdx
    fab5:	4c 89 c6             	mov    %r8,%rsi
    fab8:	4c 89 d7             	mov    %r10,%rdi
    fabb:	89 d8                	mov    %ebx,%eax
    fabd:	0f 05                	syscall 
    fabf:	3d 00 f0 ff ff       	cmp    $0xfffff000,%eax
    fac4:	0f 97 c2             	seta   %dl
    fac7:	31 c9                	xor    %ecx,%ecx
    fac9:	83 f8 ea             	cmp    $0xffffffea,%eax
    facc:	0f 94 c1             	sete   %cl
    facf:	85 d1                	test   %edx,%ecx
    fad1:	75 b5                	jne    fa88 <__determine_cpumask_size+0x28>
    fad3:	3d 00 f0 ff ff       	cmp    $0xfffff000,%eax
    fad8:	77 16                	ja     faf0 <__determine_cpumask_size+0x90>
    fada:	85 c0                	test   %eax,%eax
    fadc:	74 12                	je     faf0 <__determine_cpumask_size+0x90>
    fade:	48 98                	cltq   
    fae0:	48 89 05 c1 c8 20 00 	mov    %rax,0x20c8c1(%rip)        # 21c3a8 <__kernel_cpumask_size>
    fae7:	31 c0                	xor    %eax,%eax
    fae9:	48 8b 5d f8          	mov    -0x8(%rbp),%rbx
    faed:	c9                   	leaveq 
    faee:	c3                   	retq   
    faef:	90                   	nop
    faf0:	f7 d8                	neg    %eax
    faf2:	48 8b 5d f8          	mov    -0x8(%rbp),%rbx
    faf6:	c9                   	leaveq 
    faf7:	c3                   	retq   
    faf8:	0f 1f 84 00 00 00 00 	nopl   0x0(%rax,%rax,1)
    faff:	00 

000000000000fb00 <pthread_setaffinity_np@@GLIBC_2.3.4>:
    fb00:	55                   	push   %rbp
    fb01:	48 89 e5             	mov    %rsp,%rbp
    fb04:	53                   	push   %rbx
    fb05:	48 89 fb             	mov    %rdi,%rbx
    fb08:	48 83 ec 18          	sub    $0x18,%rsp
    fb0c:	48 8b 05 95 c8 20 00 	mov    0x20c895(%rip),%rax        # 21c3a8 <__kernel_cpumask_size>
    fb13:	48 85 c0             	test   %rax,%rax
    fb16:	0f 84 80 00 00 00    	je     fb9c <pthread_setaffinity_np@@GLIBC_2.3.4+0x9c>
    fb1c:	48 39 f0             	cmp    %rsi,%rax
    fb1f:	73 25                	jae    fb46 <pthread_setaffinity_np@@GLIBC_2.3.4+0x46>
    fb21:	48 8d 0c 02          	lea    (%rdx,%rax,1),%rcx
    fb25:	80 39 00             	cmpb   $0x0,(%rcx)
    fb28:	74 13                	je     fb3d <pthread_setaffinity_np@@GLIBC_2.3.4+0x3d>
    fb2a:	eb 64                	jmp    fb90 <pthread_setaffinity_np@@GLIBC_2.3.4+0x90>
    fb2c:	0f 1f 40 00          	nopl   0x0(%rax)
    fb30:	0f b6 79 01          	movzbl 0x1(%rcx),%edi
    fb34:	48 83 c1 01          	add    $0x1,%rcx
    fb38:	40 84 ff             	test   %dil,%dil
    fb3b:	75 53                	jne    fb90 <pthread_setaffinity_np@@GLIBC_2.3.4+0x90>
    fb3d:	48 83 c0 01          	add    $0x1,%rax
    fb41:	48 39 c6             	cmp    %rax,%rsi
    fb44:	77 ea                	ja     fb30 <pthread_setaffinity_np@@GLIBC_2.3.4+0x30>
    fb46:	48 63 bb d0 02 00 00 	movslq 0x2d0(%rbx),%rdi
    fb4d:	b8 cb 00 00 00       	mov    $0xcb,%eax
    fb52:	0f 05                	syscall 
    fb54:	3d 00 f0 ff ff       	cmp    $0xfffff000,%eax
    fb59:	76 0d                	jbe    fb68 <pthread_setaffinity_np@@GLIBC_2.3.4+0x68>
    fb5b:	f7 d8                	neg    %eax
    fb5d:	48 83 c4 18          	add    $0x18,%rsp
    fb61:	5b                   	pop    %rbx
    fb62:	c9                   	leaveq 
    fb63:	c3                   	retq   
    fb64:	0f 1f 40 00          	nopl   0x0(%rax)
    fb68:	64 c7 04 25 38 00 00 	movl   $0x0,%fs:0x38
    fb6f:	00 00 00 00 00 
    fb74:	64 c7 04 25 40 00 00 	movl   $0x0,%fs:0x40
    fb7b:	00 00 00 00 00 
    fb80:	31 c0                	xor    %eax,%eax
    fb82:	48 83 c4 18          	add    $0x18,%rsp
    fb86:	5b                   	pop    %rbx
    fb87:	c9                   	leaveq 
    fb88:	c3                   	retq   
    fb89:	0f 1f 80 00 00 00 00 	nopl   0x0(%rax)
    fb90:	48 83 c4 18          	add    $0x18,%rsp
    fb94:	b8 16 00 00 00       	mov    $0x16,%eax
    fb99:	5b                   	pop    %rbx
    fb9a:	c9                   	leaveq 
    fb9b:	c3                   	retq   
    fb9c:	8b bf d0 02 00 00    	mov    0x2d0(%rdi),%edi
    fba2:	48 89 55 e0          	mov    %rdx,-0x20(%rbp)
    fba6:	48 89 75 e8          	mov    %rsi,-0x18(%rbp)
    fbaa:	e8 b1 fe ff ff       	callq  fa60 <__determine_cpumask_size>
    fbaf:	85 c0                	test   %eax,%eax
    fbb1:	48 8b 55 e0          	mov    -0x20(%rbp),%rdx
    fbb5:	48 8b 75 e8          	mov    -0x18(%rbp),%rsi
    fbb9:	75 a2                	jne    fb5d <pthread_setaffinity_np@@GLIBC_2.3.4+0x5d>
    fbbb:	48 8b 05 e6 c7 20 00 	mov    0x20c7e6(%rip),%rax        # 21c3a8 <__kernel_cpumask_size>
    fbc2:	e9 55 ff ff ff       	jmpq   fb1c <pthread_setaffinity_np@@GLIBC_2.3.4+0x1c>
    fbc7:	66 0f 1f 84 00 00 00 	nopw   0x0(%rax,%rax,1)
    fbce:	00 00 

000000000000fbd0 <pthread_setaffinity_np@GLIBC_2.3.3>:
    fbd0:	55                   	push   %rbp
    fbd1:	48 89 f2             	mov    %rsi,%rdx
    fbd4:	be 80 00 00 00       	mov    $0x80,%esi
    fbd9:	48 89 e5             	mov    %rsp,%rbp
    fbdc:	c9                   	leaveq 
    fbdd:	e9 1e ff ff ff       	jmpq   fb00 <pthread_setaffinity_np@@GLIBC_2.3.4>
    fbe2:	90                   	nop
    fbe3:	90                   	nop
    fbe4:	90                   	nop
    fbe5:	90                   	nop
    fbe6:	90                   	nop
    fbe7:	90                   	nop
    fbe8:	90                   	nop
    fbe9:	90                   	nop
    fbea:	90                   	nop
    fbeb:	90                   	nop
    fbec:	90                   	nop
    fbed:	90                   	nop
    fbee:	90                   	nop
    fbef:	90                   	nop

000000000000fbf0 <pthread_attr_getaffinity_np@@GLIBC_2.3.4>:
    fbf0:	55                   	push   %rbp
    fbf1:	48 89 e5             	mov    %rsp,%rbp
    fbf4:	41 54                	push   %r12
    fbf6:	49 89 fc             	mov    %rdi,%r12
    fbf9:	48 89 d7             	mov    %rdx,%rdi
    fbfc:	53                   	push   %rbx
    fbfd:	48 89 f3             	mov    %rsi,%rbx
    fc00:	49 8b 74 24 28       	mov    0x28(%r12),%rsi
    fc05:	48 85 f6             	test   %rsi,%rsi
    fc08:	74 7a                	je     fc84 <pthread_attr_getaffinity_np@@GLIBC_2.3.4+0x94>
    fc0a:	49 8b 54 24 30       	mov    0x30(%r12),%rdx
    fc0f:	48 39 d3             	cmp    %rdx,%rbx
    fc12:	73 2b                	jae    fc3f <pthread_attr_getaffinity_np@@GLIBC_2.3.4+0x4f>
    fc14:	48 8d 0c 1e          	lea    (%rsi,%rbx,1),%rcx
    fc18:	48 89 d8             	mov    %rbx,%rax
    fc1b:	80 39 00             	cmpb   $0x0,(%rcx)
    fc1e:	74 16                	je     fc36 <pthread_attr_getaffinity_np@@GLIBC_2.3.4+0x46>
    fc20:	eb 3e                	jmp    fc60 <pthread_attr_getaffinity_np@@GLIBC_2.3.4+0x70>
    fc22:	66 0f 1f 44 00 00    	nopw   0x0(%rax,%rax,1)
    fc28:	44 0f b6 41 01       	movzbl 0x1(%rcx),%r8d
    fc2d:	48 83 c1 01          	add    $0x1,%rcx
    fc31:	45 84 c0             	test   %r8b,%r8b
    fc34:	75 2a                	jne    fc60 <pthread_attr_getaffinity_np@@GLIBC_2.3.4+0x70>
    fc36:	48 83 c0 01          	add    $0x1,%rax
    fc3a:	48 39 d0             	cmp    %rdx,%rax
    fc3d:	72 e9                	jb     fc28 <pthread_attr_getaffinity_np@@GLIBC_2.3.4+0x38>
    fc3f:	e8 ac 59 ff ff       	callq  55f0 <mempcpy@plt>
    fc44:	49 8b 54 24 30       	mov    0x30(%r12),%rdx
    fc49:	48 89 c7             	mov    %rax,%rdi
    fc4c:	31 c0                	xor    %eax,%eax
    fc4e:	48 39 d3             	cmp    %rdx,%rbx
    fc51:	77 1d                	ja     fc70 <pthread_attr_getaffinity_np@@GLIBC_2.3.4+0x80>
    fc53:	5b                   	pop    %rbx
    fc54:	41 5c                	pop    %r12
    fc56:	c9                   	leaveq 
    fc57:	c3                   	retq   
    fc58:	0f 1f 84 00 00 00 00 	nopl   0x0(%rax,%rax,1)
    fc5f:	00 
    fc60:	5b                   	pop    %rbx
    fc61:	b8 16 00 00 00       	mov    $0x16,%eax
    fc66:	41 5c                	pop    %r12
    fc68:	c9                   	leaveq 
    fc69:	c3                   	retq   
    fc6a:	66 0f 1f 44 00 00    	nopw   0x0(%rax,%rax,1)
    fc70:	48 29 d3             	sub    %rdx,%rbx
    fc73:	31 f6                	xor    %esi,%esi
    fc75:	48 89 da             	mov    %rbx,%rdx
    fc78:	e8 73 57 ff ff       	callq  53f0 <memset@plt>
    fc7d:	5b                   	pop    %rbx
    fc7e:	31 c0                	xor    %eax,%eax
    fc80:	41 5c                	pop    %r12
    fc82:	c9                   	leaveq 
    fc83:	c3                   	retq   
    fc84:	48 89 da             	mov    %rbx,%rdx
    fc87:	be ff ff ff ff       	mov    $0xffffffff,%esi
    fc8c:	e8 5f 57 ff ff       	callq  53f0 <memset@plt>
    fc91:	31 c0                	xor    %eax,%eax
    fc93:	eb be                	jmp    fc53 <pthread_attr_getaffinity_np@@GLIBC_2.3.4+0x63>
    fc95:	66 66 2e 0f 1f 84 00 	data32 nopw %cs:0x0(%rax,%rax,1)
    fc9c:	00 00 00 00 

000000000000fca0 <pthread_attr_getaffinity_np@GLIBC_2.3.3>:
    fca0:	55                   	push   %rbp
    fca1:	48 89 f2             	mov    %rsi,%rdx
    fca4:	be 80 00 00 00       	mov    $0x80,%esi
    fca9:	48 89 e5             	mov    %rsp,%rbp
    fcac:	c9                   	leaveq 
    fcad:	e9 3e ff ff ff       	jmpq   fbf0 <pthread_attr_getaffinity_np@@GLIBC_2.3.4>
    fcb2:	90                   	nop
    fcb3:	90                   	nop
    fcb4:	90                   	nop
    fcb5:	90                   	nop
    fcb6:	90                   	nop
    fcb7:	90                   	nop
    fcb8:	90                   	nop
    fcb9:	90                   	nop
    fcba:	90                   	nop
    fcbb:	90                   	nop
    fcbc:	90                   	nop
    fcbd:	90                   	nop
    fcbe:	90                   	nop
    fcbf:	90                   	nop

000000000000fcc0 <pthread_attr_setaffinity_np@@GLIBC_2.3.4>:
    fcc0:	55                   	push   %rbp
    fcc1:	48 89 e5             	mov    %rsp,%rbp
    fcc4:	41 55                	push   %r13
    fcc6:	49 89 fd             	mov    %rdi,%r13
    fcc9:	41 54                	push   %r12
    fccb:	49 89 d4             	mov    %rdx,%r12
    fcce:	53                   	push   %rbx
    fccf:	48 89 f3             	mov    %rsi,%rbx
    fcd2:	48 83 ec 08          	sub    $0x8,%rsp
    fcd6:	48 85 d2             	test   %rdx,%rdx
    fcd9:	0f 84 b9 00 00 00    	je     fd98 <pthread_attr_setaffinity_np@@GLIBC_2.3.4+0xd8>
    fcdf:	48 85 f6             	test   %rsi,%rsi
    fce2:	0f 84 b0 00 00 00    	je     fd98 <pthread_attr_setaffinity_np@@GLIBC_2.3.4+0xd8>
    fce8:	48 8b 05 b9 c6 20 00 	mov    0x20c6b9(%rip),%rax        # 21c3a8 <__kernel_cpumask_size>
    fcef:	48 85 c0             	test   %rax,%rax
    fcf2:	74 7c                	je     fd70 <pthread_attr_setaffinity_np@@GLIBC_2.3.4+0xb0>
    fcf4:	48 39 d8             	cmp    %rbx,%rax
    fcf7:	73 24                	jae    fd1d <pthread_attr_setaffinity_np@@GLIBC_2.3.4+0x5d>
    fcf9:	49 8d 14 04          	lea    (%r12,%rax,1),%rdx
    fcfd:	80 3a 00             	cmpb   $0x0,(%rdx)
    fd00:	74 12                	je     fd14 <pthread_attr_setaffinity_np@@GLIBC_2.3.4+0x54>
    fd02:	eb 5c                	jmp    fd60 <pthread_attr_setaffinity_np@@GLIBC_2.3.4+0xa0>
    fd04:	0f 1f 40 00          	nopl   0x0(%rax)
    fd08:	0f b6 4a 01          	movzbl 0x1(%rdx),%ecx
    fd0c:	48 83 c2 01          	add    $0x1,%rdx
    fd10:	84 c9                	test   %cl,%cl
    fd12:	75 4c                	jne    fd60 <pthread_attr_setaffinity_np@@GLIBC_2.3.4+0xa0>
    fd14:	48 83 c0 01          	add    $0x1,%rax
    fd18:	48 39 c3             	cmp    %rax,%rbx
    fd1b:	77 eb                	ja     fd08 <pthread_attr_setaffinity_np@@GLIBC_2.3.4+0x48>
    fd1d:	49 39 5d 30          	cmp    %rbx,0x30(%r13)
    fd21:	0f 84 97 00 00 00    	je     fdbe <pthread_attr_setaffinity_np@@GLIBC_2.3.4+0xfe>
    fd27:	49 8b 7d 28          	mov    0x28(%r13),%rdi
    fd2b:	48 89 de             	mov    %rbx,%rsi
    fd2e:	e8 7d 58 ff ff       	callq  55b0 <realloc@plt>
    fd33:	48 89 c7             	mov    %rax,%rdi
    fd36:	b8 0c 00 00 00       	mov    $0xc,%eax
    fd3b:	48 85 ff             	test   %rdi,%rdi
    fd3e:	74 15                	je     fd55 <pthread_attr_setaffinity_np@@GLIBC_2.3.4+0x95>
    fd40:	49 89 7d 28          	mov    %rdi,0x28(%r13)
    fd44:	49 89 5d 30          	mov    %rbx,0x30(%r13)
    fd48:	48 89 da             	mov    %rbx,%rdx
    fd4b:	4c 89 e6             	mov    %r12,%rsi
    fd4e:	e8 9d 57 ff ff       	callq  54f0 <memcpy@plt>
    fd53:	31 c0                	xor    %eax,%eax
    fd55:	48 83 c4 08          	add    $0x8,%rsp
    fd59:	5b                   	pop    %rbx
    fd5a:	41 5c                	pop    %r12
    fd5c:	41 5d                	pop    %r13
    fd5e:	c9                   	leaveq 
    fd5f:	c3                   	retq   
    fd60:	48 83 c4 08          	add    $0x8,%rsp
    fd64:	b8 16 00 00 00       	mov    $0x16,%eax
    fd69:	5b                   	pop    %rbx
    fd6a:	41 5c                	pop    %r12
    fd6c:	41 5d                	pop    %r13
    fd6e:	c9                   	leaveq 
    fd6f:	c3                   	retq   
    fd70:	64 48 8b 04 25 10 00 	mov    %fs:0x10,%rax
    fd77:	00 00 
    fd79:	8b b8 d0 02 00 00    	mov    0x2d0(%rax),%edi
    fd7f:	e8 dc fc ff ff       	callq  fa60 <__determine_cpumask_size>
    fd84:	85 c0                	test   %eax,%eax
    fd86:	75 cd                	jne    fd55 <pthread_attr_setaffinity_np@@GLIBC_2.3.4+0x95>
    fd88:	48 8b 05 19 c6 20 00 	mov    0x20c619(%rip),%rax        # 21c3a8 <__kernel_cpumask_size>
    fd8f:	e9 60 ff ff ff       	jmpq   fcf4 <pthread_attr_setaffinity_np@@GLIBC_2.3.4+0x34>
    fd94:	0f 1f 40 00          	nopl   0x0(%rax)
    fd98:	49 8b 7d 28          	mov    0x28(%r13),%rdi
    fd9c:	e8 4f 55 ff ff       	callq  52f0 <free@plt>
    fda1:	49 c7 45 28 00 00 00 	movq   $0x0,0x28(%r13)
    fda8:	00 
    fda9:	49 c7 45 30 00 00 00 	movq   $0x0,0x30(%r13)
    fdb0:	00 
    fdb1:	48 83 c4 08          	add    $0x8,%rsp
    fdb5:	5b                   	pop    %rbx
    fdb6:	41 5c                	pop    %r12
    fdb8:	31 c0                	xor    %eax,%eax
    fdba:	41 5d                	pop    %r13
    fdbc:	c9                   	leaveq 
    fdbd:	c3                   	retq   
    fdbe:	49 8b 7d 28          	mov    0x28(%r13),%rdi
    fdc2:	eb 84                	jmp    fd48 <pthread_attr_setaffinity_np@@GLIBC_2.3.4+0x88>
    fdc4:	66 66 66 2e 0f 1f 84 	data32 data32 nopw %cs:0x0(%rax,%rax,1)
    fdcb:	00 00 00 00 00 

000000000000fdd0 <pthread_attr_setaffinity_np@GLIBC_2.3.3>:
    fdd0:	55                   	push   %rbp
    fdd1:	48 89 f2             	mov    %rsi,%rdx
    fdd4:	be 80 00 00 00       	mov    $0x80,%esi
    fdd9:	48 89 e5             	mov    %rsp,%rbp
    fddc:	c9                   	leaveq 
    fddd:	e9 de fe ff ff       	jmpq   fcc0 <pthread_attr_setaffinity_np@@GLIBC_2.3.4>
    fde2:	90                   	nop
    fde3:	90                   	nop
    fde4:	90                   	nop
    fde5:	90                   	nop
    fde6:	90                   	nop
    fde7:	90                   	nop
    fde8:	90                   	nop
    fde9:	90                   	nop
    fdea:	90                   	nop
    fdeb:	90                   	nop
    fdec:	90                   	nop
    fded:	90                   	nop
    fdee:	90                   	nop
    fdef:	90                   	nop

000000000000fdf0 <pthread_mutexattr_getrobust>:
    fdf0:	8b 07                	mov    (%rdi),%eax
    fdf2:	55                   	push   %rbp
    fdf3:	48 89 e5             	mov    %rsp,%rbp
    fdf6:	c1 e8 1e             	shr    $0x1e,%eax
    fdf9:	83 e0 01             	and    $0x1,%eax
    fdfc:	89 06                	mov    %eax,(%rsi)
    fdfe:	31 c0                	xor    %eax,%eax
    fe00:	c9                   	leaveq 
    fe01:	c3                   	retq   
    fe02:	90                   	nop
    fe03:	90                   	nop
    fe04:	90                   	nop
    fe05:	90                   	nop
    fe06:	90                   	nop
    fe07:	90                   	nop
    fe08:	90                   	nop
    fe09:	90                   	nop
    fe0a:	90                   	nop
    fe0b:	90                   	nop
    fe0c:	90                   	nop
    fe0d:	90                   	nop
    fe0e:	90                   	nop
    fe0f:	90                   	nop

000000000000fe10 <pthread_mutexattr_setrobust>:
    fe10:	55                   	push   %rbp
    fe11:	85 f6                	test   %esi,%esi
    fe13:	48 89 e5             	mov    %rsp,%rbp
    fe16:	74 18                	je     fe30 <pthread_mutexattr_setrobust+0x20>
    fe18:	83 fe 01             	cmp    $0x1,%esi
    fe1b:	75 1d                	jne    fe3a <pthread_mutexattr_setrobust+0x2a>
    fe1d:	81 0f 00 00 00 40    	orl    $0x40000000,(%rdi)
    fe23:	31 c0                	xor    %eax,%eax
    fe25:	c9                   	leaveq 
    fe26:	c3                   	retq   
    fe27:	66 0f 1f 84 00 00 00 	nopw   0x0(%rax,%rax,1)
    fe2e:	00 00 
    fe30:	81 27 ff ff ff bf    	andl   $0xbfffffff,(%rdi)
    fe36:	31 c0                	xor    %eax,%eax
    fe38:	c9                   	leaveq 
    fe39:	c3                   	retq   
    fe3a:	b8 16 00 00 00       	mov    $0x16,%eax
    fe3f:	c9                   	leaveq 
    fe40:	c3                   	retq   
    fe41:	90                   	nop
    fe42:	90                   	nop
    fe43:	90                   	nop
    fe44:	90                   	nop
    fe45:	90                   	nop
    fe46:	90                   	nop
    fe47:	90                   	nop
    fe48:	90                   	nop
    fe49:	90                   	nop
    fe4a:	90                   	nop
    fe4b:	90                   	nop
    fe4c:	90                   	nop
    fe4d:	90                   	nop
    fe4e:	90                   	nop
    fe4f:	90                   	nop

000000000000fe50 <pthread_mutex_consistent>:
    fe50:	55                   	push   %rbp
    fe51:	f6 47 10 10          	testb  $0x10,0x10(%rdi)
    fe55:	48 89 e5             	mov    %rsp,%rbp
    fe58:	74 09                	je     fe63 <pthread_mutex_consistent+0x13>
    fe5a:	81 7f 08 ff ff ff 7f 	cmpl   $0x7fffffff,0x8(%rdi)
    fe61:	74 0d                	je     fe70 <pthread_mutex_consistent+0x20>
    fe63:	b8 16 00 00 00       	mov    $0x16,%eax
    fe68:	c9                   	leaveq 
    fe69:	c3                   	retq   
    fe6a:	66 0f 1f 44 00 00    	nopw   0x0(%rax,%rax,1)
    fe70:	64 8b 04 25 d0 02 00 	mov    %fs:0x2d0,%eax
    fe77:	00 
    fe78:	89 47 08             	mov    %eax,0x8(%rdi)
    fe7b:	31 c0                	xor    %eax,%eax
    fe7d:	c9                   	leaveq 
    fe7e:	c3                   	retq   
    fe7f:	90                   	nop

000000000000fe80 <__pthread_cleanup_routine>:
    fe80:	55                   	push   %rbp
    fe81:	8b 47 10             	mov    0x10(%rdi),%eax
    fe84:	48 89 e5             	mov    %rsp,%rbp
    fe87:	85 c0                	test   %eax,%eax
    fe89:	75 05                	jne    fe90 <__pthread_cleanup_routine+0x10>
    fe8b:	c9                   	leaveq 
    fe8c:	c3                   	retq   
    fe8d:	0f 1f 00             	nopl   (%rax)
    fe90:	48 8b 57 08          	mov    0x8(%rdi),%rdx
    fe94:	48 8b 07             	mov    (%rdi),%rax
    fe97:	c9                   	leaveq 
    fe98:	48 89 d7             	mov    %rdx,%rdi
    fe9b:	ff e0                	jmpq   *%rax
    fe9d:	90                   	nop
    fe9e:	90                   	nop
    fe9f:	90                   	nop

000000000000fea0 <pthread_cancel_init>:
    fea0:	55                   	push   %rbp
    fea1:	48 89 e5             	mov    %rsp,%rbp
    fea4:	48 89 5d e0          	mov    %rbx,-0x20(%rbp)
    fea8:	4c 89 65 e8          	mov    %r12,-0x18(%rbp)
    feac:	4c 89 6d f0          	mov    %r13,-0x10(%rbp)
    feb0:	4c 89 75 f8          	mov    %r14,-0x8(%rbp)
    feb4:	48 83 ec 20          	sub    $0x20,%rsp
    feb8:	48 83 3d 40 c4 20 00 	cmpq   $0x0,0x20c440(%rip)        # 21c300 <libgcc_s_handle>
    febf:	00 
    fec0:	74 15                	je     fed7 <pthread_cancel_init+0x37>
    fec2:	48 8b 1c 24          	mov    (%rsp),%rbx
    fec6:	4c 8b 64 24 08       	mov    0x8(%rsp),%r12
    fecb:	4c 8b 6c 24 10       	mov    0x10(%rsp),%r13
    fed0:	4c 8b 74 24 18       	mov    0x18(%rsp),%r14
    fed5:	c9                   	leaveq 
    fed6:	c3                   	retq   
    fed7:	48 8d 3d 21 21 00 00 	lea    0x2121(%rip),%rdi        # 11fff <defaultdir+0x2e>
    fede:	be 01 00 00 80       	mov    $0x80000001,%esi
    fee3:	e8 48 56 ff ff       	callq  5530 <__libc_dlopen_mode@plt>
    fee8:	48 85 c0             	test   %rax,%rax
    feeb:	48 89 c3             	mov    %rax,%rbx
    feee:	0f 84 bd 00 00 00    	je     ffb1 <pthread_cancel_init+0x111>
    fef4:	48 8d 35 12 21 00 00 	lea    0x2112(%rip),%rsi        # 1200d <defaultdir+0x3c>
    fefb:	48 89 c7             	mov    %rax,%rdi
    fefe:	e8 bd 56 ff ff       	callq  55c0 <__libc_dlsym@plt>
    ff03:	48 85 c0             	test   %rax,%rax
    ff06:	49 89 c6             	mov    %rax,%r14
    ff09:	0f 84 a2 00 00 00    	je     ffb1 <pthread_cancel_init+0x111>
    ff0f:	48 8d 35 06 21 00 00 	lea    0x2106(%rip),%rsi        # 1201c <defaultdir+0x4b>
    ff16:	48 89 df             	mov    %rbx,%rdi
    ff19:	e8 a2 56 ff ff       	callq  55c0 <__libc_dlsym@plt>
    ff1e:	48 85 c0             	test   %rax,%rax
    ff21:	49 89 c5             	mov    %rax,%r13
    ff24:	0f 84 87 00 00 00    	je     ffb1 <pthread_cancel_init+0x111>
    ff2a:	48 8d 35 00 21 00 00 	lea    0x2100(%rip),%rsi        # 12031 <defaultdir+0x60>
    ff31:	48 89 df             	mov    %rbx,%rdi
    ff34:	e8 87 56 ff ff       	callq  55c0 <__libc_dlsym@plt>
    ff39:	48 85 c0             	test   %rax,%rax
    ff3c:	49 89 c4             	mov    %rax,%r12
    ff3f:	74 70                	je     ffb1 <pthread_cancel_init+0x111>
    ff41:	48 8d 35 fe 20 00 00 	lea    0x20fe(%rip),%rsi        # 12046 <defaultdir+0x75>
    ff48:	48 89 df             	mov    %rbx,%rdi
    ff4b:	e8 70 56 ff ff       	callq  55c0 <__libc_dlsym@plt>
    ff50:	48 85 c0             	test   %rax,%rax
    ff53:	74 5c                	je     ffb1 <pthread_cancel_init+0x111>
    ff55:	64 4c 33 34 25 30 00 	xor    %fs:0x30,%r14
    ff5c:	00 00 
    ff5e:	49 c1 c6 11          	rol    $0x11,%r14
    ff62:	64 4c 33 2c 25 30 00 	xor    %fs:0x30,%r13
    ff69:	00 00 
    ff6b:	49 c1 c5 11          	rol    $0x11,%r13
    ff6f:	64 4c 33 24 25 30 00 	xor    %fs:0x30,%r12
    ff76:	00 00 
    ff78:	49 c1 c4 11          	rol    $0x11,%r12
    ff7c:	64 48 33 04 25 30 00 	xor    %fs:0x30,%rax
    ff83:	00 00 
    ff85:	48 c1 c0 11          	rol    $0x11,%rax
    ff89:	4c 89 35 78 c3 20 00 	mov    %r14,0x20c378(%rip)        # 21c308 <libgcc_s_resume>
    ff90:	4c 89 2d 79 c3 20 00 	mov    %r13,0x20c379(%rip)        # 21c310 <libgcc_s_personality>
    ff97:	4c 89 25 7a c3 20 00 	mov    %r12,0x20c37a(%rip)        # 21c318 <libgcc_s_forcedunwind>
    ff9e:	48 89 05 7b c3 20 00 	mov    %rax,0x20c37b(%rip)        # 21c320 <libgcc_s_getcfa>
    ffa5:	48 89 1d 54 c3 20 00 	mov    %rbx,0x20c354(%rip)        # 21c300 <libgcc_s_handle>
    ffac:	e9 11 ff ff ff       	jmpq   fec2 <pthread_cancel_init+0x22>
    ffb1:	48 8d 3d a0 20 00 00 	lea    0x20a0(%rip),%rdi        # 12058 <defaultdir+0x87>
    ffb8:	e8 93 53 ff ff       	callq  5350 <__libc_fatal@plt>
    ffbd:	0f 1f 00             	nopl   (%rax)

000000000000ffc0 <_Unwind_GetCFA>:
    ffc0:	55                   	push   %rbp
    ffc1:	48 89 e5             	mov    %rsp,%rbp
    ffc4:	48 83 ec 10          	sub    $0x10,%rsp
    ffc8:	48 83 3d 30 c3 20 00 	cmpq   $0x0,0x20c330(%rip)        # 21c300 <libgcc_s_handle>
    ffcf:	00 
    ffd0:	74 17                	je     ffe9 <_Unwind_GetCFA+0x29>
    ffd2:	48 8b 05 47 c3 20 00 	mov    0x20c347(%rip),%rax        # 21c320 <libgcc_s_getcfa>
    ffd9:	c9                   	leaveq 
    ffda:	48 c1 c8 11          	ror    $0x11,%rax
    ffde:	64 48 33 04 25 30 00 	xor    %fs:0x30,%rax
    ffe5:	00 00 
    ffe7:	ff e0                	jmpq   *%rax
    ffe9:	48 89 7d f8          	mov    %rdi,-0x8(%rbp)
    ffed:	e8 ae fe ff ff       	callq  fea0 <pthread_cancel_init>
    fff2:	48 8b 7d f8          	mov    -0x8(%rbp),%rdi
    fff6:	eb da                	jmp    ffd2 <_Unwind_GetCFA+0x12>
    fff8:	0f 1f 84 00 00 00 00 	nopl   0x0(%rax,%rax,1)
    ffff:	00 

0000000000010000 <_Unwind_ForcedUnwind>:
   10000:	55                   	push   %rbp
   10001:	48 89 e5             	mov    %rsp,%rbp
   10004:	48 83 ec 20          	sub    $0x20,%rsp
   10008:	48 83 3d f0 c2 20 00 	cmpq   $0x0,0x20c2f0(%rip)        # 21c300 <libgcc_s_handle>
   1000f:	00 
   10010:	74 17                	je     10029 <_Unwind_ForcedUnwind+0x29>
   10012:	48 8b 05 ff c2 20 00 	mov    0x20c2ff(%rip),%rax        # 21c318 <libgcc_s_forcedunwind>
   10019:	c9                   	leaveq 
   1001a:	48 c1 c8 11          	ror    $0x11,%rax
   1001e:	64 48 33 04 25 30 00 	xor    %fs:0x30,%rax
   10025:	00 00 
   10027:	ff e0                	jmpq   *%rax
   10029:	48 89 55 e8          	mov    %rdx,-0x18(%rbp)
   1002d:	48 89 75 f0          	mov    %rsi,-0x10(%rbp)
   10031:	48 89 7d f8          	mov    %rdi,-0x8(%rbp)
   10035:	e8 66 fe ff ff       	callq  fea0 <pthread_cancel_init>
   1003a:	48 8b 55 e8          	mov    -0x18(%rbp),%rdx
   1003e:	48 8b 75 f0          	mov    -0x10(%rbp),%rsi
   10042:	48 8b 7d f8          	mov    -0x8(%rbp),%rdi
   10046:	eb ca                	jmp    10012 <_Unwind_ForcedUnwind+0x12>
   10048:	0f 1f 84 00 00 00 00 	nopl   0x0(%rax,%rax,1)
   1004f:	00 

0000000000010050 <__gcc_personality_v0>:
   10050:	55                   	push   %rbp
   10051:	48 89 e5             	mov    %rsp,%rbp
   10054:	48 83 ec 30          	sub    $0x30,%rsp
   10058:	48 83 3d a0 c2 20 00 	cmpq   $0x0,0x20c2a0(%rip)        # 21c300 <libgcc_s_handle>
   1005f:	00 
   10060:	74 17                	je     10079 <__gcc_personality_v0+0x29>
   10062:	48 8b 05 a7 c2 20 00 	mov    0x20c2a7(%rip),%rax        # 21c310 <libgcc_s_personality>
   10069:	c9                   	leaveq 
   1006a:	48 c1 c8 11          	ror    $0x11,%rax
   1006e:	64 48 33 04 25 30 00 	xor    %fs:0x30,%rax
   10075:	00 00 
   10077:	ff e0                	jmpq   *%rax
   10079:	48 89 55 e8          	mov    %rdx,-0x18(%rbp)
   1007d:	48 89 4d e0          	mov    %rcx,-0x20(%rbp)
   10081:	89 75 f0             	mov    %esi,-0x10(%rbp)
   10084:	89 7d f8             	mov    %edi,-0x8(%rbp)
   10087:	4c 89 45 d8          	mov    %r8,-0x28(%rbp)
   1008b:	e8 10 fe ff ff       	callq  fea0 <pthread_cancel_init>
   10090:	48 8b 55 e8          	mov    -0x18(%rbp),%rdx
   10094:	48 8b 4d e0          	mov    -0x20(%rbp),%rcx
   10098:	8b 75 f0             	mov    -0x10(%rbp),%esi
   1009b:	8b 7d f8             	mov    -0x8(%rbp),%edi
   1009e:	4c 8b 45 d8          	mov    -0x28(%rbp),%r8
   100a2:	eb be                	jmp    10062 <__gcc_personality_v0+0x12>
   100a4:	66 66 66 2e 0f 1f 84 	data32 data32 nopw %cs:0x0(%rax,%rax,1)
   100ab:	00 00 00 00 00 

00000000000100b0 <_Unwind_Resume>:
   100b0:	55                   	push   %rbp
   100b1:	48 89 e5             	mov    %rsp,%rbp
   100b4:	48 83 ec 10          	sub    $0x10,%rsp
   100b8:	48 83 3d 40 c2 20 00 	cmpq   $0x0,0x20c240(%rip)        # 21c300 <libgcc_s_handle>
   100bf:	00 
   100c0:	74 17                	je     100d9 <_Unwind_Resume+0x29>
   100c2:	48 8b 05 3f c2 20 00 	mov    0x20c23f(%rip),%rax        # 21c308 <libgcc_s_resume>
   100c9:	c9                   	leaveq 
   100ca:	48 c1 c8 11          	ror    $0x11,%rax
   100ce:	64 48 33 04 25 30 00 	xor    %fs:0x30,%rax
   100d5:	00 00 
   100d7:	ff e0                	jmpq   *%rax
   100d9:	48 89 7d f8          	mov    %rdi,-0x8(%rbp)
   100dd:	e8 be fd ff ff       	callq  fea0 <pthread_cancel_init>
   100e2:	48 8b 7d f8          	mov    -0x8(%rbp),%rdi
   100e6:	eb da                	jmp    100c2 <_Unwind_Resume+0x12>
   100e8:	90                   	nop
   100e9:	90                   	nop
   100ea:	90                   	nop
   100eb:	90                   	nop
   100ec:	90                   	nop
   100ed:	90                   	nop
   100ee:	90                   	nop
   100ef:	90                   	nop

00000000000100f0 <pthread_mutexattr_getprotocol>:
   100f0:	8b 07                	mov    (%rdi),%eax
   100f2:	55                   	push   %rbp
   100f3:	48 89 e5             	mov    %rsp,%rbp
   100f6:	25 00 00 00 30       	and    $0x30000000,%eax
   100fb:	c1 f8 1c             	sar    $0x1c,%eax
   100fe:	89 06                	mov    %eax,(%rsi)
   10100:	31 c0                	xor    %eax,%eax
   10102:	c9                   	leaveq 
   10103:	c3                   	retq   
   10104:	90                   	nop
   10105:	90                   	nop
   10106:	90                   	nop
   10107:	90                   	nop
   10108:	90                   	nop
   10109:	90                   	nop
   1010a:	90                   	nop
   1010b:	90                   	nop
   1010c:	90                   	nop
   1010d:	90                   	nop
   1010e:	90                   	nop
   1010f:	90                   	nop

0000000000010110 <pthread_mutexattr_setprotocol>:
   10110:	55                   	push   %rbp
   10111:	83 fe 01             	cmp    $0x1,%esi
   10114:	48 89 e5             	mov    %rsp,%rbp
   10117:	76 05                	jbe    1011e <pthread_mutexattr_setprotocol+0xe>
   10119:	83 fe 02             	cmp    $0x2,%esi
   1011c:	75 12                	jne    10130 <pthread_mutexattr_setprotocol+0x20>
   1011e:	8b 07                	mov    (%rdi),%eax
   10120:	c1 e6 1c             	shl    $0x1c,%esi
   10123:	25 ff ff ff cf       	and    $0xcfffffff,%eax
   10128:	09 c6                	or     %eax,%esi
   1012a:	31 c0                	xor    %eax,%eax
   1012c:	89 37                	mov    %esi,(%rdi)
   1012e:	c9                   	leaveq 
   1012f:	c3                   	retq   
   10130:	b8 16 00 00 00       	mov    $0x16,%eax
   10135:	c9                   	leaveq 
   10136:	c3                   	retq   
   10137:	90                   	nop
   10138:	90                   	nop
   10139:	90                   	nop
   1013a:	90                   	nop
   1013b:	90                   	nop
   1013c:	90                   	nop
   1013d:	90                   	nop
   1013e:	90                   	nop
   1013f:	90                   	nop

0000000000010140 <pthread_mutexattr_getprioceiling>:
   10140:	55                   	push   %rbp
   10141:	48 89 e5             	mov    %rsp,%rbp
   10144:	53                   	push   %rbx
   10145:	48 83 ec 18          	sub    $0x18,%rsp
   10149:	8b 1f                	mov    (%rdi),%ebx
   1014b:	81 e3 00 f0 ff 00    	and    $0xfff000,%ebx
   10151:	c1 fb 0c             	sar    $0xc,%ebx
   10154:	85 db                	test   %ebx,%ebx
   10156:	75 20                	jne    10178 <pthread_mutexattr_getprioceiling+0x38>
   10158:	8b 05 0a 81 20 00    	mov    0x20810a(%rip),%eax        # 218268 <__sched_fifo_min_prio>
   1015e:	83 f8 ff             	cmp    $0xffffffff,%eax
   10161:	74 25                	je     10188 <pthread_mutexattr_getprioceiling+0x48>
   10163:	85 c0                	test   %eax,%eax
   10165:	7e 11                	jle    10178 <pthread_mutexattr_getprioceiling+0x38>
   10167:	89 06                	mov    %eax,(%rsi)
   10169:	48 83 c4 18          	add    $0x18,%rsp
   1016d:	31 c0                	xor    %eax,%eax
   1016f:	5b                   	pop    %rbx
   10170:	c9                   	leaveq 
   10171:	c3                   	retq   
   10172:	66 0f 1f 44 00 00    	nopw   0x0(%rax,%rax,1)
   10178:	89 d8                	mov    %ebx,%eax
   1017a:	89 06                	mov    %eax,(%rsi)
   1017c:	48 83 c4 18          	add    $0x18,%rsp
   10180:	31 c0                	xor    %eax,%eax
   10182:	5b                   	pop    %rbx
   10183:	c9                   	leaveq 
   10184:	c3                   	retq   
   10185:	0f 1f 00             	nopl   (%rax)
   10188:	48 89 75 e8          	mov    %rsi,-0x18(%rbp)
   1018c:	e8 7f 01 00 00       	callq  10310 <__init_sched_fifo_prio>
   10191:	8b 05 d1 80 20 00    	mov    0x2080d1(%rip),%eax        # 218268 <__sched_fifo_min_prio>
   10197:	48 8b 75 e8          	mov    -0x18(%rbp),%rsi
   1019b:	eb c6                	jmp    10163 <pthread_mutexattr_getprioceiling+0x23>
   1019d:	90                   	nop
   1019e:	90                   	nop
   1019f:	90                   	nop

00000000000101a0 <pthread_mutexattr_setprioceiling>:
   101a0:	55                   	push   %rbp
   101a1:	48 89 e5             	mov    %rsp,%rbp
   101a4:	48 83 ec 10          	sub    $0x10,%rsp
   101a8:	8b 05 ba 80 20 00    	mov    0x2080ba(%rip),%eax        # 218268 <__sched_fifo_min_prio>
   101ae:	83 f8 ff             	cmp    $0xffffffff,%eax
   101b1:	74 2d                	je     101e0 <pthread_mutexattr_setprioceiling+0x40>
   101b3:	39 c6                	cmp    %eax,%esi
   101b5:	7c 44                	jl     101fb <pthread_mutexattr_setprioceiling+0x5b>
   101b7:	3b 35 af 80 20 00    	cmp    0x2080af(%rip),%esi        # 21826c <__sched_fifo_max_prio>
   101bd:	7f 3c                	jg     101fb <pthread_mutexattr_setprioceiling+0x5b>
   101bf:	89 f0                	mov    %esi,%eax
   101c1:	25 ff 0f 00 00       	and    $0xfff,%eax
   101c6:	39 c6                	cmp    %eax,%esi
   101c8:	75 31                	jne    101fb <pthread_mutexattr_setprioceiling+0x5b>
   101ca:	8b 07                	mov    (%rdi),%eax
   101cc:	c1 e6 0c             	shl    $0xc,%esi
   101cf:	25 ff 0f 00 ff       	and    $0xff000fff,%eax
   101d4:	09 c6                	or     %eax,%esi
   101d6:	31 c0                	xor    %eax,%eax
   101d8:	89 37                	mov    %esi,(%rdi)
   101da:	c9                   	leaveq 
   101db:	c3                   	retq   
   101dc:	0f 1f 40 00          	nopl   0x0(%rax)
   101e0:	89 75 f0             	mov    %esi,-0x10(%rbp)
   101e3:	48 89 7d f8          	mov    %rdi,-0x8(%rbp)
   101e7:	e8 24 01 00 00       	callq  10310 <__init_sched_fifo_prio>
   101ec:	8b 05 76 80 20 00    	mov    0x208076(%rip),%eax        # 218268 <__sched_fifo_min_prio>
   101f2:	48 8b 7d f8          	mov    -0x8(%rbp),%rdi
   101f6:	8b 75 f0             	mov    -0x10(%rbp),%esi
   101f9:	eb b8                	jmp    101b3 <pthread_mutexattr_setprioceiling+0x13>
   101fb:	b8 16 00 00 00       	mov    $0x16,%eax
   10200:	c9                   	leaveq 
   10201:	c3                   	retq   
   10202:	90                   	nop
   10203:	90                   	nop
   10204:	90                   	nop
   10205:	90                   	nop
   10206:	90                   	nop
   10207:	90                   	nop
   10208:	90                   	nop
   10209:	90                   	nop
   1020a:	90                   	nop
   1020b:	90                   	nop
   1020c:	90                   	nop
   1020d:	90                   	nop
   1020e:	90                   	nop
   1020f:	90                   	nop

0000000000010210 <__pthread_current_priority>:
   10210:	55                   	push   %rbp
   10211:	48 89 e5             	mov    %rsp,%rbp
   10214:	41 54                	push   %r12
   10216:	53                   	push   %rbx
   10217:	64 48 8b 1c 25 10 00 	mov    %fs:0x10,%rbx
   1021e:	00 00 
   10220:	8b 83 0c 03 00 00    	mov    0x30c(%rbx),%eax
   10226:	83 e0 60             	and    $0x60,%eax
   10229:	83 f8 60             	cmp    $0x60,%eax
   1022c:	0f 84 ce 00 00 00    	je     10300 <__pthread_current_priority+0xf0>
   10232:	be 01 00 00 00       	mov    $0x1,%esi
   10237:	31 c0                	xor    %eax,%eax
   10239:	f0 0f b1 b3 18 06 00 	lock cmpxchg %esi,0x618(%rbx)
   10240:	00 
   10241:	0f 85 3d 04 00 00    	jne    10684 <_L_lock_18>
   10247:	8b 83 0c 03 00 00    	mov    0x30c(%rbx),%eax
   1024d:	45 31 e4             	xor    %r12d,%r12d
   10250:	a8 20                	test   $0x20,%al
   10252:	74 2c                	je     10280 <__pthread_current_priority+0x70>
   10254:	a8 40                	test   $0x40,%al
   10256:	74 58                	je     102b0 <__pthread_current_priority+0xa0>
   10258:	41 83 fc ff          	cmp    $0xffffffff,%r12d
   1025c:	74 07                	je     10265 <__pthread_current_priority+0x55>
   1025e:	44 8b a3 38 06 00 00 	mov    0x638(%rbx),%r12d
   10265:	f0 ff 8b 18 06 00 00 	lock decl 0x618(%rbx)
   1026c:	0f 85 31 04 00 00    	jne    106a3 <_L_unlock_36>
   10272:	5b                   	pop    %rbx
   10273:	44 89 e0             	mov    %r12d,%eax
   10276:	41 5c                	pop    %r12
   10278:	c9                   	leaveq 
   10279:	c3                   	retq   
   1027a:	66 0f 1f 44 00 00    	nopw   0x0(%rax,%rax,1)
   10280:	8b bb d0 02 00 00    	mov    0x2d0(%rbx),%edi
   10286:	48 8d b3 38 06 00 00 	lea    0x638(%rbx),%rsi
   1028d:	e8 ce 51 ff ff       	callq  5460 <__sched_getparam@plt>
   10292:	85 c0                	test   %eax,%eax
   10294:	74 3a                	je     102d0 <__pthread_current_priority+0xc0>
   10296:	8b 83 0c 03 00 00    	mov    0x30c(%rbx),%eax
   1029c:	41 bc ff ff ff ff    	mov    $0xffffffff,%r12d
   102a2:	a8 40                	test   $0x40,%al
   102a4:	75 b2                	jne    10258 <__pthread_current_priority+0x48>
   102a6:	66 2e 0f 1f 84 00 00 	nopw   %cs:0x0(%rax,%rax,1)
   102ad:	00 00 00 
   102b0:	8b bb d0 02 00 00    	mov    0x2d0(%rbx),%edi
   102b6:	e8 75 50 ff ff       	callq  5330 <__sched_getscheduler@plt>
   102bb:	83 f8 ff             	cmp    $0xffffffff,%eax
   102be:	89 83 3c 06 00 00    	mov    %eax,0x63c(%rbx)
   102c4:	74 2a                	je     102f0 <__pthread_current_priority+0xe0>
   102c6:	83 8b 0c 03 00 00 40 	orl    $0x40,0x30c(%rbx)
   102cd:	eb 89                	jmp    10258 <__pthread_current_priority+0x48>
   102cf:	90                   	nop
   102d0:	8b 83 0c 03 00 00    	mov    0x30c(%rbx),%eax
   102d6:	45 31 e4             	xor    %r12d,%r12d
   102d9:	83 c8 20             	or     $0x20,%eax
   102dc:	89 83 0c 03 00 00    	mov    %eax,0x30c(%rbx)
   102e2:	e9 6d ff ff ff       	jmpq   10254 <__pthread_current_priority+0x44>
   102e7:	66 0f 1f 84 00 00 00 	nopw   0x0(%rax,%rax,1)
   102ee:	00 00 
   102f0:	41 89 c4             	mov    %eax,%r12d
   102f3:	e9 6d ff ff ff       	jmpq   10265 <__pthread_current_priority+0x55>
   102f8:	0f 1f 84 00 00 00 00 	nopl   0x0(%rax,%rax,1)
   102ff:	00 
   10300:	44 8b a3 38 06 00 00 	mov    0x638(%rbx),%r12d
   10307:	5b                   	pop    %rbx
   10308:	44 89 e0             	mov    %r12d,%eax
   1030b:	41 5c                	pop    %r12
   1030d:	c9                   	leaveq 
   1030e:	c3                   	retq   
   1030f:	90                   	nop

0000000000010310 <__init_sched_fifo_prio>:
   10310:	55                   	push   %rbp
   10311:	bf 01 00 00 00       	mov    $0x1,%edi
   10316:	48 89 e5             	mov    %rsp,%rbp
   10319:	e8 b2 53 ff ff       	callq  56d0 <sched_get_priority_max@plt>
   1031e:	89 05 48 7f 20 00    	mov    %eax,0x207f48(%rip)        # 21826c <__sched_fifo_max_prio>
   10324:	bf 01 00 00 00       	mov    $0x1,%edi
   10329:	e8 32 52 ff ff       	callq  5560 <sched_get_priority_min@plt>
   1032e:	89 05 34 7f 20 00    	mov    %eax,0x207f34(%rip)        # 218268 <__sched_fifo_min_prio>
   10334:	c9                   	leaveq 
   10335:	c3                   	retq   
   10336:	66 2e 0f 1f 84 00 00 	nopw   %cs:0x0(%rax,%rax,1)
   1033d:	00 00 00 

0000000000010340 <__pthread_tpp_change_priority>:
   10340:	55                   	push   %rbp
   10341:	89 f9                	mov    %edi,%ecx
   10343:	48 89 e5             	mov    %rsp,%rbp
   10346:	48 89 5d d8          	mov    %rbx,-0x28(%rbp)
   1034a:	4c 89 7d f8          	mov    %r15,-0x8(%rbp)
   1034e:	41 89 f7             	mov    %esi,%r15d
   10351:	4c 89 65 e0          	mov    %r12,-0x20(%rbp)
   10355:	4c 89 6d e8          	mov    %r13,-0x18(%rbp)
   10359:	4c 89 75 f0          	mov    %r14,-0x10(%rbp)
   1035d:	48 83 ec 50          	sub    $0x50,%rsp
   10361:	64 48 8b 1c 25 10 00 	mov    %fs:0x10,%rbx
   10368:	00 00 
   1036a:	64 48 8b 14 25 b0 06 	mov    %fs:0x6b0,%rdx
   10371:	00 00 
   10373:	48 85 d2             	test   %rdx,%rdx
   10376:	0f 84 b4 01 00 00    	je     10530 <__pthread_tpp_change_priority+0x1f0>
   1037c:	41 83 ff ff          	cmp    $0xffffffff,%r15d
   10380:	74 1a                	je     1039c <__pthread_tpp_change_priority+0x5c>
   10382:	44 3b 3d df 7e 20 00 	cmp    0x207edf(%rip),%r15d        # 218268 <__sched_fifo_min_prio>
   10389:	0f 8c d6 02 00 00    	jl     10665 <__pthread_tpp_change_priority+0x325>
   1038f:	44 3b 3d d6 7e 20 00 	cmp    0x207ed6(%rip),%r15d        # 21826c <__sched_fifo_max_prio>
   10396:	0f 8f c9 02 00 00    	jg     10665 <__pthread_tpp_change_priority+0x325>
   1039c:	83 f9 ff             	cmp    $0xffffffff,%ecx
   1039f:	74 18                	je     103b9 <__pthread_tpp_change_priority+0x79>
   103a1:	3b 0d c1 7e 20 00    	cmp    0x207ec1(%rip),%ecx        # 218268 <__sched_fifo_min_prio>
   103a7:	0f 8c 99 02 00 00    	jl     10646 <__pthread_tpp_change_priority+0x306>
   103ad:	3b 0d b9 7e 20 00    	cmp    0x207eb9(%rip),%ecx        # 21826c <__sched_fifo_max_prio>
   103b3:	0f 8f 8d 02 00 00    	jg     10646 <__pthread_tpp_change_priority+0x306>
   103b9:	41 83 ff ff          	cmp    $0xffffffff,%r15d
   103bd:	44 8b 2a             	mov    (%rdx),%r13d
   103c0:	0f 84 ba 00 00 00    	je     10480 <__pthread_tpp_change_priority+0x140>
   103c6:	44 89 f8             	mov    %r15d,%eax
   103c9:	2b 05 99 7e 20 00    	sub    0x207e99(%rip),%eax        # 218268 <__sched_fifo_min_prio>
   103cf:	41 bc 0b 00 00 00    	mov    $0xb,%r12d
   103d5:	48 98                	cltq   
   103d7:	8b 74 82 04          	mov    0x4(%rdx,%rax,4),%esi
   103db:	83 fe ff             	cmp    $0xffffffff,%esi
   103de:	0f 84 80 00 00 00    	je     10464 <__pthread_tpp_change_priority+0x124>
   103e4:	83 c6 01             	add    $0x1,%esi
   103e7:	45 39 ef             	cmp    %r13d,%r15d
   103ea:	45 89 fe             	mov    %r15d,%r14d
   103ed:	89 74 82 04          	mov    %esi,0x4(%rdx,%rax,4)
   103f1:	0f 8e 89 00 00 00    	jle    10480 <__pthread_tpp_change_priority+0x140>
   103f7:	83 f9 ff             	cmp    $0xffffffff,%ecx
   103fa:	74 20                	je     1041c <__pthread_tpp_change_priority+0xdc>
   103fc:	8b 35 66 7e 20 00    	mov    0x207e66(%rip),%esi        # 218268 <__sched_fifo_min_prio>
   10402:	89 cf                	mov    %ecx,%edi
   10404:	29 f7                	sub    %esi,%edi
   10406:	48 63 ff             	movslq %edi,%rdi
   10409:	8b 44 ba 04          	mov    0x4(%rdx,%rdi,4),%eax
   1040d:	83 e8 01             	sub    $0x1,%eax
   10410:	85 c0                	test   %eax,%eax
   10412:	89 44 ba 04          	mov    %eax,0x4(%rdx,%rdi,4)
   10416:	0f 84 b4 00 00 00    	je     104d0 <__pthread_tpp_change_priority+0x190>
   1041c:	45 31 e4             	xor    %r12d,%r12d
   1041f:	45 39 f5             	cmp    %r14d,%r13d
   10422:	74 40                	je     10464 <__pthread_tpp_change_priority+0x124>
   10424:	be 01 00 00 00       	mov    $0x1,%esi
   10429:	31 c0                	xor    %eax,%eax
   1042b:	f0 0f b1 b3 18 06 00 	lock cmpxchg %esi,0x618(%rbx)
   10432:	00 
   10433:	0f 85 89 02 00 00    	jne    106c2 <_L_lock_190>
   10439:	44 89 32             	mov    %r14d,(%rdx)
   1043c:	8b 83 0c 03 00 00    	mov    0x30c(%rbx),%eax
   10442:	a8 20                	test   $0x20,%al
   10444:	0f 84 46 01 00 00    	je     10590 <__pthread_tpp_change_priority+0x250>
   1044a:	a8 40                	test   $0x40,%al
   1044c:	0f 84 6e 01 00 00    	je     105c0 <__pthread_tpp_change_priority+0x280>
   10452:	45 85 e4             	test   %r12d,%r12d
   10455:	74 39                	je     10490 <__pthread_tpp_change_priority+0x150>
   10457:	f0 ff 8b 18 06 00 00 	lock decl 0x618(%rbx)
   1045e:	0f 85 7d 02 00 00    	jne    106e1 <_L_unlock_206>
   10464:	44 89 e0             	mov    %r12d,%eax
   10467:	48 8b 5d d8          	mov    -0x28(%rbp),%rbx
   1046b:	4c 8b 65 e0          	mov    -0x20(%rbp),%r12
   1046f:	4c 8b 6d e8          	mov    -0x18(%rbp),%r13
   10473:	4c 8b 75 f0          	mov    -0x10(%rbp),%r14
   10477:	4c 8b 7d f8          	mov    -0x8(%rbp),%r15
   1047b:	c9                   	leaveq 
   1047c:	c3                   	retq   
   1047d:	0f 1f 00             	nopl   (%rax)
   10480:	45 89 ee             	mov    %r13d,%r14d
   10483:	e9 6f ff ff ff       	jmpq   103f7 <__pthread_tpp_change_priority+0xb7>
   10488:	0f 1f 84 00 00 00 00 	nopl   0x0(%rax,%rax,1)
   1048f:	00 
   10490:	8b 83 38 06 00 00    	mov    0x638(%rbx),%eax
   10496:	41 39 c6             	cmp    %eax,%r14d
   10499:	89 45 c0             	mov    %eax,-0x40(%rbp)
   1049c:	0f 8f 4e 01 00 00    	jg     105f0 <__pthread_tpp_change_priority+0x2b0>
   104a2:	41 39 c5             	cmp    %eax,%r13d
   104a5:	7e b0                	jle    10457 <__pthread_tpp_change_priority+0x117>
   104a7:	8b b3 3c 06 00 00    	mov    0x63c(%rbx),%esi
   104ad:	8b bb d0 02 00 00    	mov    0x2d0(%rbx),%edi
   104b3:	48 8d 55 c0          	lea    -0x40(%rbp),%rdx
   104b7:	e8 64 50 ff ff       	callq  5520 <__sched_setscheduler@plt>
   104bc:	85 c0                	test   %eax,%eax
   104be:	79 97                	jns    10457 <__pthread_tpp_change_priority+0x117>
   104c0:	48 8b 05 b9 7a 20 00 	mov    0x207ab9(%rip),%rax        # 217f80 <_DYNAMIC+0x1f0>
   104c7:	64 44 8b 20          	mov    %fs:(%rax),%r12d
   104cb:	eb 8a                	jmp    10457 <__pthread_tpp_change_priority+0x117>
   104cd:	0f 1f 00             	nopl   (%rax)
   104d0:	44 39 f9             	cmp    %r15d,%ecx
   104d3:	0f 8e 43 ff ff ff    	jle    1041c <__pthread_tpp_change_priority+0xdc>
   104d9:	41 39 cd             	cmp    %ecx,%r13d
   104dc:	0f 85 3a ff ff ff    	jne    1041c <__pthread_tpp_change_priority+0xdc>
   104e2:	45 8d 75 ff          	lea    -0x1(%r13),%r14d
   104e6:	44 39 f6             	cmp    %r14d,%esi
   104e9:	0f 8f 2d ff ff ff    	jg     1041c <__pthread_tpp_change_priority+0xdc>
   104ef:	44 89 f0             	mov    %r14d,%eax
   104f2:	29 f0                	sub    %esi,%eax
   104f4:	48 98                	cltq   
   104f6:	8b 7c 82 04          	mov    0x4(%rdx,%rax,4),%edi
   104fa:	85 ff                	test   %edi,%edi
   104fc:	0f 85 1a ff ff ff    	jne    1041c <__pthread_tpp_change_priority+0xdc>
   10502:	44 89 e8             	mov    %r13d,%eax
   10505:	29 f0                	sub    %esi,%eax
   10507:	83 e8 02             	sub    $0x2,%eax
   1050a:	eb 16                	jmp    10522 <__pthread_tpp_change_priority+0x1e2>
   1050c:	0f 1f 40 00          	nopl   0x0(%rax)
   10510:	48 63 c8             	movslq %eax,%rcx
   10513:	83 e8 01             	sub    $0x1,%eax
   10516:	8b 4c 8a 04          	mov    0x4(%rdx,%rcx,4),%ecx
   1051a:	85 c9                	test   %ecx,%ecx
   1051c:	0f 85 fa fe ff ff    	jne    1041c <__pthread_tpp_change_priority+0xdc>
   10522:	41 83 ee 01          	sub    $0x1,%r14d
   10526:	44 39 f6             	cmp    %r14d,%esi
   10529:	7e e5                	jle    10510 <__pthread_tpp_change_priority+0x1d0>
   1052b:	e9 ec fe ff ff       	jmpq   1041c <__pthread_tpp_change_priority+0xdc>
   10530:	8b 15 32 7d 20 00    	mov    0x207d32(%rip),%edx        # 218268 <__sched_fifo_min_prio>
   10536:	83 fa ff             	cmp    $0xffffffff,%edx
   10539:	0f 84 f1 00 00 00    	je     10630 <__pthread_tpp_change_priority+0x2f0>
   1053f:	8b 05 27 7d 20 00    	mov    0x207d27(%rip),%eax        # 21826c <__sched_fifo_max_prio>
   10545:	be 01 00 00 00       	mov    $0x1,%esi
   1054a:	89 4d b8             	mov    %ecx,-0x48(%rbp)
   1054d:	41 bc 0c 00 00 00    	mov    $0xc,%r12d
   10553:	83 c0 01             	add    $0x1,%eax
   10556:	29 d0                	sub    %edx,%eax
   10558:	48 98                	cltq   
   1055a:	48 8d 3c 85 04 00 00 	lea    0x4(,%rax,4),%rdi
   10561:	00 
   10562:	e8 19 4f ff ff       	callq  5480 <calloc@plt>
   10567:	48 89 c2             	mov    %rax,%rdx
   1056a:	8b 4d b8             	mov    -0x48(%rbp),%ecx
   1056d:	48 85 d2             	test   %rdx,%rdx
   10570:	0f 84 ee fe ff ff    	je     10464 <__pthread_tpp_change_priority+0x124>
   10576:	8b 35 ec 7c 20 00    	mov    0x207cec(%rip),%esi        # 218268 <__sched_fifo_min_prio>
   1057c:	83 ee 01             	sub    $0x1,%esi
   1057f:	89 32                	mov    %esi,(%rdx)
   10581:	64 48 89 04 25 b0 06 	mov    %rax,%fs:0x6b0
   10588:	00 00 
   1058a:	e9 ed fd ff ff       	jmpq   1037c <__pthread_tpp_change_priority+0x3c>
   1058f:	90                   	nop
   10590:	8b bb d0 02 00 00    	mov    0x2d0(%rbx),%edi
   10596:	48 8d b3 38 06 00 00 	lea    0x638(%rbx),%rsi
   1059d:	e8 be 4e ff ff       	callq  5460 <__sched_getparam@plt>
   105a2:	85 c0                	test   %eax,%eax
   105a4:	74 5a                	je     10600 <__pthread_tpp_change_priority+0x2c0>
   105a6:	48 8b 05 d3 79 20 00 	mov    0x2079d3(%rip),%rax        # 217f80 <_DYNAMIC+0x1f0>
   105ad:	64 44 8b 20          	mov    %fs:(%rax),%r12d
   105b1:	8b 83 0c 03 00 00    	mov    0x30c(%rbx),%eax
   105b7:	e9 8e fe ff ff       	jmpq   1044a <__pthread_tpp_change_priority+0x10a>
   105bc:	0f 1f 40 00          	nopl   0x0(%rax)
   105c0:	8b bb d0 02 00 00    	mov    0x2d0(%rbx),%edi
   105c6:	e8 65 4d ff ff       	callq  5330 <__sched_getscheduler@plt>
   105cb:	83 f8 ff             	cmp    $0xffffffff,%eax
   105ce:	89 83 3c 06 00 00    	mov    %eax,0x63c(%rbx)
   105d4:	74 4a                	je     10620 <__pthread_tpp_change_priority+0x2e0>
   105d6:	83 8b 0c 03 00 00 40 	orl    $0x40,0x30c(%rbx)
   105dd:	45 85 e4             	test   %r12d,%r12d
   105e0:	0f 85 71 fe ff ff    	jne    10457 <__pthread_tpp_change_priority+0x117>
   105e6:	e9 a5 fe ff ff       	jmpq   10490 <__pthread_tpp_change_priority+0x150>
   105eb:	0f 1f 44 00 00       	nopl   0x0(%rax,%rax,1)
   105f0:	44 89 75 c0          	mov    %r14d,-0x40(%rbp)
   105f4:	e9 ae fe ff ff       	jmpq   104a7 <__pthread_tpp_change_priority+0x167>
   105f9:	0f 1f 80 00 00 00 00 	nopl   0x0(%rax)
   10600:	8b 83 0c 03 00 00    	mov    0x30c(%rbx),%eax
   10606:	45 31 e4             	xor    %r12d,%r12d
   10609:	83 c8 20             	or     $0x20,%eax
   1060c:	89 83 0c 03 00 00    	mov    %eax,0x30c(%rbx)
   10612:	e9 33 fe ff ff       	jmpq   1044a <__pthread_tpp_change_priority+0x10a>
   10617:	66 0f 1f 84 00 00 00 	nopw   0x0(%rax,%rax,1)
   1061e:	00 00 
   10620:	48 8b 05 59 79 20 00 	mov    0x207959(%rip),%rax        # 217f80 <_DYNAMIC+0x1f0>
   10627:	64 44 8b 20          	mov    %fs:(%rax),%r12d
   1062b:	e9 22 fe ff ff       	jmpq   10452 <__pthread_tpp_change_priority+0x112>
   10630:	89 7d b8             	mov    %edi,-0x48(%rbp)
   10633:	e8 d8 fc ff ff       	callq  10310 <__init_sched_fifo_prio>
   10638:	8b 15 2a 7c 20 00    	mov    0x207c2a(%rip),%edx        # 218268 <__sched_fifo_min_prio>
   1063e:	8b 4d b8             	mov    -0x48(%rbp),%ecx
   10641:	e9 f9 fe ff ff       	jmpq   1053f <__pthread_tpp_change_priority+0x1ff>
   10646:	48 8d 0d 23 1b 00 00 	lea    0x1b23(%rip),%rcx        # 12170 <__PRETTY_FUNCTION__.7549>
   1064d:	48 8d 35 40 1a 00 00 	lea    0x1a40(%rip),%rsi        # 12094 <defaultdir+0xc3>
   10654:	48 8d 3d a5 1a 00 00 	lea    0x1aa5(%rip),%rdi        # 12100 <defaultdir+0x12f>
   1065b:	ba 41 00 00 00       	mov    $0x41,%edx
   10660:	e8 7b 4d ff ff       	callq  53e0 <__assert_fail@plt>
   10665:	48 8d 0d 04 1b 00 00 	lea    0x1b04(%rip),%rcx        # 12170 <__PRETTY_FUNCTION__.7549>
   1066c:	48 8d 35 21 1a 00 00 	lea    0x1a21(%rip),%rsi        # 12094 <defaultdir+0xc3>
   10673:	48 8d 3d 26 1a 00 00 	lea    0x1a26(%rip),%rdi        # 120a0 <defaultdir+0xcf>
   1067a:	ba 3e 00 00 00       	mov    $0x3e,%edx
   1067f:	e8 5c 4d ff ff       	callq  53e0 <__assert_fail@plt>

0000000000010684 <_L_lock_18>:
   10684:	48 8d bb 18 06 00 00 	lea    0x618(%rbx),%rdi
   1068b:	48 81 ec 80 00 00 00 	sub    $0x80,%rsp
   10692:	e8 09 dd ff ff       	callq  e3a0 <__lll_lock_wait_private>
   10697:	48 81 c4 80 00 00 00 	add    $0x80,%rsp
   1069e:	e9 a4 fb ff ff       	jmpq   10247 <__pthread_current_priority+0x37>

00000000000106a3 <_L_unlock_36>:
   106a3:	48 8d bb 18 06 00 00 	lea    0x618(%rbx),%rdi
   106aa:	48 81 ec 80 00 00 00 	sub    $0x80,%rsp
   106b1:	e8 7a de ff ff       	callq  e530 <__lll_unlock_wake_private>
   106b6:	48 81 c4 80 00 00 00 	add    $0x80,%rsp
   106bd:	e9 b0 fb ff ff       	jmpq   10272 <__pthread_current_priority+0x62>

00000000000106c2 <_L_lock_190>:
   106c2:	48 8d bb 18 06 00 00 	lea    0x618(%rbx),%rdi
   106c9:	48 81 ec 80 00 00 00 	sub    $0x80,%rsp
   106d0:	e8 cb dc ff ff       	callq  e3a0 <__lll_lock_wait_private>
   106d5:	48 81 c4 80 00 00 00 	add    $0x80,%rsp
   106dc:	e9 58 fd ff ff       	jmpq   10439 <__pthread_tpp_change_priority+0xf9>

00000000000106e1 <_L_unlock_206>:
   106e1:	48 8d bb 18 06 00 00 	lea    0x618(%rbx),%rdi
   106e8:	48 81 ec 80 00 00 00 	sub    $0x80,%rsp
   106ef:	e8 3c de ff ff       	callq  e530 <__lll_unlock_wake_private>
   106f4:	48 81 c4 80 00 00 00 	add    $0x80,%rsp
   106fb:	e9 64 fd ff ff       	jmpq   10464 <__pthread_tpp_change_priority+0x124>

0000000000010700 <pthread_mutex_getprioceiling>:
   10700:	55                   	push   %rbp
   10701:	f6 47 10 40          	testb  $0x40,0x10(%rdi)
   10705:	48 89 e5             	mov    %rsp,%rbp
   10708:	74 0b                	je     10715 <pthread_mutex_getprioceiling+0x15>
   1070a:	8b 07                	mov    (%rdi),%eax
   1070c:	c1 e8 13             	shr    $0x13,%eax
   1070f:	89 06                	mov    %eax,(%rsi)
   10711:	31 c0                	xor    %eax,%eax
   10713:	c9                   	leaveq 
   10714:	c3                   	retq   
   10715:	b8 16 00 00 00       	mov    $0x16,%eax
   1071a:	c9                   	leaveq 
   1071b:	c3                   	retq   
   1071c:	90                   	nop
   1071d:	90                   	nop
   1071e:	90                   	nop
   1071f:	90                   	nop

0000000000010720 <pthread_mutex_setprioceiling>:
   10720:	55                   	push   %rbp
   10721:	48 89 e5             	mov    %rsp,%rbp
   10724:	48 89 5d d8          	mov    %rbx,-0x28(%rbp)
   10728:	4c 89 65 e0          	mov    %r12,-0x20(%rbp)
   1072c:	48 89 fb             	mov    %rdi,%rbx
   1072f:	4c 89 6d e8          	mov    %r13,-0x18(%rbp)
   10733:	4c 89 75 f0          	mov    %r14,-0x10(%rbp)
   10737:	41 89 f4             	mov    %esi,%r12d
   1073a:	4c 89 7d f8          	mov    %r15,-0x8(%rbp)
   1073e:	48 83 ec 30          	sub    $0x30,%rsp
   10742:	f6 47 10 40          	testb  $0x40,0x10(%rdi)
   10746:	49 89 d5             	mov    %rdx,%r13
   10749:	0f 84 61 01 00 00    	je     108b0 <pthread_mutex_setprioceiling+0x190>
   1074f:	8b 05 13 7b 20 00    	mov    0x207b13(%rip),%eax        # 218268 <__sched_fifo_min_prio>
   10755:	83 f8 ff             	cmp    $0xffffffff,%eax
   10758:	0f 84 62 01 00 00    	je     108c0 <pthread_mutex_setprioceiling+0x1a0>
   1075e:	41 39 c4             	cmp    %eax,%r12d
   10761:	0f 8c 49 01 00 00    	jl     108b0 <pthread_mutex_setprioceiling+0x190>
   10767:	44 3b 25 fe 7a 20 00 	cmp    0x207afe(%rip),%r12d        # 21826c <__sched_fifo_max_prio>
   1076e:	0f 8f 3c 01 00 00    	jg     108b0 <pthread_mutex_setprioceiling+0x190>
   10774:	44 89 e0             	mov    %r12d,%eax
   10777:	25 ff 0f 00 00       	and    $0xfff,%eax
   1077c:	41 39 c4             	cmp    %eax,%r12d
   1077f:	0f 85 2b 01 00 00    	jne    108b0 <pthread_mutex_setprioceiling+0x190>
   10785:	8b 53 10             	mov    0x10(%rbx),%edx
   10788:	64 8b 04 25 d0 02 00 	mov    %fs:0x2d0,%eax
   1078f:	00 
   10790:	39 43 08             	cmp    %eax,0x8(%rbx)
   10793:	0f 84 d7 00 00 00    	je     10870 <pthread_mutex_setprioceiling+0x150>
   10799:	44 8b 03             	mov    (%rbx),%r8d
   1079c:	41 81 e0 00 00 f8 ff 	and    $0xfff80000,%r8d
   107a3:	45 89 c7             	mov    %r8d,%r15d
   107a6:	45 89 c6             	mov    %r8d,%r14d
   107a9:	44 89 c0             	mov    %r8d,%eax
   107ac:	41 83 cf 01          	or     $0x1,%r15d
   107b0:	f0 44 0f b1 3b       	lock cmpxchg %r15d,(%rbx)
   107b5:	44 39 c0             	cmp    %r8d,%eax
   107b8:	74 51                	je     1080b <pthread_mutex_setprioceiling+0xeb>
   107ba:	45 89 c1             	mov    %r8d,%r9d
   107bd:	41 83 c9 02          	or     $0x2,%r9d
   107c1:	44 89 f8             	mov    %r15d,%eax
   107c4:	f0 44 0f b1 0b       	lock cmpxchg %r9d,(%rbx)
   107c9:	41 89 c6             	mov    %eax,%r14d
   107cc:	25 00 00 f8 ff       	and    $0xfff80000,%eax
   107d1:	41 39 c0             	cmp    %eax,%r8d
   107d4:	75 35                	jne    1080b <pthread_mutex_setprioceiling+0xeb>
   107d6:	45 39 c6             	cmp    %r8d,%r14d
   107d9:	74 23                	je     107fe <pthread_mutex_setprioceiling+0xde>
   107db:	8b 73 10             	mov    0x10(%rbx),%esi
   107de:	45 31 d2             	xor    %r10d,%r10d
   107e1:	44 89 ca             	mov    %r9d,%edx
   107e4:	b8 ca 00 00 00       	mov    $0xca,%eax
   107e9:	48 89 df             	mov    %rbx,%rdi
   107ec:	f7 d6                	not    %esi
   107ee:	81 e6 80 00 00 00    	and    $0x80,%esi
   107f4:	64 23 34 25 48 00 00 	and    %fs:0x48,%esi
   107fb:	00 
   107fc:	0f 05                	syscall 
   107fe:	44 89 c0             	mov    %r8d,%eax
   10801:	f0 44 0f b1 0b       	lock cmpxchg %r9d,(%rbx)
   10806:	44 39 c0             	cmp    %r8d,%eax
   10809:	75 b6                	jne    107c1 <pthread_mutex_setprioceiling+0xa1>
   1080b:	41 c1 ee 13          	shr    $0x13,%r14d
   1080f:	31 d2                	xor    %edx,%edx
   10811:	4d 85 ed             	test   %r13,%r13
   10814:	74 04                	je     1081a <pthread_mutex_setprioceiling+0xfa>
   10816:	45 89 75 00          	mov    %r14d,0x0(%r13)
   1081a:	31 c0                	xor    %eax,%eax
   1081c:	84 d2                	test   %dl,%dl
   1081e:	74 07                	je     10827 <pthread_mutex_setprioceiling+0x107>
   10820:	8b 03                	mov    (%rbx),%eax
   10822:	25 ff ff 07 00       	and    $0x7ffff,%eax
   10827:	41 c1 e4 13          	shl    $0x13,%r12d
   1082b:	41 09 c4             	or     %eax,%r12d
   1082e:	44 89 23             	mov    %r12d,(%rbx)
   10831:	8b 73 10             	mov    0x10(%rbx),%esi
   10834:	ba ff ff ff 7f       	mov    $0x7fffffff,%edx
   10839:	b8 ca 00 00 00       	mov    $0xca,%eax
   1083e:	48 89 df             	mov    %rbx,%rdi
   10841:	f7 d6                	not    %esi
   10843:	81 e6 80 00 00 00    	and    $0x80,%esi
   10849:	64 23 34 25 48 00 00 	and    %fs:0x48,%esi
   10850:	00 
   10851:	83 ce 01             	or     $0x1,%esi
   10854:	0f 05                	syscall 
   10856:	31 c0                	xor    %eax,%eax
   10858:	48 8b 5d d8          	mov    -0x28(%rbp),%rbx
   1085c:	4c 8b 65 e0          	mov    -0x20(%rbp),%r12
   10860:	4c 8b 6d e8          	mov    -0x18(%rbp),%r13
   10864:	4c 8b 75 f0          	mov    -0x10(%rbp),%r14
   10868:	4c 8b 7d f8          	mov    -0x8(%rbp),%r15
   1086c:	c9                   	leaveq 
   1086d:	c3                   	retq   
   1086e:	66 90                	xchg   %ax,%ax
   10870:	83 e2 7f             	and    $0x7f,%edx
   10873:	b8 23 00 00 00       	mov    $0x23,%eax
   10878:	83 fa 42             	cmp    $0x42,%edx
   1087b:	74 db                	je     10858 <pthread_mutex_setprioceiling+0x138>
   1087d:	83 fa 41             	cmp    $0x41,%edx
   10880:	0f 85 13 ff ff ff    	jne    10799 <pthread_mutex_setprioceiling+0x79>
   10886:	44 8b 33             	mov    (%rbx),%r14d
   10889:	44 89 e6             	mov    %r12d,%esi
   1088c:	41 c1 ee 13          	shr    $0x13,%r14d
   10890:	44 89 f7             	mov    %r14d,%edi
   10893:	e8 a8 fa ff ff       	callq  10340 <__pthread_tpp_change_priority>
   10898:	85 c0                	test   %eax,%eax
   1089a:	ba 01 00 00 00       	mov    $0x1,%edx
   1089f:	0f 84 6c ff ff ff    	je     10811 <pthread_mutex_setprioceiling+0xf1>
   108a5:	eb b1                	jmp    10858 <pthread_mutex_setprioceiling+0x138>
   108a7:	66 0f 1f 84 00 00 00 	nopw   0x0(%rax,%rax,1)
   108ae:	00 00 
   108b0:	b8 16 00 00 00       	mov    $0x16,%eax
   108b5:	eb a1                	jmp    10858 <pthread_mutex_setprioceiling+0x138>
   108b7:	66 0f 1f 84 00 00 00 	nopw   0x0(%rax,%rax,1)
   108be:	00 00 
   108c0:	e8 4b fa ff ff       	callq  10310 <__init_sched_fifo_prio>
   108c5:	8b 05 9d 79 20 00    	mov    0x20799d(%rip),%eax        # 218268 <__sched_fifo_min_prio>
   108cb:	e9 8e fe ff ff       	jmpq   1075e <pthread_mutex_setprioceiling+0x3e>

00000000000108d0 <pthread_setname_np>:
   108d0:	55                   	push   %rbp
   108d1:	48 89 e5             	mov    %rsp,%rbp
   108d4:	41 55                	push   %r13
   108d6:	49 89 fd             	mov    %rdi,%r13
   108d9:	48 89 f7             	mov    %rsi,%rdi
   108dc:	41 54                	push   %r12
   108de:	49 89 f4             	mov    %rsi,%r12
   108e1:	53                   	push   %rbx
   108e2:	48 83 ec 28          	sub    $0x28,%rsp
   108e6:	e8 a5 4a ff ff       	callq  5390 <strlen@plt>
   108eb:	48 83 f8 0f          	cmp    $0xf,%rax
   108ef:	48 89 c3             	mov    %rax,%rbx
   108f2:	41 b8 22 00 00 00    	mov    $0x22,%r8d
   108f8:	77 77                	ja     10971 <pthread_setname_np+0xa1>
   108fa:	64 48 8b 04 25 10 00 	mov    %fs:0x10,%rax
   10901:	00 00 
   10903:	49 39 c5             	cmp    %rax,%r13
   10906:	74 78                	je     10980 <pthread_setname_np+0xb0>
   10908:	41 8b 95 d0 02 00 00 	mov    0x2d0(%r13),%edx
   1090f:	4c 8d 6d c0          	lea    -0x40(%rbp),%r13
   10913:	48 8d 35 74 18 00 00 	lea    0x1874(%rip),%rsi        # 1218e <__PRETTY_FUNCTION__.7549+0x1e>
   1091a:	31 c0                	xor    %eax,%eax
   1091c:	4c 89 ef             	mov    %r13,%rdi
   1091f:	e8 7c 4d ff ff       	callq  56a0 <sprintf@plt>
   10924:	4c 89 ef             	mov    %r13,%rdi
   10927:	31 c0                	xor    %eax,%eax
   10929:	be 02 00 00 00       	mov    $0x2,%esi
   1092e:	e8 06 e7 ff ff       	callq  f039 <__open_nocancel>
   10933:	83 f8 ff             	cmp    $0xffffffff,%eax
   10936:	41 89 c5             	mov    %eax,%r13d
   10939:	74 5b                	je     10996 <pthread_setname_np+0xc6>
   1093b:	0f 1f 44 00 00       	nopl   0x0(%rax,%rax,1)
   10940:	48 89 da             	mov    %rbx,%rdx
   10943:	4c 89 e6             	mov    %r12,%rsi
   10946:	44 89 ef             	mov    %r13d,%edi
   10949:	e8 1b df ff ff       	callq  e869 <__write_nocancel>
   1094e:	48 98                	cltq   
   10950:	48 83 f8 ff          	cmp    $0xffffffffffffffff,%rax
   10954:	75 5a                	jne    109b0 <pthread_setname_np+0xe0>
   10956:	48 8b 05 23 76 20 00 	mov    0x207623(%rip),%rax        # 217f80 <_DYNAMIC+0x1f0>
   1095d:	64 44 8b 00          	mov    %fs:(%rax),%r8d
   10961:	41 83 f8 04          	cmp    $0x4,%r8d
   10965:	74 d9                	je     10940 <pthread_setname_np+0x70>
   10967:	49 63 fd             	movslq %r13d,%rdi
   1096a:	b8 03 00 00 00       	mov    $0x3,%eax
   1096f:	0f 05                	syscall 
   10971:	48 83 c4 28          	add    $0x28,%rsp
   10975:	44 89 c0             	mov    %r8d,%eax
   10978:	5b                   	pop    %rbx
   10979:	41 5c                	pop    %r12
   1097b:	41 5d                	pop    %r13
   1097d:	c9                   	leaveq 
   1097e:	c3                   	retq   
   1097f:	90                   	nop
   10980:	31 c0                	xor    %eax,%eax
   10982:	4c 89 e6             	mov    %r12,%rsi
   10985:	bf 0f 00 00 00       	mov    $0xf,%edi
   1098a:	e8 71 4b ff ff       	callq  5500 <prctl@plt>
   1098f:	45 31 c0             	xor    %r8d,%r8d
   10992:	85 c0                	test   %eax,%eax
   10994:	74 db                	je     10971 <pthread_setname_np+0xa1>
   10996:	48 8b 05 e3 75 20 00 	mov    0x2075e3(%rip),%rax        # 217f80 <_DYNAMIC+0x1f0>
   1099d:	64 44 8b 00          	mov    %fs:(%rax),%r8d
   109a1:	48 83 c4 28          	add    $0x28,%rsp
   109a5:	5b                   	pop    %rbx
   109a6:	41 5c                	pop    %r12
   109a8:	44 89 c0             	mov    %r8d,%eax
   109ab:	41 5d                	pop    %r13
   109ad:	c9                   	leaveq 
   109ae:	c3                   	retq   
   109af:	90                   	nop
   109b0:	48 85 c0             	test   %rax,%rax
   109b3:	78 10                	js     109c5 <pthread_setname_np+0xf5>
   109b5:	45 31 c0             	xor    %r8d,%r8d
   109b8:	48 39 d8             	cmp    %rbx,%rax
   109bb:	41 0f 95 c0          	setne  %r8b
   109bf:	47 8d 04 80          	lea    (%r8,%r8,4),%r8d
   109c3:	eb a2                	jmp    10967 <pthread_setname_np+0x97>
   109c5:	48 8b 05 b4 75 20 00 	mov    0x2075b4(%rip),%rax        # 217f80 <_DYNAMIC+0x1f0>
   109cc:	64 44 8b 00          	mov    %fs:(%rax),%r8d
   109d0:	eb 95                	jmp    10967 <pthread_setname_np+0x97>
   109d2:	90                   	nop
   109d3:	90                   	nop
   109d4:	90                   	nop
   109d5:	90                   	nop
   109d6:	90                   	nop
   109d7:	90                   	nop
   109d8:	90                   	nop
   109d9:	90                   	nop
   109da:	90                   	nop
   109db:	90                   	nop
   109dc:	90                   	nop
   109dd:	90                   	nop
   109de:	90                   	nop
   109df:	90                   	nop

00000000000109e0 <pthread_getname_np>:
   109e0:	55                   	push   %rbp
   109e1:	41 b8 22 00 00 00    	mov    $0x22,%r8d
   109e7:	48 89 e5             	mov    %rsp,%rbp
   109ea:	41 55                	push   %r13
   109ec:	41 54                	push   %r12
   109ee:	49 89 f4             	mov    %rsi,%r12
   109f1:	53                   	push   %rbx
   109f2:	48 89 d3             	mov    %rdx,%rbx
   109f5:	48 83 ec 28          	sub    $0x28,%rsp
   109f9:	48 83 fa 0f          	cmp    $0xf,%rdx
   109fd:	76 72                	jbe    10a71 <pthread_getname_np+0x91>
   109ff:	64 48 8b 04 25 10 00 	mov    %fs:0x10,%rax
   10a06:	00 00 
   10a08:	48 39 c7             	cmp    %rax,%rdi
   10a0b:	74 73                	je     10a80 <pthread_getname_np+0xa0>
   10a0d:	8b 97 d0 02 00 00    	mov    0x2d0(%rdi),%edx
   10a13:	4c 8d 6d c0          	lea    -0x40(%rbp),%r13
   10a17:	48 8d 35 70 17 00 00 	lea    0x1770(%rip),%rsi        # 1218e <__PRETTY_FUNCTION__.7549+0x1e>
   10a1e:	31 c0                	xor    %eax,%eax
   10a20:	4c 89 ef             	mov    %r13,%rdi
   10a23:	e8 78 4c ff ff       	callq  56a0 <sprintf@plt>
   10a28:	31 f6                	xor    %esi,%esi
   10a2a:	4c 89 ef             	mov    %r13,%rdi
   10a2d:	31 c0                	xor    %eax,%eax
   10a2f:	e8 05 e6 ff ff       	callq  f039 <__open_nocancel>
   10a34:	83 f8 ff             	cmp    $0xffffffff,%eax
   10a37:	41 89 c5             	mov    %eax,%r13d
   10a3a:	74 57                	je     10a93 <pthread_getname_np+0xb3>
   10a3c:	0f 1f 40 00          	nopl   0x0(%rax)
   10a40:	48 89 da             	mov    %rbx,%rdx
   10a43:	4c 89 e6             	mov    %r12,%rsi
   10a46:	44 89 ef             	mov    %r13d,%edi
   10a49:	e8 7b de ff ff       	callq  e8c9 <__read_nocancel>
   10a4e:	48 98                	cltq   
   10a50:	48 83 f8 ff          	cmp    $0xffffffffffffffff,%rax
   10a54:	75 5a                	jne    10ab0 <pthread_getname_np+0xd0>
   10a56:	48 8b 05 23 75 20 00 	mov    0x207523(%rip),%rax        # 217f80 <_DYNAMIC+0x1f0>
   10a5d:	64 44 8b 00          	mov    %fs:(%rax),%r8d
   10a61:	41 83 f8 04          	cmp    $0x4,%r8d
   10a65:	74 d9                	je     10a40 <pthread_getname_np+0x60>
   10a67:	49 63 fd             	movslq %r13d,%rdi
   10a6a:	b8 03 00 00 00       	mov    $0x3,%eax
   10a6f:	0f 05                	syscall 
   10a71:	48 83 c4 28          	add    $0x28,%rsp
   10a75:	44 89 c0             	mov    %r8d,%eax
   10a78:	5b                   	pop    %rbx
   10a79:	41 5c                	pop    %r12
   10a7b:	41 5d                	pop    %r13
   10a7d:	c9                   	leaveq 
   10a7e:	c3                   	retq   
   10a7f:	90                   	nop
   10a80:	31 c0                	xor    %eax,%eax
   10a82:	bf 10 00 00 00       	mov    $0x10,%edi
   10a87:	e8 74 4a ff ff       	callq  5500 <prctl@plt>
   10a8c:	45 31 c0             	xor    %r8d,%r8d
   10a8f:	85 c0                	test   %eax,%eax
   10a91:	74 de                	je     10a71 <pthread_getname_np+0x91>
   10a93:	48 8b 05 e6 74 20 00 	mov    0x2074e6(%rip),%rax        # 217f80 <_DYNAMIC+0x1f0>
   10a9a:	64 44 8b 00          	mov    %fs:(%rax),%r8d
   10a9e:	48 83 c4 28          	add    $0x28,%rsp
   10aa2:	5b                   	pop    %rbx
   10aa3:	41 5c                	pop    %r12
   10aa5:	44 89 c0             	mov    %r8d,%eax
   10aa8:	41 5d                	pop    %r13
   10aaa:	c9                   	leaveq 
   10aab:	c3                   	retq   
   10aac:	0f 1f 40 00          	nopl   0x0(%rax)
   10ab0:	48 85 c0             	test   %rax,%rax
   10ab3:	78 2b                	js     10ae0 <pthread_getname_np+0x100>
   10ab5:	49 8d 54 04 ff       	lea    -0x1(%r12,%rax,1),%rdx
   10aba:	80 3a 0a             	cmpb   $0xa,(%rdx)
   10abd:	74 19                	je     10ad8 <pthread_getname_np+0xf8>
   10abf:	48 39 c3             	cmp    %rax,%rbx
   10ac2:	41 b8 22 00 00 00    	mov    $0x22,%r8d
   10ac8:	74 9d                	je     10a67 <pthread_getname_np+0x87>
   10aca:	41 c6 04 04 00       	movb   $0x0,(%r12,%rax,1)
   10acf:	45 30 c0             	xor    %r8b,%r8b
   10ad2:	eb 93                	jmp    10a67 <pthread_getname_np+0x87>
   10ad4:	0f 1f 40 00          	nopl   0x0(%rax)
   10ad8:	c6 02 00             	movb   $0x0,(%rdx)
   10adb:	45 31 c0             	xor    %r8d,%r8d
   10ade:	eb 87                	jmp    10a67 <pthread_getname_np+0x87>
   10ae0:	48 8b 05 99 74 20 00 	mov    0x207499(%rip),%rax        # 217f80 <_DYNAMIC+0x1f0>
   10ae7:	64 44 8b 00          	mov    %fs:(%rax),%r8d
   10aeb:	e9 77 ff ff ff       	jmpq   10a67 <pthread_getname_np+0x87>

0000000000010af0 <__fork>:
   10af0:	55                   	push   %rbp
   10af1:	48 89 e5             	mov    %rsp,%rbp
   10af4:	c9                   	leaveq 
   10af5:	e9 06 49 ff ff       	jmpq   5400 <__libc_fork@plt>
   10afa:	90                   	nop
   10afb:	90                   	nop
   10afc:	90                   	nop
   10afd:	90                   	nop
   10afe:	90                   	nop
   10aff:	90                   	nop

0000000000010b00 <__pthread_mutex_cond_lock_adjust>:
   10b00:	55                   	push   %rbp
   10b01:	8b 47 10             	mov    0x10(%rdi),%eax
   10b04:	48 89 e5             	mov    %rsp,%rbp
   10b07:	a8 20                	test   $0x20,%al
   10b09:	74 69                	je     10b74 <__pthread_mutex_cond_lock_adjust+0x74>
   10b0b:	a8 10                	test   $0x10,%al
   10b0d:	75 46                	jne    10b55 <__pthread_mutex_cond_lock_adjust+0x55>
   10b0f:	84 c0                	test   %al,%al
   10b11:	78 23                	js     10b36 <__pthread_mutex_cond_lock_adjust+0x36>
   10b13:	64 8b 04 25 d0 02 00 	mov    %fs:0x2d0,%eax
   10b1a:	00 
   10b1b:	83 7f 10 21          	cmpl   $0x21,0x10(%rdi)
   10b1f:	89 47 08             	mov    %eax,0x8(%rdi)
   10b22:	74 0c                	je     10b30 <__pthread_mutex_cond_lock_adjust+0x30>
   10b24:	c9                   	leaveq 
   10b25:	c3                   	retq   
   10b26:	66 2e 0f 1f 84 00 00 	nopw   %cs:0x0(%rax,%rax,1)
   10b2d:	00 00 00 
   10b30:	83 47 04 01          	addl   $0x1,0x4(%rdi)
   10b34:	c9                   	leaveq 
   10b35:	c3                   	retq   
   10b36:	48 8d 0d 43 17 00 00 	lea    0x1743(%rip),%rcx        # 12280 <__PRETTY_FUNCTION__.9226>
   10b3d:	48 8d 35 62 16 00 00 	lea    0x1662(%rip),%rsi        # 121a6 <__PRETTY_FUNCTION__.7549+0x36>
   10b44:	48 8d 3d fd 16 00 00 	lea    0x16fd(%rip),%rdi        # 12248 <__PRETTY_FUNCTION__.7549+0xd8>
   10b4b:	ba ec 01 00 00       	mov    $0x1ec,%edx
   10b50:	e8 8b 48 ff ff       	callq  53e0 <__assert_fail@plt>
   10b55:	48 8d 0d 24 17 00 00 	lea    0x1724(%rip),%rcx        # 12280 <__PRETTY_FUNCTION__.9226>
   10b5c:	48 8d 35 43 16 00 00 	lea    0x1643(%rip),%rsi        # 121a6 <__PRETTY_FUNCTION__.7549+0x36>
   10b63:	48 8d 3d 9e 16 00 00 	lea    0x169e(%rip),%rdi        # 12208 <__PRETTY_FUNCTION__.7549+0x98>
   10b6a:	ba eb 01 00 00       	mov    $0x1eb,%edx
   10b6f:	e8 6c 48 ff ff       	callq  53e0 <__assert_fail@plt>
   10b74:	48 8d 0d 05 17 00 00 	lea    0x1705(%rip),%rcx        # 12280 <__PRETTY_FUNCTION__.9226>
   10b7b:	48 8d 35 24 16 00 00 	lea    0x1624(%rip),%rsi        # 121a6 <__PRETTY_FUNCTION__.7549+0x36>
   10b82:	48 8d 3d 3f 16 00 00 	lea    0x163f(%rip),%rdi        # 121c8 <__PRETTY_FUNCTION__.7549+0x58>
   10b89:	ba ea 01 00 00       	mov    $0x1ea,%edx
   10b8e:	e8 4d 48 ff ff       	callq  53e0 <__assert_fail@plt>
   10b93:	66 66 66 66 2e 0f 1f 	data32 data32 data32 nopw %cs:0x0(%rax,%rax,1)
   10b9a:	84 00 00 00 00 00 

0000000000010ba0 <__pthread_mutex_cond_lock_full>:
   10ba0:	55                   	push   %rbp
   10ba1:	48 89 e5             	mov    %rsp,%rbp
   10ba4:	41 57                	push   %r15
   10ba6:	41 56                	push   %r14
   10ba8:	41 55                	push   %r13
   10baa:	41 54                	push   %r12
   10bac:	53                   	push   %rbx
   10bad:	48 89 fb             	mov    %rdi,%rbx
   10bb0:	48 83 ec 08          	sub    $0x8,%rsp
   10bb4:	64 44 8b 24 25 d0 02 	mov    %fs:0x2d0,%r12d
   10bbb:	00 00 
   10bbd:	44 8b 47 10          	mov    0x10(%rdi),%r8d
   10bc1:	44 89 c1             	mov    %r8d,%ecx
   10bc4:	83 e1 7f             	and    $0x7f,%ecx
   10bc7:	83 e9 10             	sub    $0x10,%ecx
   10bca:	83 f9 33             	cmp    $0x33,%ecx
   10bcd:	76 14                	jbe    10be3 <__pthread_mutex_cond_lock_full+0x43>
   10bcf:	b8 16 00 00 00       	mov    $0x16,%eax
   10bd4:	48 83 c4 08          	add    $0x8,%rsp
   10bd8:	5b                   	pop    %rbx
   10bd9:	41 5c                	pop    %r12
   10bdb:	41 5d                	pop    %r13
   10bdd:	41 5e                	pop    %r14
   10bdf:	41 5f                	pop    %r15
   10be1:	c9                   	leaveq 
   10be2:	c3                   	retq   
   10be3:	b8 01 00 00 00       	mov    $0x1,%eax
   10be8:	48 ba 00 00 0f 00 0f 	movabs $0xf000f0000,%rdx
   10bef:	00 00 00 
   10bf2:	48 d3 e0             	shl    %cl,%rax
   10bf5:	48 85 d0             	test   %rdx,%rax
   10bf8:	0f 84 b3 00 00 00    	je     10cb1 <__pthread_mutex_cond_lock_full+0x111>
   10bfe:	45 89 c1             	mov    %r8d,%r9d
   10c01:	41 83 e1 03          	and    $0x3,%r9d
   10c05:	41 83 e0 10          	and    $0x10,%r8d
   10c09:	0f 85 f2 02 00 00    	jne    10f01 <__pthread_mutex_cond_lock_full+0x361>
   10c0f:	8b 03                	mov    (%rbx),%eax
   10c11:	25 ff ff ff 3f       	and    $0x3fffffff,%eax
   10c16:	41 39 c4             	cmp    %eax,%r12d
   10c19:	0f 84 f0 03 00 00    	je     1100f <__pthread_mutex_cond_lock_full+0x46f>
   10c1f:	44 89 e2             	mov    %r12d,%edx
   10c22:	31 c0                	xor    %eax,%eax
   10c24:	81 ca 00 00 00 80    	or     $0x80000000,%edx
   10c2a:	f0 0f b1 13          	lock cmpxchg %edx,(%rbx)
   10c2e:	85 c0                	test   %eax,%eax
   10c30:	0f 84 13 02 00 00    	je     10e49 <__pthread_mutex_cond_lock_full+0x2a9>
   10c36:	45 85 c0             	test   %r8d,%r8d
   10c39:	be 80 00 00 00       	mov    $0x80,%esi
   10c3e:	75 09                	jne    10c49 <__pthread_mutex_cond_lock_full+0xa9>
   10c40:	8b 73 10             	mov    0x10(%rbx),%esi
   10c43:	81 e6 80 00 00 00    	and    $0x80,%esi
   10c49:	40 80 f6 80          	xor    $0x80,%sil
   10c4d:	45 31 d2             	xor    %r10d,%r10d
   10c50:	ba 01 00 00 00       	mov    $0x1,%edx
   10c55:	64 23 34 25 48 00 00 	and    %fs:0x48,%esi
   10c5c:	00 
   10c5d:	48 89 df             	mov    %rbx,%rdi
   10c60:	83 ce 06             	or     $0x6,%esi
   10c63:	b8 ca 00 00 00       	mov    $0xca,%eax
   10c68:	0f 05                	syscall 
   10c6a:	3d 00 f0 ff ff       	cmp    $0xfffff000,%eax
   10c6f:	0f 86 b7 01 00 00    	jbe    10e2c <__pthread_mutex_cond_lock_full+0x28c>
   10c75:	83 f8 fd             	cmp    $0xfffffffd,%eax
   10c78:	0f 94 c2             	sete   %dl
   10c7b:	83 f8 dd             	cmp    $0xffffffdd,%eax
   10c7e:	0f 85 49 03 00 00    	jne    10fcd <__pthread_mutex_cond_lock_full+0x42d>
   10c84:	41 83 e9 01          	sub    $0x1,%r9d
   10c88:	41 83 f9 01          	cmp    $0x1,%r9d
   10c8c:	0f 87 43 03 00 00    	ja     10fd5 <__pthread_mutex_cond_lock_full+0x435>
   10c92:	48 8d 0d 47 16 00 00 	lea    0x1647(%rip),%rcx        # 122e0 <__PRETTY_FUNCTION__.8723>
   10c99:	48 8d 35 06 15 00 00 	lea    0x1506(%rip),%rsi        # 121a6 <__PRETTY_FUNCTION__.7549+0x36>
   10ca0:	48 8d 3d 61 0e 00 00 	lea    0xe61(%rip),%rdi        # 11b08 <__PRETTY_FUNCTION__.7538+0x48>
   10ca7:	ba 3a 01 00 00       	mov    $0x13a,%edx
   10cac:	e8 2f 47 ff ff       	callq  53e0 <__assert_fail@plt>
   10cb1:	48 ba 00 00 00 00 00 	movabs $0xf000000000000,%rdx
   10cb8:	00 0f 00 
   10cbb:	48 85 d0             	test   %rdx,%rax
   10cbe:	0f 85 8b 00 00 00    	jne    10d4f <__pthread_mutex_cond_lock_full+0x1af>
   10cc4:	a8 0f                	test   $0xf,%al
   10cc6:	0f 84 03 ff ff ff    	je     10bcf <__pthread_mutex_cond_lock_full+0x2f>
   10ccc:	4c 8d 57 20          	lea    0x20(%rdi),%r10
   10cd0:	64 4c 89 14 25 f0 02 	mov    %r10,%fs:0x2f0
   10cd7:	00 00 
   10cd9:	8b 0f                	mov    (%rdi),%ecx
   10cdb:	44 89 e2             	mov    %r12d,%edx
   10cde:	45 31 c0             	xor    %r8d,%r8d
   10ce1:	81 ca 00 00 00 80    	or     $0x80000000,%edx
   10ce7:	41 b9 80 00 00 00    	mov    $0x80,%r9d
   10ced:	0f 1f 00             	nopl   (%rax)
   10cf0:	f7 c1 00 00 00 40    	test   $0x40000000,%ecx
   10cf6:	75 43                	jne    10d3b <__pthread_mutex_cond_lock_full+0x19b>
   10cf8:	81 e1 ff ff ff 3f    	and    $0x3fffffff,%ecx
   10cfe:	41 39 cc             	cmp    %ecx,%r12d
   10d01:	0f 84 88 04 00 00    	je     1118f <__pthread_mutex_cond_lock_full+0x5ef>
   10d07:	89 d7                	mov    %edx,%edi
   10d09:	44 89 c0             	mov    %r8d,%eax
   10d0c:	44 89 ce             	mov    %r9d,%esi
   10d0f:	f0 0f b1 3b          	lock cmpxchg %edi,(%rbx)
   10d13:	0f 85 8a 06 00 00    	jne    113a3 <_L_robust_cond_lock_198>
   10d19:	81 7b 08 fe ff ff 7f 	cmpl   $0x7ffffffe,0x8(%rbx)
   10d20:	0f 84 3d 04 00 00    	je     11163 <__pthread_mutex_cond_lock_full+0x5c3>
   10d26:	a9 00 00 00 40       	test   $0x40000000,%eax
   10d2b:	0f 84 e6 01 00 00    	je     10f17 <__pthread_mutex_cond_lock_full+0x377>
   10d31:	89 c1                	mov    %eax,%ecx
   10d33:	f7 c1 00 00 00 40    	test   $0x40000000,%ecx
   10d39:	74 bd                	je     10cf8 <__pthread_mutex_cond_lock_full+0x158>
   10d3b:	89 c8                	mov    %ecx,%eax
   10d3d:	f0 0f b1 13          	lock cmpxchg %edx,(%rbx)
   10d41:	39 c8                	cmp    %ecx,%eax
   10d43:	89 c6                	mov    %eax,%esi
   10d45:	0f 84 1f 02 00 00    	je     10f6a <__pthread_mutex_cond_lock_full+0x3ca>
   10d4b:	89 f1                	mov    %esi,%ecx
   10d4d:	eb a1                	jmp    10cf0 <__pthread_mutex_cond_lock_full+0x150>
   10d4f:	44 3b 67 08          	cmp    0x8(%rdi),%r12d
   10d53:	8b 0f                	mov    (%rdi),%ecx
   10d55:	0f 84 70 01 00 00    	je     10ecb <__pthread_mutex_cond_lock_full+0x32b>
   10d5b:	41 bd ff ff ff ff    	mov    $0xffffffff,%r13d
   10d61:	41 be ca 00 00 00    	mov    $0xca,%r14d
   10d67:	41 89 cf             	mov    %ecx,%r15d
   10d6a:	41 c1 ef 13          	shr    $0x13,%r15d
   10d6e:	e8 9d f4 ff ff       	callq  10210 <__pthread_current_priority>
   10d73:	41 39 c7             	cmp    %eax,%r15d
   10d76:	0f 8c 6b 02 00 00    	jl     10fe7 <__pthread_mutex_cond_lock_full+0x447>
   10d7c:	44 89 fe             	mov    %r15d,%esi
   10d7f:	44 89 ef             	mov    %r13d,%edi
   10d82:	e8 b9 f5 ff ff       	callq  10340 <__pthread_tpp_change_priority>
   10d87:	85 c0                	test   %eax,%eax
   10d89:	0f 85 45 fe ff ff    	jne    10bd4 <__pthread_mutex_cond_lock_full+0x34>
   10d8f:	45 89 f8             	mov    %r15d,%r8d
   10d92:	41 c1 e0 13          	shl    $0x13,%r8d
   10d96:	45 89 c1             	mov    %r8d,%r9d
   10d99:	44 89 c0             	mov    %r8d,%eax
   10d9c:	41 83 c9 02          	or     $0x2,%r9d
   10da0:	f0 44 0f b1 0b       	lock cmpxchg %r9d,(%rbx)
   10da5:	44 39 c0             	cmp    %r8d,%eax
   10da8:	74 5c                	je     10e06 <__pthread_mutex_cond_lock_full+0x266>
   10daa:	45 89 c5             	mov    %r8d,%r13d
   10dad:	41 83 cd 01          	or     $0x1,%r13d
   10db1:	0f 1f 80 00 00 00 00 	nopl   0x0(%rax)
   10db8:	44 89 e8             	mov    %r13d,%eax
   10dbb:	f0 44 0f b1 0b       	lock cmpxchg %r9d,(%rbx)
   10dc0:	89 c2                	mov    %eax,%edx
   10dc2:	89 c1                	mov    %eax,%ecx
   10dc4:	81 e2 00 00 f8 ff    	and    $0xfff80000,%edx
   10dca:	41 39 d0             	cmp    %edx,%r8d
   10dcd:	0f 85 e7 00 00 00    	jne    10eba <__pthread_mutex_cond_lock_full+0x31a>
   10dd3:	44 39 c0             	cmp    %r8d,%eax
   10dd6:	74 21                	je     10df9 <__pthread_mutex_cond_lock_full+0x259>
   10dd8:	8b 73 10             	mov    0x10(%rbx),%esi
   10ddb:	45 31 d2             	xor    %r10d,%r10d
   10dde:	44 89 ca             	mov    %r9d,%edx
   10de1:	44 89 f0             	mov    %r14d,%eax
   10de4:	48 89 df             	mov    %rbx,%rdi
   10de7:	f7 d6                	not    %esi
   10de9:	81 e6 80 00 00 00    	and    $0x80,%esi
   10def:	64 23 34 25 48 00 00 	and    %fs:0x48,%esi
   10df6:	00 
   10df7:	0f 05                	syscall 
   10df9:	44 89 c0             	mov    %r8d,%eax
   10dfc:	f0 44 0f b1 0b       	lock cmpxchg %r9d,(%rbx)
   10e01:	44 39 c0             	cmp    %r8d,%eax
   10e04:	75 b2                	jne    10db8 <__pthread_mutex_cond_lock_full+0x218>
   10e06:	83 7b 08 00          	cmpl   $0x0,0x8(%rbx)
   10e0a:	0f 85 32 02 00 00    	jne    11042 <__pthread_mutex_cond_lock_full+0x4a2>
   10e10:	c7 43 04 01 00 00 00 	movl   $0x1,0x4(%rbx)
   10e17:	44 89 63 08          	mov    %r12d,0x8(%rbx)
   10e1b:	48 83 c4 08          	add    $0x8,%rsp
   10e1f:	31 c0                	xor    %eax,%eax
   10e21:	5b                   	pop    %rbx
   10e22:	41 5c                	pop    %r12
   10e24:	41 5d                	pop    %r13
   10e26:	41 5e                	pop    %r14
   10e28:	41 5f                	pop    %r15
   10e2a:	c9                   	leaveq 
   10e2b:	c3                   	retq   
   10e2c:	45 85 c0             	test   %r8d,%r8d
   10e2f:	8b 03                	mov    (%rbx),%eax
   10e31:	75 0b                	jne    10e3e <__pthread_mutex_cond_lock_full+0x29e>
   10e33:	a9 00 00 00 40       	test   $0x40000000,%eax
   10e38:	0f 85 d4 02 00 00    	jne    11112 <__pthread_mutex_cond_lock_full+0x572>
   10e3e:	a9 00 00 00 40       	test   $0x40000000,%eax
   10e43:	0f 85 57 02 00 00    	jne    110a0 <__pthread_mutex_cond_lock_full+0x500>
   10e49:	45 85 c0             	test   %r8d,%r8d
   10e4c:	0f 1f 40 00          	nopl   0x0(%rax)
   10e50:	74 be                	je     10e10 <__pthread_mutex_cond_lock_full+0x270>
   10e52:	81 7b 08 fe ff ff 7f 	cmpl   $0x7ffffffe,0x8(%rbx)
   10e59:	0f 84 d2 02 00 00    	je     11131 <__pthread_mutex_cond_lock_full+0x591>
   10e5f:	c7 43 04 01 00 00 00 	movl   $0x1,0x4(%rbx)
   10e66:	64 48 8b 04 25 e0 02 	mov    %fs:0x2e0,%rax
   10e6d:	00 00 
   10e6f:	48 8d 53 20          	lea    0x20(%rbx),%rdx
   10e73:	48 83 e0 fe          	and    $0xfffffffffffffffe,%rax
   10e77:	48 89 50 f8          	mov    %rdx,-0x8(%rax)
   10e7b:	64 48 8b 04 25 e0 02 	mov    %fs:0x2e0,%rax
   10e82:	00 00 
   10e84:	48 89 43 20          	mov    %rax,0x20(%rbx)
   10e88:	48 83 ca 01          	or     $0x1,%rdx
   10e8c:	64 48 8b 04 25 10 00 	mov    %fs:0x10,%rax
   10e93:	00 00 
   10e95:	48 05 e0 02 00 00    	add    $0x2e0,%rax
   10e9b:	48 89 43 18          	mov    %rax,0x18(%rbx)
   10e9f:	64 48 89 14 25 e0 02 	mov    %rdx,%fs:0x2e0
   10ea6:	00 00 
   10ea8:	64 48 c7 04 25 f0 02 	movq   $0x0,%fs:0x2f0
   10eaf:	00 00 00 00 00 00 
   10eb5:	e9 5d ff ff ff       	jmpq   10e17 <__pthread_mutex_cond_lock_full+0x277>
   10eba:	44 39 c2             	cmp    %r8d,%edx
   10ebd:	45 89 fd             	mov    %r15d,%r13d
   10ec0:	0f 85 a1 fe ff ff    	jne    10d67 <__pthread_mutex_cond_lock_full+0x1c7>
   10ec6:	e9 3b ff ff ff       	jmpq   10e06 <__pthread_mutex_cond_lock_full+0x266>
   10ecb:	41 83 e0 03          	and    $0x3,%r8d
   10ecf:	b8 23 00 00 00       	mov    $0x23,%eax
   10ed4:	41 83 f8 02          	cmp    $0x2,%r8d
   10ed8:	0f 84 f6 fc ff ff    	je     10bd4 <__pthread_mutex_cond_lock_full+0x34>
   10ede:	41 83 f8 01          	cmp    $0x1,%r8d
   10ee2:	0f 85 73 fe ff ff    	jne    10d5b <__pthread_mutex_cond_lock_full+0x1bb>
   10ee8:	8b 47 04             	mov    0x4(%rdi),%eax
   10eeb:	83 f8 ff             	cmp    $0xffffffff,%eax
   10eee:	0f 84 44 01 00 00    	je     11038 <__pthread_mutex_cond_lock_full+0x498>
   10ef4:	83 c0 01             	add    $0x1,%eax
   10ef7:	89 43 04             	mov    %eax,0x4(%rbx)
   10efa:	31 c0                	xor    %eax,%eax
   10efc:	e9 d3 fc ff ff       	jmpq   10bd4 <__pthread_mutex_cond_lock_full+0x34>
   10f01:	48 8d 47 20          	lea    0x20(%rdi),%rax
   10f05:	48 83 c8 01          	or     $0x1,%rax
   10f09:	64 48 89 04 25 f0 02 	mov    %rax,%fs:0x2f0
   10f10:	00 00 
   10f12:	e9 f8 fc ff ff       	jmpq   10c0f <__pthread_mutex_cond_lock_full+0x6f>
   10f17:	c7 43 04 01 00 00 00 	movl   $0x1,0x4(%rbx)
   10f1e:	64 48 8b 04 25 e0 02 	mov    %fs:0x2e0,%rax
   10f25:	00 00 
   10f27:	48 83 e0 fe          	and    $0xfffffffffffffffe,%rax
   10f2b:	4c 89 50 f8          	mov    %r10,-0x8(%rax)
   10f2f:	64 48 8b 04 25 e0 02 	mov    %fs:0x2e0,%rax
   10f36:	00 00 
   10f38:	48 89 43 20          	mov    %rax,0x20(%rbx)
   10f3c:	64 48 8b 04 25 10 00 	mov    %fs:0x10,%rax
   10f43:	00 00 
   10f45:	48 05 e0 02 00 00    	add    $0x2e0,%rax
   10f4b:	48 89 43 18          	mov    %rax,0x18(%rbx)
   10f4f:	64 4c 89 14 25 e0 02 	mov    %r10,%fs:0x2e0
   10f56:	00 00 
   10f58:	64 48 c7 04 25 f0 02 	movq   $0x0,%fs:0x2f0
   10f5f:	00 00 00 00 00 00 
   10f65:	e9 ad fe ff ff       	jmpq   10e17 <__pthread_mutex_cond_lock_full+0x277>
   10f6a:	c7 43 04 01 00 00 00 	movl   $0x1,0x4(%rbx)
   10f71:	c7 43 08 ff ff ff 7f 	movl   $0x7fffffff,0x8(%rbx)
   10f78:	64 48 8b 04 25 e0 02 	mov    %fs:0x2e0,%rax
   10f7f:	00 00 
   10f81:	48 83 e0 fe          	and    $0xfffffffffffffffe,%rax
   10f85:	4c 89 50 f8          	mov    %r10,-0x8(%rax)
   10f89:	64 48 8b 04 25 e0 02 	mov    %fs:0x2e0,%rax
   10f90:	00 00 
   10f92:	48 89 43 20          	mov    %rax,0x20(%rbx)
   10f96:	64 48 8b 04 25 10 00 	mov    %fs:0x10,%rax
   10f9d:	00 00 
   10f9f:	48 05 e0 02 00 00    	add    $0x2e0,%rax
   10fa5:	48 89 43 18          	mov    %rax,0x18(%rbx)
   10fa9:	64 4c 89 14 25 e0 02 	mov    %r10,%fs:0x2e0
   10fb0:	00 00 
   10fb2:	64 48 c7 04 25 f0 02 	movq   $0x0,%fs:0x2f0
   10fb9:	00 00 00 00 00 00 
   10fbf:	b8 82 00 00 00       	mov    $0x82,%eax
   10fc4:	83 6b 0c 01          	subl   $0x1,0xc(%rbx)
   10fc8:	e9 07 fc ff ff       	jmpq   10bd4 <__pthread_mutex_cond_lock_full+0x34>
   10fcd:	84 d2                	test   %dl,%dl
   10fcf:	0f 84 57 fe ff ff    	je     10e2c <__pthread_mutex_cond_lock_full+0x28c>
   10fd5:	84 d2                	test   %dl,%dl
   10fd7:	0f 85 84 00 00 00    	jne    11061 <__pthread_mutex_cond_lock_full+0x4c1>
   10fdd:	0f 1f 00             	nopl   (%rax)
   10fe0:	e8 b4 e0 ff ff       	callq  f099 <__pause_nocancel>
   10fe5:	eb f9                	jmp    10fe0 <__pthread_mutex_cond_lock_full+0x440>
   10fe7:	41 83 fd ff          	cmp    $0xffffffff,%r13d
   10feb:	0f 1f 44 00 00       	nopl   0x0(%rax,%rax,1)
   10ff0:	0f 84 d9 fb ff ff    	je     10bcf <__pthread_mutex_cond_lock_full+0x2f>
   10ff6:	83 ce ff             	or     $0xffffffff,%esi
   10ff9:	44 89 ef             	mov    %r13d,%edi
   10ffc:	0f 1f 40 00          	nopl   0x0(%rax)
   11000:	e8 3b f3 ff ff       	callq  10340 <__pthread_tpp_change_priority>
   11005:	b8 16 00 00 00       	mov    $0x16,%eax
   1100a:	e9 c5 fb ff ff       	jmpq   10bd4 <__pthread_mutex_cond_lock_full+0x34>
   1100f:	41 83 f9 02          	cmp    $0x2,%r9d
   11013:	74 74                	je     11089 <__pthread_mutex_cond_lock_full+0x4e9>
   11015:	41 83 f9 01          	cmp    $0x1,%r9d
   11019:	0f 85 00 fc ff ff    	jne    10c1f <__pthread_mutex_cond_lock_full+0x7f>
   1101f:	64 48 c7 04 25 f0 02 	movq   $0x0,%fs:0x2f0
   11026:	00 00 00 00 00 00 
   1102c:	8b 43 04             	mov    0x4(%rbx),%eax
   1102f:	83 f8 ff             	cmp    $0xffffffff,%eax
   11032:	0f 85 bc fe ff ff    	jne    10ef4 <__pthread_mutex_cond_lock_full+0x354>
   11038:	b8 0b 00 00 00       	mov    $0xb,%eax
   1103d:	e9 92 fb ff ff       	jmpq   10bd4 <__pthread_mutex_cond_lock_full+0x34>
   11042:	48 8d 0d 97 12 00 00 	lea    0x1297(%rip),%rcx        # 122e0 <__PRETTY_FUNCTION__.8723>
   11049:	48 8d 35 56 11 00 00 	lea    0x1156(%rip),%rsi        # 121a6 <__PRETTY_FUNCTION__.7549+0x36>
   11050:	48 8d 3d 95 0a 00 00 	lea    0xa95(%rip),%rdi        # 11aec <__PRETTY_FUNCTION__.7538+0x2c>
   11057:	ba cb 01 00 00       	mov    $0x1cb,%edx
   1105c:	e8 7f 43 ff ff       	callq  53e0 <__assert_fail@plt>
   11061:	45 85 c0             	test   %r8d,%r8d
   11064:	0f 84 76 ff ff ff    	je     10fe0 <__pthread_mutex_cond_lock_full+0x440>
   1106a:	48 8d 0d 6f 12 00 00 	lea    0x126f(%rip),%rcx        # 122e0 <__PRETTY_FUNCTION__.8723>
   11071:	48 8d 35 2e 11 00 00 	lea    0x112e(%rip),%rsi        # 121a6 <__PRETTY_FUNCTION__.7549+0x36>
   11078:	48 8d 3d 56 0a 00 00 	lea    0xa56(%rip),%rdi        # 11ad5 <__PRETTY_FUNCTION__.7538+0x15>
   1107f:	ba 3d 01 00 00       	mov    $0x13d,%edx
   11084:	e8 57 43 ff ff       	callq  53e0 <__assert_fail@plt>
   11089:	64 48 c7 04 25 f0 02 	movq   $0x0,%fs:0x2f0
   11090:	00 00 00 00 00 00 
   11096:	b8 23 00 00 00       	mov    $0x23,%eax
   1109b:	e9 34 fb ff ff       	jmpq   10bd4 <__pthread_mutex_cond_lock_full+0x34>
   110a0:	f0 81 23 ff ff ff bf 	lock andl $0xbfffffff,(%rbx)
   110a7:	c7 43 04 01 00 00 00 	movl   $0x1,0x4(%rbx)
   110ae:	c7 43 08 ff ff ff 7f 	movl   $0x7fffffff,0x8(%rbx)
   110b5:	64 48 8b 04 25 e0 02 	mov    %fs:0x2e0,%rax
   110bc:	00 00 
   110be:	48 8d 53 20          	lea    0x20(%rbx),%rdx
   110c2:	48 83 e0 fe          	and    $0xfffffffffffffffe,%rax
   110c6:	48 89 50 f8          	mov    %rdx,-0x8(%rax)
   110ca:	64 48 8b 04 25 e0 02 	mov    %fs:0x2e0,%rax
   110d1:	00 00 
   110d3:	48 89 43 20          	mov    %rax,0x20(%rbx)
   110d7:	48 83 ca 01          	or     $0x1,%rdx
   110db:	64 48 8b 04 25 10 00 	mov    %fs:0x10,%rax
   110e2:	00 00 
   110e4:	48 05 e0 02 00 00    	add    $0x2e0,%rax
   110ea:	48 89 43 18          	mov    %rax,0x18(%rbx)
   110ee:	64 48 89 14 25 e0 02 	mov    %rdx,%fs:0x2e0
   110f5:	00 00 
   110f7:	64 48 c7 04 25 f0 02 	movq   $0x0,%fs:0x2f0
   110fe:	00 00 00 00 00 00 
   11104:	b8 82 00 00 00       	mov    $0x82,%eax
   11109:	83 6b 0c 01          	subl   $0x1,0xc(%rbx)
   1110d:	e9 c2 fa ff ff       	jmpq   10bd4 <__pthread_mutex_cond_lock_full+0x34>
   11112:	48 8d 0d c7 11 00 00 	lea    0x11c7(%rip),%rcx        # 122e0 <__PRETTY_FUNCTION__.8723>
   11119:	48 8d 35 86 10 00 00 	lea    0x1086(%rip),%rsi        # 121a6 <__PRETTY_FUNCTION__.7549+0x36>
   11120:	48 8d 3d 41 0a 00 00 	lea    0xa41(%rip),%rdi        # 11b68 <__PRETTY_FUNCTION__.7538+0xa8>
   11127:	ba 46 01 00 00       	mov    $0x146,%edx
   1112c:	e8 af 42 ff ff       	callq  53e0 <__assert_fail@plt>
   11131:	c7 43 04 00 00 00 00 	movl   $0x0,0x4(%rbx)
   11138:	45 31 d2             	xor    %r10d,%r10d
   1113b:	31 d2                	xor    %edx,%edx
   1113d:	be 07 00 00 00       	mov    $0x7,%esi
   11142:	48 89 df             	mov    %rbx,%rdi
   11145:	b8 ca 00 00 00       	mov    $0xca,%eax
   1114a:	0f 05                	syscall 
   1114c:	64 48 c7 04 25 f0 02 	movq   $0x0,%fs:0x2f0
   11153:	00 00 00 00 00 00 
   11159:	b8 83 00 00 00       	mov    $0x83,%eax
   1115e:	e9 71 fa ff ff       	jmpq   10bd4 <__pthread_mutex_cond_lock_full+0x34>
   11163:	c7 43 04 00 00 00 00 	movl   $0x0,0x4(%rbx)
   1116a:	be 80 00 00 00       	mov    $0x80,%esi
   1116f:	f0 ff 0b             	lock decl (%rbx)
   11172:	0f 85 46 02 00 00    	jne    113be <_L_unlock_530>
   11178:	64 48 c7 04 25 f0 02 	movq   $0x0,%fs:0x2f0
   1117f:	00 00 00 00 00 00 
   11185:	b8 83 00 00 00       	mov    $0x83,%eax
   1118a:	e9 45 fa ff ff       	jmpq   10bd4 <__pthread_mutex_cond_lock_full+0x34>
   1118f:	8b 43 10             	mov    0x10(%rbx),%eax
   11192:	83 e0 7f             	and    $0x7f,%eax
   11195:	83 f8 12             	cmp    $0x12,%eax
   11198:	74 27                	je     111c1 <__pthread_mutex_cond_lock_full+0x621>
   1119a:	83 f8 11             	cmp    $0x11,%eax
   1119d:	0f 85 64 fb ff ff    	jne    10d07 <__pthread_mutex_cond_lock_full+0x167>
   111a3:	64 48 c7 04 25 f0 02 	movq   $0x0,%fs:0x2f0
   111aa:	00 00 00 00 00 00 
   111b0:	8b 43 04             	mov    0x4(%rbx),%eax
   111b3:	83 f8 ff             	cmp    $0xffffffff,%eax
   111b6:	0f 85 38 fd ff ff    	jne    10ef4 <__pthread_mutex_cond_lock_full+0x354>
   111bc:	e9 77 fe ff ff       	jmpq   11038 <__pthread_mutex_cond_lock_full+0x498>
   111c1:	64 48 c7 04 25 f0 02 	movq   $0x0,%fs:0x2f0
   111c8:	00 00 00 00 00 00 
   111ce:	b0 23                	mov    $0x23,%al
   111d0:	e9 ff f9 ff ff       	jmpq   10bd4 <__pthread_mutex_cond_lock_full+0x34>
   111d5:	66 66 2e 0f 1f 84 00 	data32 nopw %cs:0x0(%rax,%rax,1)
   111dc:	00 00 00 00 

00000000000111e0 <__pthread_mutex_cond_lock>:
   111e0:	55                   	push   %rbp
   111e1:	8b 77 10             	mov    0x10(%rdi),%esi
   111e4:	49 89 f8             	mov    %rdi,%r8
   111e7:	48 89 e5             	mov    %rsp,%rbp
   111ea:	89 f2                	mov    %esi,%edx
   111ec:	89 f0                	mov    %esi,%eax
   111ee:	83 e2 7f             	and    $0x7f,%edx
   111f1:	83 e0 7c             	and    $0x7c,%eax
   111f4:	75 35                	jne    1122b <__pthread_mutex_cond_lock+0x4b>
   111f6:	64 44 8b 0c 25 d0 02 	mov    %fs:0x2d0,%r9d
   111fd:	00 00 
   111ff:	85 d2                	test   %edx,%edx
   11201:	75 4d                	jne    11250 <__pthread_mutex_cond_lock+0x70>
   11203:	81 e6 80 00 00 00    	and    $0x80,%esi
   11209:	bf 02 00 00 00       	mov    $0x2,%edi
   1120e:	31 c0                	xor    %eax,%eax
   11210:	f0 41 0f b1 38       	lock cmpxchg %edi,(%r8)
   11215:	0f 85 be 01 00 00    	jne    113d9 <_L_cond_lock_583>
   1121b:	41 8b 40 08          	mov    0x8(%r8),%eax
   1121f:	85 c0                	test   %eax,%eax
   11221:	75 0e                	jne    11231 <__pthread_mutex_cond_lock+0x51>
   11223:	45 89 48 08          	mov    %r9d,0x8(%r8)
   11227:	31 c0                	xor    %eax,%eax
   11229:	c9                   	leaveq 
   1122a:	c3                   	retq   
   1122b:	c9                   	leaveq 
   1122c:	e9 6f f9 ff ff       	jmpq   10ba0 <__pthread_mutex_cond_lock_full>
   11231:	48 8d 0d 88 10 00 00 	lea    0x1088(%rip),%rcx        # 122c0 <__PRETTY_FUNCTION__.8486>
   11238:	48 8d 35 67 0f 00 00 	lea    0xf67(%rip),%rsi        # 121a6 <__PRETTY_FUNCTION__.7549+0x36>
   1123f:	48 8d 3d a6 08 00 00 	lea    0x8a6(%rip),%rdi        # 11aec <__PRETTY_FUNCTION__.7538+0x2c>
   11246:	ba 41 00 00 00       	mov    $0x41,%edx
   1124b:	e8 90 41 ff ff       	callq  53e0 <__assert_fail@plt>
   11250:	83 fa 01             	cmp    $0x1,%edx
   11253:	75 48                	jne    1129d <__pthread_mutex_cond_lock+0xbd>
   11255:	44 3b 4f 08          	cmp    0x8(%rdi),%r9d
   11259:	74 2b                	je     11286 <__pthread_mutex_cond_lock+0xa6>
   1125b:	81 e6 80 00 00 00    	and    $0x80,%esi
   11261:	bf 02 00 00 00       	mov    $0x2,%edi
   11266:	f0 41 0f b1 38       	lock cmpxchg %edi,(%r8)
   1126b:	0f 85 83 01 00 00    	jne    113f4 <_L_cond_lock_621>
   11271:	41 83 78 08 00       	cmpl   $0x0,0x8(%r8)
   11276:	0f 85 b5 00 00 00    	jne    11331 <__pthread_mutex_cond_lock+0x151>
   1127c:	41 c7 40 04 01 00 00 	movl   $0x1,0x4(%r8)
   11283:	00 
   11284:	eb 9d                	jmp    11223 <__pthread_mutex_cond_lock+0x43>
   11286:	8b 57 04             	mov    0x4(%rdi),%edx
   11289:	b8 0b 00 00 00       	mov    $0xb,%eax
   1128e:	83 fa ff             	cmp    $0xffffffff,%edx
   11291:	74 96                	je     11229 <__pthread_mutex_cond_lock+0x49>
   11293:	83 c2 01             	add    $0x1,%edx
   11296:	30 c0                	xor    %al,%al
   11298:	89 57 04             	mov    %edx,0x4(%rdi)
   1129b:	c9                   	leaveq 
   1129c:	c3                   	retq   
   1129d:	83 fa 03             	cmp    $0x3,%edx
   112a0:	0f 85 c8 00 00 00    	jne    1136e <__pthread_mutex_cond_lock+0x18e>
   112a6:	83 3d af b0 20 00 00 	cmpl   $0x0,0x20b0af(%rip)        # 21c35c <__is_smp>
   112ad:	0f 84 50 ff ff ff    	je     11203 <__pthread_mutex_cond_lock+0x23>
   112b3:	b2 02                	mov    $0x2,%dl
   112b5:	f0 0f b1 17          	lock cmpxchg %edx,(%rdi)
   112b9:	85 c0                	test   %eax,%eax
   112bb:	74 4a                	je     11307 <__pthread_mutex_cond_lock+0x127>
   112bd:	8b 4f 14             	mov    0x14(%rdi),%ecx
   112c0:	b8 64 00 00 00       	mov    $0x64,%eax
   112c5:	be 02 00 00 00       	mov    $0x2,%esi
   112ca:	8d 4c 09 0a          	lea    0xa(%rcx,%rcx,1),%ecx
   112ce:	83 f9 64             	cmp    $0x64,%ecx
   112d1:	0f 4f c8             	cmovg  %eax,%ecx
   112d4:	30 d2                	xor    %dl,%dl
   112d6:	31 ff                	xor    %edi,%edi
   112d8:	83 c2 01             	add    $0x1,%edx
   112db:	8d 42 ff             	lea    -0x1(%rdx),%eax
   112de:	39 c1                	cmp    %eax,%ecx
   112e0:	7e 6e                	jle    11350 <__pthread_mutex_cond_lock+0x170>
   112e2:	f3 90                	pause  
   112e4:	89 f8                	mov    %edi,%eax
   112e6:	f0 41 0f b1 30       	lock cmpxchg %esi,(%r8)
   112eb:	85 c0                	test   %eax,%eax
   112ed:	75 e9                	jne    112d8 <__pthread_mutex_cond_lock+0xf8>
   112ef:	41 8b 48 14          	mov    0x14(%r8),%ecx
   112f3:	be 08 00 00 00       	mov    $0x8,%esi
   112f8:	29 ca                	sub    %ecx,%edx
   112fa:	89 d0                	mov    %edx,%eax
   112fc:	c1 fa 1f             	sar    $0x1f,%edx
   112ff:	f7 fe                	idiv   %esi
   11301:	01 c8                	add    %ecx,%eax
   11303:	41 89 40 14          	mov    %eax,0x14(%r8)
   11307:	41 83 78 08 00       	cmpl   $0x0,0x8(%r8)
   1130c:	0f 84 11 ff ff ff    	je     11223 <__pthread_mutex_cond_lock+0x43>
   11312:	48 8d 0d a7 0f 00 00 	lea    0xfa7(%rip),%rcx        # 122c0 <__PRETTY_FUNCTION__.8486>
   11319:	48 8d 35 86 0e 00 00 	lea    0xe86(%rip),%rsi        # 121a6 <__PRETTY_FUNCTION__.7549+0x36>
   11320:	48 8d 3d c5 07 00 00 	lea    0x7c5(%rip),%rdi        # 11aec <__PRETTY_FUNCTION__.7538+0x2c>
   11327:	ba 74 00 00 00       	mov    $0x74,%edx
   1132c:	e8 af 40 ff ff       	callq  53e0 <__assert_fail@plt>
   11331:	48 8d 0d 88 0f 00 00 	lea    0xf88(%rip),%rcx        # 122c0 <__PRETTY_FUNCTION__.8486>
   11338:	48 8d 35 67 0e 00 00 	lea    0xe67(%rip),%rsi        # 121a6 <__PRETTY_FUNCTION__.7549+0x36>
   1133f:	48 8d 3d a6 07 00 00 	lea    0x7a6(%rip),%rdi        # 11aec <__PRETTY_FUNCTION__.7538+0x2c>
   11346:	ba 57 00 00 00       	mov    $0x57,%edx
   1134b:	e8 90 40 ff ff       	callq  53e0 <__assert_fail@plt>
   11350:	41 8b 70 10          	mov    0x10(%r8),%esi
   11354:	bf 02 00 00 00       	mov    $0x2,%edi
   11359:	31 c0                	xor    %eax,%eax
   1135b:	81 e6 80 00 00 00    	and    $0x80,%esi
   11361:	f0 41 0f b1 38       	lock cmpxchg %edi,(%r8)
   11366:	0f 85 a3 00 00 00    	jne    1140f <_L_cond_lock_711>
   1136c:	eb 81                	jmp    112ef <__pthread_mutex_cond_lock+0x10f>
   1136e:	83 fa 02             	cmp    $0x2,%edx
   11371:	75 11                	jne    11384 <__pthread_mutex_cond_lock+0x1a4>
   11373:	44 3b 4f 08          	cmp    0x8(%rdi),%r9d
   11377:	b8 23 00 00 00       	mov    $0x23,%eax
   1137c:	0f 85 81 fe ff ff    	jne    11203 <__pthread_mutex_cond_lock+0x23>
   11382:	c9                   	leaveq 
   11383:	c3                   	retq   
   11384:	48 8d 0d 35 0f 00 00 	lea    0xf35(%rip),%rcx        # 122c0 <__PRETTY_FUNCTION__.8486>
   1138b:	48 8d 35 14 0e 00 00 	lea    0xe14(%rip),%rsi        # 121a6 <__PRETTY_FUNCTION__.7549+0x36>
   11392:	48 8d 3d f7 07 00 00 	lea    0x7f7(%rip),%rdi        # 11b90 <__PRETTY_FUNCTION__.7538+0xd0>
   11399:	ba 78 00 00 00       	mov    $0x78,%edx
   1139e:	e8 3d 40 ff ff       	callq  53e0 <__assert_fail@plt>

00000000000113a3 <_L_robust_cond_lock_198>:
   113a3:	48 8d 3b             	lea    (%rbx),%rdi
   113a6:	48 81 ec 80 00 00 00 	sub    $0x80,%rsp
   113ad:	e8 6e d2 ff ff       	callq  e620 <__lll_robust_lock_wait>
   113b2:	48 81 c4 80 00 00 00 	add    $0x80,%rsp
   113b9:	e9 5b f9 ff ff       	jmpq   10d19 <__pthread_mutex_cond_lock_full+0x179>

00000000000113be <_L_unlock_530>:
   113be:	48 8d 3b             	lea    (%rbx),%rdi
   113c1:	48 81 ec 80 00 00 00 	sub    $0x80,%rsp
   113c8:	e8 93 d1 ff ff       	callq  e560 <__lll_unlock_wake>
   113cd:	48 81 c4 80 00 00 00 	add    $0x80,%rsp
   113d4:	e9 9f fd ff ff       	jmpq   11178 <__pthread_mutex_cond_lock_full+0x5d8>

00000000000113d9 <_L_cond_lock_583>:
   113d9:	49 8d 38             	lea    (%r8),%rdi
   113dc:	48 81 ec 80 00 00 00 	sub    $0x80,%rsp
   113e3:	e8 e8 cf ff ff       	callq  e3d0 <__lll_lock_wait>
   113e8:	48 81 c4 80 00 00 00 	add    $0x80,%rsp
   113ef:	e9 27 fe ff ff       	jmpq   1121b <__pthread_mutex_cond_lock+0x3b>

00000000000113f4 <_L_cond_lock_621>:
   113f4:	49 8d 38             	lea    (%r8),%rdi
   113f7:	48 81 ec 80 00 00 00 	sub    $0x80,%rsp
   113fe:	e8 cd cf ff ff       	callq  e3d0 <__lll_lock_wait>
   11403:	48 81 c4 80 00 00 00 	add    $0x80,%rsp
   1140a:	e9 62 fe ff ff       	jmpq   11271 <__pthread_mutex_cond_lock+0x91>

000000000001140f <_L_cond_lock_711>:
   1140f:	49 8d 38             	lea    (%r8),%rdi
   11412:	48 81 ec 80 00 00 00 	sub    $0x80,%rsp
   11419:	e8 b2 cf ff ff       	callq  e3d0 <__lll_lock_wait>
   1141e:	48 81 c4 80 00 00 00 	add    $0x80,%rsp
   11425:	e9 42 ff ff ff       	jmpq   1136c <__pthread_mutex_cond_lock+0x18c>
   1142a:	90                   	nop
   1142b:	90                   	nop
   1142c:	90                   	nop
   1142d:	90                   	nop
   1142e:	90                   	nop
   1142f:	90                   	nop

0000000000011430 <__errno_location>:
   11430:	55                   	push   %rbp
   11431:	48 8b 05 48 6b 20 00 	mov    0x206b48(%rip),%rax        # 217f80 <_DYNAMIC+0x1f0>
   11438:	64 48 03 04 25 00 00 	add    %fs:0x0,%rax
   1143f:	00 00 
   11441:	48 89 e5             	mov    %rsp,%rbp
   11444:	c9                   	leaveq 
   11445:	c3                   	retq   
   11446:	90                   	nop
   11447:	90                   	nop
   11448:	90                   	nop
   11449:	90                   	nop
   1144a:	90                   	nop
   1144b:	90                   	nop
   1144c:	90                   	nop
   1144d:	90                   	nop
   1144e:	90                   	nop
   1144f:	90                   	nop

0000000000011450 <__do_global_ctors_aux>:
   11450:	55                   	push   %rbp
   11451:	48 89 e5             	mov    %rsp,%rbp
   11454:	53                   	push   %rbx
   11455:	48 83 ec 08          	sub    $0x8,%rsp
   11459:	48 8b 05 50 67 20 00 	mov    0x206750(%rip),%rax        # 217bb0 <__CTOR_LIST__>
   11460:	48 83 f8 ff          	cmp    $0xffffffffffffffff,%rax
   11464:	74 19                	je     1147f <__do_global_ctors_aux+0x2f>
   11466:	48 8d 1d 43 67 20 00 	lea    0x206743(%rip),%rbx        # 217bb0 <__CTOR_LIST__>
   1146d:	0f 1f 00             	nopl   (%rax)
   11470:	48 83 eb 08          	sub    $0x8,%rbx
   11474:	ff d0                	callq  *%rax
   11476:	48 8b 03             	mov    (%rbx),%rax
   11479:	48 83 f8 ff          	cmp    $0xffffffffffffffff,%rax
   1147d:	75 f1                	jne    11470 <__do_global_ctors_aux+0x20>
   1147f:	48 83 c4 08          	add    $0x8,%rsp
   11483:	5b                   	pop    %rbx
   11484:	c9                   	leaveq 
   11485:	c3                   	retq   
   11486:	90                   	nop
   11487:	90                   	nop

Disassembly of section __libc_freeres_fn:

0000000000011490 <nptl_freeres>:
   11490:	55                   	push   %rbp
   11491:	48 89 e5             	mov    %rsp,%rbp
   11494:	e8 17 00 00 00       	callq  114b0 <__unwind_freeres>
   11499:	c9                   	leaveq 
   1149a:	31 ff                	xor    %edi,%edi
   1149c:	e9 df 55 ff ff       	jmpq   6a80 <__free_stacks>
	...

00000000000114b0 <__unwind_freeres>:
   114b0:	55                   	push   %rbp
   114b1:	48 8b 3d 48 ae 20 00 	mov    0x20ae48(%rip),%rdi        # 21c300 <libgcc_s_handle>
   114b8:	48 89 e5             	mov    %rsp,%rbp
   114bb:	48 85 ff             	test   %rdi,%rdi
   114be:	74 18                	je     114d8 <__unwind_freeres+0x28>
   114c0:	48 c7 05 35 ae 20 00 	movq   $0x0,0x20ae35(%rip)        # 21c300 <libgcc_s_handle>
   114c7:	00 00 00 00 
   114cb:	c9                   	leaveq 
   114cc:	e9 6f 3e ff ff       	jmpq   5340 <__libc_dlclose@plt>
   114d1:	0f 1f 80 00 00 00 00 	nopl   0x0(%rax)
   114d8:	c9                   	leaveq 
   114d9:	c3                   	retq   

Disassembly of section .fini:

00000000000114dc <_fini>:
   114dc:	48 83 ec 08          	sub    $0x8,%rsp
   114e0:	e8 5b 42 ff ff       	callq  5740 <__do_global_dtors_aux>
   114e5:	48 83 c4 08          	add    $0x8,%rsp
   114e9:	c3                   	retq   
