
/media/psf/Home/Work/glibc/lib/libpthread.so.0:     file format elf64-x86-64


Disassembly of section .init:

00000000000052b0 <_init>:
    52b0:	48 83 ec 08          	sub    $0x8,%rsp
    52b4:	e8 87 05 00 00       	callq  5840 <__pthread_initialize_minimal>
    52b9:	e8 02 05 00 00       	callq  57c0 <frame_dummy>
    52be:	e8 8d c1 00 00       	callq  11450 <__do_global_ctors_aux>
    52c3:	48 83 c4 08          	add    $0x8,%rsp
    52c7:	c3                   	retq   

Disassembly of section .plt:

00000000000052d0 <__clone@plt-0x10>:
    52d0:	ff 35 1a 2d 21 00    	pushq  0x212d1a(%rip)        # 217ff0 <_GLOBAL_OFFSET_TABLE_+0x8>
    52d6:	ff 25 1c 2d 21 00    	jmpq   *0x212d1c(%rip)        # 217ff8 <_GLOBAL_OFFSET_TABLE_+0x10>
    52dc:	0f 1f 40 00          	nopl   0x0(%rax)

00000000000052e0 <__clone@plt>:
    52e0:	ff 25 1a 2d 21 00    	jmpq   *0x212d1a(%rip)        # 218000 <_GLOBAL_OFFSET_TABLE_+0x18>
    52e6:	68 00 00 00 00       	pushq  $0x0
    52eb:	e9 e0 ff ff ff       	jmpq   52d0 <_init+0x20>

00000000000052f0 <free@plt>:
    52f0:	ff 25 12 2d 21 00    	jmpq   *0x212d12(%rip)        # 218008 <_GLOBAL_OFFSET_TABLE_+0x20>
    52f6:	68 01 00 00 00       	pushq  $0x1
    52fb:	e9 d0 ff ff ff       	jmpq   52d0 <_init+0x20>

0000000000005300 <abort@plt>:
    5300:	ff 25 0a 2d 21 00    	jmpq   *0x212d0a(%rip)        # 218010 <_GLOBAL_OFFSET_TABLE_+0x28>
    5306:	68 02 00 00 00       	pushq  $0x2
    530b:	e9 c0 ff ff ff       	jmpq   52d0 <_init+0x20>

0000000000005310 <unlink@plt>:
    5310:	ff 25 02 2d 21 00    	jmpq   *0x212d02(%rip)        # 218018 <_GLOBAL_OFFSET_TABLE_+0x30>
    5316:	68 03 00 00 00       	pushq  $0x3
    531b:	e9 b0 ff ff ff       	jmpq   52d0 <_init+0x20>

0000000000005320 <_exit@plt>:
    5320:	ff 25 fa 2c 21 00    	jmpq   *0x212cfa(%rip)        # 218020 <_GLOBAL_OFFSET_TABLE_+0x38>
    5326:	68 04 00 00 00       	pushq  $0x4
    532b:	e9 a0 ff ff ff       	jmpq   52d0 <_init+0x20>

0000000000005330 <__sched_getscheduler@plt>:
    5330:	ff 25 f2 2c 21 00    	jmpq   *0x212cf2(%rip)        # 218028 <_GLOBAL_OFFSET_TABLE_+0x40>
    5336:	68 05 00 00 00       	pushq  $0x5
    533b:	e9 90 ff ff ff       	jmpq   52d0 <_init+0x20>

0000000000005340 <__libc_dlclose@plt>:
    5340:	ff 25 ea 2c 21 00    	jmpq   *0x212cea(%rip)        # 218030 <_GLOBAL_OFFSET_TABLE_+0x48>
    5346:	68 06 00 00 00       	pushq  $0x6
    534b:	e9 80 ff ff ff       	jmpq   52d0 <_init+0x20>

0000000000005350 <__libc_fatal@plt>:
    5350:	ff 25 e2 2c 21 00    	jmpq   *0x212ce2(%rip)        # 218038 <_GLOBAL_OFFSET_TABLE_+0x50>
    5356:	68 07 00 00 00       	pushq  $0x7
    535b:	e9 70 ff ff ff       	jmpq   52d0 <_init+0x20>

0000000000005360 <tfind@plt>:
    5360:	ff 25 da 2c 21 00    	jmpq   *0x212cda(%rip)        # 218040 <_GLOBAL_OFFSET_TABLE_+0x58>
    5366:	68 08 00 00 00       	pushq  $0x8
    536b:	e9 60 ff ff ff       	jmpq   52d0 <_init+0x20>

0000000000005370 <__statfs@plt>:
    5370:	ff 25 d2 2c 21 00    	jmpq   *0x212cd2(%rip)        # 218048 <_GLOBAL_OFFSET_TABLE_+0x60>
    5376:	68 09 00 00 00       	pushq  $0x9
    537b:	e9 50 ff ff ff       	jmpq   52d0 <_init+0x20>

0000000000005380 <fclose@plt>:
    5380:	ff 25 ca 2c 21 00    	jmpq   *0x212cca(%rip)        # 218050 <_GLOBAL_OFFSET_TABLE_+0x68>
    5386:	68 0a 00 00 00       	pushq  $0xa
    538b:	e9 40 ff ff ff       	jmpq   52d0 <_init+0x20>

0000000000005390 <strlen@plt>:
    5390:	ff 25 c2 2c 21 00    	jmpq   *0x212cc2(%rip)        # 218058 <_GLOBAL_OFFSET_TABLE_+0x70>
    5396:	68 0b 00 00 00       	pushq  $0xb
    539b:	e9 30 ff ff ff       	jmpq   52d0 <_init+0x20>

00000000000053a0 <__libc_system@plt>:
    53a0:	ff 25 ba 2c 21 00    	jmpq   *0x212cba(%rip)        # 218060 <_GLOBAL_OFFSET_TABLE_+0x78>
    53a6:	68 0c 00 00 00       	pushq  $0xc
    53ab:	e9 20 ff ff ff       	jmpq   52d0 <_init+0x20>

00000000000053b0 <getuid@plt>:
    53b0:	ff 25 b2 2c 21 00    	jmpq   *0x212cb2(%rip)        # 218068 <_GLOBAL_OFFSET_TABLE_+0x80>
    53b6:	68 0d 00 00 00       	pushq  $0xd
    53bb:	e9 10 ff ff ff       	jmpq   52d0 <_init+0x20>

00000000000053c0 <mmap@plt>:
    53c0:	ff 25 aa 2c 21 00    	jmpq   *0x212caa(%rip)        # 218070 <_GLOBAL_OFFSET_TABLE_+0x88>
    53c6:	68 0e 00 00 00       	pushq  $0xe
    53cb:	e9 00 ff ff ff       	jmpq   52d0 <_init+0x20>

00000000000053d0 <__gettimeofday@plt>:
    53d0:	ff 25 a2 2c 21 00    	jmpq   *0x212ca2(%rip)        # 218078 <_GLOBAL_OFFSET_TABLE_+0x90>
    53d6:	68 0f 00 00 00       	pushq  $0xf
    53db:	e9 f0 fe ff ff       	jmpq   52d0 <_init+0x20>

00000000000053e0 <__assert_fail@plt>:
    53e0:	ff 25 9a 2c 21 00    	jmpq   *0x212c9a(%rip)        # 218080 <_GLOBAL_OFFSET_TABLE_+0x98>
    53e6:	68 10 00 00 00       	pushq  $0x10
    53eb:	e9 e0 fe ff ff       	jmpq   52d0 <_init+0x20>

00000000000053f0 <memset@plt>:
    53f0:	ff 25 92 2c 21 00    	jmpq   *0x212c92(%rip)        # 218088 <_GLOBAL_OFFSET_TABLE_+0xa0>
    53f6:	68 11 00 00 00       	pushq  $0x11
    53fb:	e9 d0 fe ff ff       	jmpq   52d0 <_init+0x20>

0000000000005400 <__libc_fork@plt>:
    5400:	ff 25 8a 2c 21 00    	jmpq   *0x212c8a(%rip)        # 218090 <_GLOBAL_OFFSET_TABLE_+0xa8>
    5406:	68 12 00 00 00       	pushq  $0x12
    540b:	e9 c0 fe ff ff       	jmpq   52d0 <_init+0x20>

0000000000005410 <tdelete@plt>:
    5410:	ff 25 82 2c 21 00    	jmpq   *0x212c82(%rip)        # 218098 <_GLOBAL_OFFSET_TABLE_+0xb0>
    5416:	68 13 00 00 00       	pushq  $0x13
    541b:	e9 b0 fe ff ff       	jmpq   52d0 <_init+0x20>

0000000000005420 <__register_atfork@plt>:
    5420:	ff 25 7a 2c 21 00    	jmpq   *0x212c7a(%rip)        # 2180a0 <_GLOBAL_OFFSET_TABLE_+0xb8>
    5426:	68 14 00 00 00       	pushq  $0x14
    542b:	e9 a0 fe ff ff       	jmpq   52d0 <_init+0x20>

0000000000005430 <sched_yield@plt>:
    5430:	ff 25 72 2c 21 00    	jmpq   *0x212c72(%rip)        # 2180a8 <_GLOBAL_OFFSET_TABLE_+0xc0>
    5436:	68 15 00 00 00       	pushq  $0x15
    543b:	e9 90 fe ff ff       	jmpq   52d0 <_init+0x20>

0000000000005440 <_dl_deallocate_tls@plt>:
    5440:	ff 25 6a 2c 21 00    	jmpq   *0x212c6a(%rip)        # 2180b0 <_GLOBAL_OFFSET_TABLE_+0xc8>
    5446:	68 16 00 00 00       	pushq  $0x16
    544b:	e9 80 fe ff ff       	jmpq   52d0 <_init+0x20>

0000000000005450 <__tls_get_addr@plt>:
    5450:	ff 25 62 2c 21 00    	jmpq   *0x212c62(%rip)        # 2180b8 <_GLOBAL_OFFSET_TABLE_+0xd0>
    5456:	68 17 00 00 00       	pushq  $0x17
    545b:	e9 70 fe ff ff       	jmpq   52d0 <_init+0x20>

0000000000005460 <__sched_getparam@plt>:
    5460:	ff 25 5a 2c 21 00    	jmpq   *0x212c5a(%rip)        # 2180c0 <_GLOBAL_OFFSET_TABLE_+0xd8>
    5466:	68 18 00 00 00       	pushq  $0x18
    546b:	e9 60 fe ff ff       	jmpq   52d0 <_init+0x20>

0000000000005470 <_setjmp@plt>:
    5470:	ff 25 52 2c 21 00    	jmpq   *0x212c52(%rip)        # 2180c8 <_GLOBAL_OFFSET_TABLE_+0xe0>
    5476:	68 19 00 00 00       	pushq  $0x19
    547b:	e9 50 fe ff ff       	jmpq   52d0 <_init+0x20>

0000000000005480 <calloc@plt>:
    5480:	ff 25 4a 2c 21 00    	jmpq   *0x212c4a(%rip)        # 2180d0 <_GLOBAL_OFFSET_TABLE_+0xe8>
    5486:	68 1a 00 00 00       	pushq  $0x1a
    548b:	e9 40 fe ff ff       	jmpq   52d0 <_init+0x20>

0000000000005490 <__getdelim@plt>:
    5490:	ff 25 42 2c 21 00    	jmpq   *0x212c42(%rip)        # 2180d8 <_GLOBAL_OFFSET_TABLE_+0xf0>
    5496:	68 1b 00 00 00       	pushq  $0x1b
    549b:	e9 30 fe ff ff       	jmpq   52d0 <_init+0x20>

00000000000054a0 <__getmntent_r@plt>:
    54a0:	ff 25 3a 2c 21 00    	jmpq   *0x212c3a(%rip)        # 2180e0 <_GLOBAL_OFFSET_TABLE_+0xf8>
    54a6:	68 1c 00 00 00       	pushq  $0x1c
    54ab:	e9 20 fe ff ff       	jmpq   52d0 <_init+0x20>

00000000000054b0 <__fxstat64@plt>:
    54b0:	ff 25 32 2c 21 00    	jmpq   *0x212c32(%rip)        # 2180e8 <_GLOBAL_OFFSET_TABLE_+0x100>
    54b6:	68 1d 00 00 00       	pushq  $0x1d
    54bb:	e9 10 fe ff ff       	jmpq   52d0 <_init+0x20>

00000000000054c0 <strcmp@plt>:
    54c0:	ff 25 2a 2c 21 00    	jmpq   *0x212c2a(%rip)        # 2180f0 <_GLOBAL_OFFSET_TABLE_+0x108>
    54c6:	68 1e 00 00 00       	pushq  $0x1e
    54cb:	e9 00 fe ff ff       	jmpq   52d0 <_init+0x20>

00000000000054d0 <__libc_thread_freeres@plt>:
    54d0:	ff 25 22 2c 21 00    	jmpq   *0x212c22(%rip)        # 2180f8 <_GLOBAL_OFFSET_TABLE_+0x110>
    54d6:	68 1f 00 00 00       	pushq  $0x1f
    54db:	e9 f0 fd ff ff       	jmpq   52d0 <_init+0x20>

00000000000054e0 <__endmntent@plt>:
    54e0:	ff 25 1a 2c 21 00    	jmpq   *0x212c1a(%rip)        # 218100 <_GLOBAL_OFFSET_TABLE_+0x118>
    54e6:	68 20 00 00 00       	pushq  $0x20
    54eb:	e9 e0 fd ff ff       	jmpq   52d0 <_init+0x20>

00000000000054f0 <memcpy@plt>:
    54f0:	ff 25 12 2c 21 00    	jmpq   *0x212c12(%rip)        # 218108 <_GLOBAL_OFFSET_TABLE_+0x120>
    54f6:	68 21 00 00 00       	pushq  $0x21
    54fb:	e9 d0 fd ff ff       	jmpq   52d0 <_init+0x20>

0000000000005500 <prctl@plt>:
    5500:	ff 25 0a 2c 21 00    	jmpq   *0x212c0a(%rip)        # 218110 <_GLOBAL_OFFSET_TABLE_+0x128>
    5506:	68 22 00 00 00       	pushq  $0x22
    550b:	e9 c0 fd ff ff       	jmpq   52d0 <_init+0x20>

0000000000005510 <__libc_current_sigrtmax_private@plt>:
    5510:	ff 25 02 2c 21 00    	jmpq   *0x212c02(%rip)        # 218118 <_GLOBAL_OFFSET_TABLE_+0x130>
    5516:	68 23 00 00 00       	pushq  $0x23
    551b:	e9 b0 fd ff ff       	jmpq   52d0 <_init+0x20>

0000000000005520 <__sched_setscheduler@plt>:
    5520:	ff 25 fa 2b 21 00    	jmpq   *0x212bfa(%rip)        # 218120 <_GLOBAL_OFFSET_TABLE_+0x138>
    5526:	68 24 00 00 00       	pushq  $0x24
    552b:	e9 a0 fd ff ff       	jmpq   52d0 <_init+0x20>

0000000000005530 <__libc_dlopen_mode@plt>:
    5530:	ff 25 f2 2b 21 00    	jmpq   *0x212bf2(%rip)        # 218128 <_GLOBAL_OFFSET_TABLE_+0x140>
    5536:	68 25 00 00 00       	pushq  $0x25
    553b:	e9 90 fd ff ff       	jmpq   52d0 <_init+0x20>

0000000000005540 <__getpagesize@plt>:
    5540:	ff 25 ea 2b 21 00    	jmpq   *0x212bea(%rip)        # 218130 <_GLOBAL_OFFSET_TABLE_+0x148>
    5546:	68 26 00 00 00       	pushq  $0x26
    554b:	e9 80 fd ff ff       	jmpq   52d0 <_init+0x20>

0000000000005550 <malloc@plt>:
    5550:	ff 25 e2 2b 21 00    	jmpq   *0x212be2(%rip)        # 218138 <_GLOBAL_OFFSET_TABLE_+0x150>
    5556:	68 27 00 00 00       	pushq  $0x27
    555b:	e9 70 fd ff ff       	jmpq   52d0 <_init+0x20>

0000000000005560 <sched_get_priority_min@plt>:
    5560:	ff 25 da 2b 21 00    	jmpq   *0x212bda(%rip)        # 218140 <_GLOBAL_OFFSET_TABLE_+0x158>
    5566:	68 28 00 00 00       	pushq  $0x28
    556b:	e9 60 fd ff ff       	jmpq   52d0 <_init+0x20>

0000000000005570 <_dl_make_stack_executable@plt>:
    5570:	ff 25 d2 2b 21 00    	jmpq   *0x212bd2(%rip)        # 218148 <_GLOBAL_OFFSET_TABLE_+0x160>
    5576:	68 29 00 00 00       	pushq  $0x29
    557b:	e9 50 fd ff ff       	jmpq   52d0 <_init+0x20>

0000000000005580 <__libc_pthread_init@plt>:
    5580:	ff 25 ca 2b 21 00    	jmpq   *0x212bca(%rip)        # 218150 <_GLOBAL_OFFSET_TABLE_+0x168>
    5586:	68 2a 00 00 00       	pushq  $0x2a
    558b:	e9 40 fd ff ff       	jmpq   52d0 <_init+0x20>

0000000000005590 <__ctype_init@plt>:
    5590:	ff 25 c2 2b 21 00    	jmpq   *0x212bc2(%rip)        # 218158 <_GLOBAL_OFFSET_TABLE_+0x170>
    5596:	68 2b 00 00 00       	pushq  $0x2b
    559b:	e9 30 fd ff ff       	jmpq   52d0 <_init+0x20>

00000000000055a0 <sscanf@plt>:
    55a0:	ff 25 ba 2b 21 00    	jmpq   *0x212bba(%rip)        # 218160 <_GLOBAL_OFFSET_TABLE_+0x178>
    55a6:	68 2c 00 00 00       	pushq  $0x2c
    55ab:	e9 20 fd ff ff       	jmpq   52d0 <_init+0x20>

00000000000055b0 <realloc@plt>:
    55b0:	ff 25 b2 2b 21 00    	jmpq   *0x212bb2(%rip)        # 218168 <_GLOBAL_OFFSET_TABLE_+0x180>
    55b6:	68 2d 00 00 00       	pushq  $0x2d
    55bb:	e9 10 fd ff ff       	jmpq   52d0 <_init+0x20>

00000000000055c0 <__libc_dlsym@plt>:
    55c0:	ff 25 aa 2b 21 00    	jmpq   *0x212baa(%rip)        # 218170 <_GLOBAL_OFFSET_TABLE_+0x188>
    55c6:	68 2e 00 00 00       	pushq  $0x2e
    55cb:	e9 00 fd ff ff       	jmpq   52d0 <_init+0x20>

00000000000055d0 <tsearch@plt>:
    55d0:	ff 25 a2 2b 21 00    	jmpq   *0x212ba2(%rip)        # 218178 <_GLOBAL_OFFSET_TABLE_+0x190>
    55d6:	68 2f 00 00 00       	pushq  $0x2f
    55db:	e9 f0 fc ff ff       	jmpq   52d0 <_init+0x20>

00000000000055e0 <munmap@plt>:
    55e0:	ff 25 9a 2b 21 00    	jmpq   *0x212b9a(%rip)        # 218180 <_GLOBAL_OFFSET_TABLE_+0x198>
    55e6:	68 30 00 00 00       	pushq  $0x30
    55eb:	e9 e0 fc ff ff       	jmpq   52d0 <_init+0x20>

00000000000055f0 <mempcpy@plt>:
    55f0:	ff 25 92 2b 21 00    	jmpq   *0x212b92(%rip)        # 218188 <_GLOBAL_OFFSET_TABLE_+0x1a0>
    55f6:	68 31 00 00 00       	pushq  $0x31
    55fb:	e9 d0 fc ff ff       	jmpq   52d0 <_init+0x20>

0000000000005600 <__libc_current_sigrtmin_private@plt>:
    5600:	ff 25 8a 2b 21 00    	jmpq   *0x212b8a(%rip)        # 218190 <_GLOBAL_OFFSET_TABLE_+0x1a8>
    5606:	68 32 00 00 00       	pushq  $0x32
    560b:	e9 c0 fc ff ff       	jmpq   52d0 <_init+0x20>

0000000000005610 <twalk@plt>:
    5610:	ff 25 82 2b 21 00    	jmpq   *0x212b82(%rip)        # 218198 <_GLOBAL_OFFSET_TABLE_+0x1b0>
    5616:	68 33 00 00 00       	pushq  $0x33
    561b:	e9 b0 fc ff ff       	jmpq   52d0 <_init+0x20>

0000000000005620 <__madvise@plt>:
    5620:	ff 25 7a 2b 21 00    	jmpq   *0x212b7a(%rip)        # 2181a0 <_GLOBAL_OFFSET_TABLE_+0x1b8>
    5626:	68 34 00 00 00       	pushq  $0x34
    562b:	e9 a0 fc ff ff       	jmpq   52d0 <_init+0x20>

0000000000005630 <__libc_dl_error_tsd@plt>:
    5630:	ff 25 72 2b 21 00    	jmpq   *0x212b72(%rip)        # 2181a8 <_GLOBAL_OFFSET_TABLE_+0x1c0>
    5636:	68 35 00 00 00       	pushq  $0x35
    563b:	e9 90 fc ff ff       	jmpq   52d0 <_init+0x20>

0000000000005640 <mprotect@plt>:
    5640:	ff 25 6a 2b 21 00    	jmpq   *0x212b6a(%rip)        # 2181b0 <_GLOBAL_OFFSET_TABLE_+0x1c8>
    5646:	68 36 00 00 00       	pushq  $0x36
    564b:	e9 80 fc ff ff       	jmpq   52d0 <_init+0x20>

0000000000005650 <fopen@plt>:
    5650:	ff 25 62 2b 21 00    	jmpq   *0x212b62(%rip)        # 2181b8 <_GLOBAL_OFFSET_TABLE_+0x1d0>
    5656:	68 37 00 00 00       	pushq  $0x37
    565b:	e9 70 fc ff ff       	jmpq   52d0 <_init+0x20>

0000000000005660 <_dl_allocate_tls@plt>:
    5660:	ff 25 5a 2b 21 00    	jmpq   *0x212b5a(%rip)        # 2181c0 <_GLOBAL_OFFSET_TABLE_+0x1d8>
    5666:	68 38 00 00 00       	pushq  $0x38
    566b:	e9 60 fc ff ff       	jmpq   52d0 <_init+0x20>

0000000000005670 <__setmntent@plt>:
    5670:	ff 25 52 2b 21 00    	jmpq   *0x212b52(%rip)        # 2181c8 <_GLOBAL_OFFSET_TABLE_+0x1e0>
    5676:	68 39 00 00 00       	pushq  $0x39
    567b:	e9 50 fc ff ff       	jmpq   52d0 <_init+0x20>

0000000000005680 <sched_setparam@plt>:
    5680:	ff 25 4a 2b 21 00    	jmpq   *0x212b4a(%rip)        # 2181d0 <_GLOBAL_OFFSET_TABLE_+0x1e8>
    5686:	68 3a 00 00 00       	pushq  $0x3a
    568b:	e9 40 fc ff ff       	jmpq   52d0 <_init+0x20>

0000000000005690 <_dl_get_tls_static_info@plt>:
    5690:	ff 25 42 2b 21 00    	jmpq   *0x212b42(%rip)        # 2181d8 <_GLOBAL_OFFSET_TABLE_+0x1f0>
    5696:	68 3b 00 00 00       	pushq  $0x3b
    569b:	e9 30 fc ff ff       	jmpq   52d0 <_init+0x20>

00000000000056a0 <sprintf@plt>:
    56a0:	ff 25 3a 2b 21 00    	jmpq   *0x212b3a(%rip)        # 2181e0 <_GLOBAL_OFFSET_TABLE_+0x1f8>
    56a6:	68 3c 00 00 00       	pushq  $0x3c
    56ab:	e9 20 fc ff ff       	jmpq   52d0 <_init+0x20>

00000000000056b0 <link@plt>:
    56b0:	ff 25 32 2b 21 00    	jmpq   *0x212b32(%rip)        # 2181e8 <_GLOBAL_OFFSET_TABLE_+0x200>
    56b6:	68 3d 00 00 00       	pushq  $0x3d
    56bb:	e9 10 fc ff ff       	jmpq   52d0 <_init+0x20>

00000000000056c0 <exit@plt>:
    56c0:	ff 25 2a 2b 21 00    	jmpq   *0x212b2a(%rip)        # 2181f0 <_GLOBAL_OFFSET_TABLE_+0x208>
    56c6:	68 3e 00 00 00       	pushq  $0x3e
    56cb:	e9 00 fc ff ff       	jmpq   52d0 <_init+0x20>

00000000000056d0 <sched_get_priority_max@plt>:
    56d0:	ff 25 22 2b 21 00    	jmpq   *0x212b22(%rip)        # 2181f8 <_GLOBAL_OFFSET_TABLE_+0x210>
    56d6:	68 3f 00 00 00       	pushq  $0x3f
    56db:	e9 f0 fb ff ff       	jmpq   52d0 <_init+0x20>

00000000000056e0 <getrlimit@plt>:
    56e0:	ff 25 1a 2b 21 00    	jmpq   *0x212b1a(%rip)        # 218200 <_GLOBAL_OFFSET_TABLE_+0x218>
    56e6:	68 40 00 00 00       	pushq  $0x40
    56eb:	e9 e0 fb ff ff       	jmpq   52d0 <_init+0x20>

00000000000056f0 <_dl_allocate_tls_init@plt>:
    56f0:	ff 25 12 2b 21 00    	jmpq   *0x212b12(%rip)        # 218208 <_GLOBAL_OFFSET_TABLE_+0x220>
    56f6:	68 41 00 00 00       	pushq  $0x41
    56fb:	e9 d0 fb ff ff       	jmpq   52d0 <_init+0x20>

0000000000005700 <__libc_allocate_rtsig_private@plt>:
    5700:	ff 25 0a 2b 21 00    	jmpq   *0x212b0a(%rip)        # 218210 <_GLOBAL_OFFSET_TABLE_+0x228>
    5706:	68 42 00 00 00       	pushq  $0x42
    570b:	e9 c0 fb ff ff       	jmpq   52d0 <_init+0x20>

0000000000005710 <__libc_longjmp@plt>:
    5710:	ff 25 02 2b 21 00    	jmpq   *0x212b02(%rip)        # 218218 <_GLOBAL_OFFSET_TABLE_+0x230>
    5716:	68 43 00 00 00       	pushq  $0x43
    571b:	e9 b0 fb ff ff       	jmpq   52d0 <_init+0x20>

0000000000005720 <__cxa_finalize@plt>:
    5720:	ff 25 fa 2a 21 00    	jmpq   *0x212afa(%rip)        # 218220 <_GLOBAL_OFFSET_TABLE_+0x238>
    5726:	68 44 00 00 00       	pushq  $0x44
    572b:	e9 a0 fb ff ff       	jmpq   52d0 <_init+0x20>

0000000000005730 <mktemp@plt>:
    5730:	ff 25 f2 2a 21 00    	jmpq   *0x212af2(%rip)        # 218228 <_GLOBAL_OFFSET_TABLE_+0x240>
    5736:	68 45 00 00 00       	pushq  $0x45
    573b:	e9 90 fb ff ff       	jmpq   52d0 <_init+0x20>

Disassembly of section .text:

0000000000005740 <__do_global_dtors_aux>:
    5740:	55                   	push   %rbp
    5741:	80 3d 38 2b 21 00 00 	cmpb   $0x0,0x212b38(%rip)        # 218280 <completed.6341>
    5748:	48 89 e5             	mov    %rsp,%rbp
    574b:	41 54                	push   %r12
    574d:	53                   	push   %rbx
    574e:	75 62                	jne    57b2 <__do_global_dtors_aux+0x72>
    5750:	48 83 3d 78 28 21 00 	cmpq   $0x0,0x212878(%rip)        # 217fd0 <_DYNAMIC+0x240>
    5757:	00 
    5758:	74 0c                	je     5766 <__do_global_dtors_aux+0x26>
    575a:	48 8b 3d cf 2a 21 00 	mov    0x212acf(%rip),%rdi        # 218230 <__dso_handle>
    5761:	e8 ba ff ff ff       	callq  5720 <__cxa_finalize@plt>
    5766:	48 8d 1d 5b 24 21 00 	lea    0x21245b(%rip),%rbx        # 217bc8 <__DTOR_END__>
    576d:	4c 8d 25 4c 24 21 00 	lea    0x21244c(%rip),%r12        # 217bc0 <__DTOR_LIST__>
    5774:	48 8b 05 0d 2b 21 00 	mov    0x212b0d(%rip),%rax        # 218288 <dtor_idx.6343>
    577b:	4c 29 e3             	sub    %r12,%rbx
    577e:	48 c1 fb 03          	sar    $0x3,%rbx
    5782:	48 83 eb 01          	sub    $0x1,%rbx
    5786:	48 39 d8             	cmp    %rbx,%rax
    5789:	73 20                	jae    57ab <__do_global_dtors_aux+0x6b>
    578b:	0f 1f 44 00 00       	nopl   0x0(%rax,%rax,1)
    5790:	48 83 c0 01          	add    $0x1,%rax
    5794:	48 89 05 ed 2a 21 00 	mov    %rax,0x212aed(%rip)        # 218288 <dtor_idx.6343>
    579b:	41 ff 14 c4          	callq  *(%r12,%rax,8)
    579f:	48 8b 05 e2 2a 21 00 	mov    0x212ae2(%rip),%rax        # 218288 <dtor_idx.6343>
    57a6:	48 39 d8             	cmp    %rbx,%rax
    57a9:	72 e5                	jb     5790 <__do_global_dtors_aux+0x50>
    57ab:	c6 05 ce 2a 21 00 01 	movb   $0x1,0x212ace(%rip)        # 218280 <completed.6341>
    57b2:	5b                   	pop    %rbx
    57b3:	41 5c                	pop    %r12
    57b5:	c9                   	leaveq 
    57b6:	c3                   	retq   
    57b7:	66 0f 1f 84 00 00 00 	nopw   0x0(%rax,%rax,1)
    57be:	00 00 

00000000000057c0 <frame_dummy>:
    57c0:	55                   	push   %rbp
    57c1:	48 83 3d 07 24 21 00 	cmpq   $0x0,0x212407(%rip)        # 217bd0 <__JCR_END__>
    57c8:	00 
    57c9:	48 89 e5             	mov    %rsp,%rbp
    57cc:	74 1a                	je     57e8 <frame_dummy+0x28>
    57ce:	48 8b 05 eb 27 21 00 	mov    0x2127eb(%rip),%rax        # 217fc0 <_DYNAMIC+0x230>
    57d5:	48 85 c0             	test   %rax,%rax
    57d8:	74 0e                	je     57e8 <frame_dummy+0x28>
    57da:	48 8d 3d ef 23 21 00 	lea    0x2123ef(%rip),%rdi        # 217bd0 <__JCR_END__>
    57e1:	c9                   	leaveq 
    57e2:	ff e0                	jmpq   *%rax
    57e4:	0f 1f 40 00          	nopl   0x0(%rax)
    57e8:	c9                   	leaveq 
    57e9:	c3                   	retq   
    57ea:	90                   	nop
    57eb:	90                   	nop
    57ec:	90                   	nop
    57ed:	90                   	nop
    57ee:	90                   	nop
    57ef:	90                   	nop

00000000000057f0 <__nptl_set_robust>:
    57f0:	55                   	push   %rbp
    57f1:	be 18 00 00 00       	mov    $0x18,%esi
    57f6:	48 81 c7 e0 02 00 00 	add    $0x2e0,%rdi
    57fd:	b8 11 01 00 00       	mov    $0x111,%eax
    5802:	48 89 e5             	mov    %rsp,%rbp
    5805:	0f 05                	syscall 
    5807:	c9                   	leaveq 
    5808:	c3                   	retq   
    5809:	0f 1f 80 00 00 00 00 	nopl   0x0(%rax)

0000000000005810 <__pthread_get_minstack>:
    5810:	48 8b 05 91 27 21 00 	mov    0x212791(%rip),%rax        # 217fa8 <_DYNAMIC+0x218>
    5817:	55                   	push   %rbp
    5818:	48 89 e5             	mov    %rsp,%rbp
    581b:	48 8b 40 18          	mov    0x18(%rax),%rax
    581f:	48 03 05 1a 6b 21 00 	add    0x216b1a(%rip),%rax        # 21c340 <__static_tls_size>
    5826:	48 05 00 40 00 00    	add    $0x4000,%rax
    582c:	48 03 47 10          	add    0x10(%rdi),%rax
    5830:	c9                   	leaveq 
    5831:	c3                   	retq   
    5832:	66 66 66 66 66 2e 0f 	data32 data32 data32 data32 nopw %cs:0x0(%rax,%rax,1)
    5839:	1f 84 00 00 00 00 00 

0000000000005840 <__pthread_initialize_minimal>:
    5840:	55                   	push   %rbp
    5841:	b8 da 00 00 00       	mov    $0xda,%eax
    5846:	64 4c 8b 0c 25 10 00 	mov    %fs:0x10,%r9
    584d:	00 00 
    584f:	48 89 e5             	mov    %rsp,%rbp
    5852:	41 55                	push   %r13
    5854:	49 8d b9 d0 02 00 00 	lea    0x2d0(%r9),%rdi
    585b:	41 54                	push   %r12
    585d:	53                   	push   %rbx
    585e:	48 81 ec c8 00 00 00 	sub    $0xc8,%rsp
    5865:	0f 05                	syscall 
    5867:	41 89 81 d0 02 00 00 	mov    %eax,0x2d0(%r9)
    586e:	41 89 81 d4 02 00 00 	mov    %eax,0x2d4(%r9)
    5875:	49 8d 81 10 03 00 00 	lea    0x310(%r9),%rax
    587c:	64 48 89 04 25 10 05 	mov    %rax,%fs:0x510
    5883:	00 00 
    5885:	64 c6 04 25 12 06 00 	movb   $0x1,%fs:0x612
    588c:	00 01 
    588e:	48 8b 1d 33 27 21 00 	mov    0x212733(%rip),%rbx        # 217fc8 <_DYNAMIC+0x238>
    5895:	48 8b 83 68 09 00 00 	mov    0x968(%rbx),%rax
    589c:	64 48 89 04 25 20 06 	mov    %rax,%fs:0x620
    58a3:	00 00 
    58a5:	49 8d b9 e0 02 00 00 	lea    0x2e0(%r9),%rdi
    58ac:	49 c7 81 e8 02 00 00 	movq   $0xffffffffffffffe0,0x2e8(%r9)
    58b3:	e0 ff ff ff 
    58b7:	be 18 00 00 00       	mov    $0x18,%esi
    58bc:	b8 11 01 00 00       	mov    $0x111,%eax
    58c1:	49 89 b9 d8 02 00 00 	mov    %rdi,0x2d8(%r9)
    58c8:	49 89 b9 e0 02 00 00 	mov    %rdi,0x2e0(%r9)
    58cf:	0f 05                	syscall 
    58d1:	3d 00 f0 ff ff       	cmp    $0xfffff000,%eax
    58d6:	76 0a                	jbe    58e2 <__pthread_initialize_minimal+0xa2>
    58d8:	c7 05 56 6a 21 00 ff 	movl   $0xffffffff,0x216a56(%rip)        # 21c338 <__set_robust_list_avail>
    58df:	ff ff ff 
    58e2:	c7 45 dc 00 00 00 00 	movl   $0x0,-0x24(%rbp)
    58e9:	ba 01 00 00 00       	mov    $0x1,%edx
    58ee:	be 81 00 00 00       	mov    $0x81,%esi
    58f3:	48 8d 7d dc          	lea    -0x24(%rbp),%rdi
    58f7:	b8 ca 00 00 00       	mov    $0xca,%eax
    58fc:	0f 05                	syscall 
    58fe:	3d 00 f0 ff ff       	cmp    $0xfffff000,%eax
    5903:	89 45 dc             	mov    %eax,-0x24(%rbp)
    5906:	77 0c                	ja     5914 <__pthread_initialize_minimal+0xd4>
    5908:	64 c7 04 25 48 00 00 	movl   $0x80,%fs:0x48
    590f:	00 80 00 00 00 
    5914:	64 8b 04 25 48 00 00 	mov    %fs:0x48,%eax
    591b:	00 
    591c:	85 c0                	test   %eax,%eax
    591e:	74 42                	je     5962 <__pthread_initialize_minimal+0x122>
    5920:	c7 45 dc 00 00 00 00 	movl   $0x0,-0x24(%rbp)
    5927:	45 31 c0             	xor    %r8d,%r8d
    592a:	45 31 d2             	xor    %r10d,%r10d
    592d:	ba 01 00 00 00       	mov    $0x1,%edx
    5932:	be 89 01 00 00       	mov    $0x189,%esi
    5937:	48 8d 7d dc          	lea    -0x24(%rbp),%rdi
    593b:	b8 ca 00 00 00       	mov    $0xca,%eax
    5940:	0f 05                	syscall 
    5942:	3d 00 f0 ff ff       	cmp    $0xfffff000,%eax
    5947:	89 45 dc             	mov    %eax,-0x24(%rbp)
    594a:	0f 86 89 02 00 00    	jbe    5bd9 <__pthread_initialize_minimal+0x399>
    5950:	83 f8 da             	cmp    $0xffffffda,%eax
    5953:	74 0d                	je     5962 <__pthread_initialize_minimal+0x122>
    5955:	48 8b 05 7c 26 21 00 	mov    0x21267c(%rip),%rax        # 217fd8 <_DYNAMIC+0x248>
    595c:	c7 00 01 00 00 00    	movl   $0x1,(%rax)
    5962:	48 8b 05 37 26 21 00 	mov    0x212637(%rip),%rax        # 217fa0 <_DYNAMIC+0x210>
    5969:	48 8b 00             	mov    (%rax),%rax
    596c:	64 48 89 04 25 98 06 	mov    %rax,%fs:0x698
    5973:	00 00 
    5975:	48 8d 05 24 69 21 00 	lea    0x216924(%rip),%rax        # 21c2a0 <__GI___stack_user>
    597c:	48 8d 15 1d 69 21 00 	lea    0x21691d(%rip),%rdx        # 21c2a0 <__GI___stack_user>
    5983:	48 89 05 16 69 21 00 	mov    %rax,0x216916(%rip)        # 21c2a0 <__GI___stack_user>
    598a:	49 8d 81 c0 02 00 00 	lea    0x2c0(%r9),%rax
    5991:	49 89 91 c0 02 00 00 	mov    %rdx,0x2c0(%r9)
    5998:	49 89 91 c8 02 00 00 	mov    %rdx,0x2c8(%r9)
    599f:	48 89 05 02 69 21 00 	mov    %rax,0x216902(%rip)        # 21c2a8 <__GI___stack_user+0x8>
    59a6:	48 89 05 f3 68 21 00 	mov    %rax,0x2168f3(%rip)        # 21c2a0 <__GI___stack_user>
    59ad:	0f b6 05 dc 28 21 00 	movzbl 0x2128dc(%rip),%eax        # 218290 <__nptl_initial_report_events>
    59b4:	64 88 04 25 11 06 00 	mov    %al,%fs:0x611
    59bb:	00 
    59bc:	4c 8d ad 20 ff ff ff 	lea    -0xe0(%rbp),%r13
    59c3:	48 8d 05 36 02 00 00 	lea    0x236(%rip),%rax        # 5c00 <sigcancel_handler>
    59ca:	b9 10 00 00 00       	mov    $0x10,%ecx
    59cf:	31 d2                	xor    %edx,%edx
    59d1:	c7 45 a8 04 00 00 00 	movl   $0x4,-0x58(%rbp)
    59d8:	4d 8d 65 08          	lea    0x8(%r13),%r12
    59dc:	48 89 85 20 ff ff ff 	mov    %rax,-0xe0(%rbp)
    59e3:	31 c0                	xor    %eax,%eax
    59e5:	4c 89 ee             	mov    %r13,%rsi
    59e8:	4c 89 e7             	mov    %r12,%rdi
    59eb:	f3 48 ab             	rep stos %rax,%es:(%rdi)
    59ee:	bf 20 00 00 00       	mov    $0x20,%edi
    59f3:	e8 48 9d 00 00       	callq  f740 <__libc_sigaction>
    59f8:	48 8d 15 91 02 00 00 	lea    0x291(%rip),%rdx        # 5c90 <sighandler_setxid>
    59ff:	4c 89 ee             	mov    %r13,%rsi
    5a02:	bf 21 00 00 00       	mov    $0x21,%edi
    5a07:	c7 45 a8 04 00 00 10 	movl   $0x10000004,-0x58(%rbp)
    5a0e:	48 89 95 20 ff ff ff 	mov    %rdx,-0xe0(%rbp)
    5a15:	31 d2                	xor    %edx,%edx
    5a17:	e8 24 9d 00 00       	callq  f740 <__libc_sigaction>
    5a1c:	48 b8 00 00 00 80 01 	movabs $0x180000000,%rax
    5a23:	00 00 00 
    5a26:	41 ba 08 00 00 00    	mov    $0x8,%r10d
    5a2c:	48 09 85 28 ff ff ff 	or     %rax,-0xd8(%rbp)
    5a33:	31 d2                	xor    %edx,%edx
    5a35:	4c 89 e6             	mov    %r12,%rsi
    5a38:	bf 01 00 00 00       	mov    $0x1,%edi
    5a3d:	b8 0e 00 00 00       	mov    $0xe,%eax
    5a42:	0f 05                	syscall 
    5a44:	48 8d 3d f5 68 21 00 	lea    0x2168f5(%rip),%rdi        # 21c340 <__static_tls_size>
    5a4b:	48 8d 75 d0          	lea    -0x30(%rbp),%rsi
    5a4f:	e8 3c fc ff ff       	callq  5690 <_dl_get_tls_static_info@plt>
    5a54:	48 8b 4d d0          	mov    -0x30(%rbp),%rcx
    5a58:	48 83 f9 0f          	cmp    $0xf,%rcx
    5a5c:	48 8d 41 ff          	lea    -0x1(%rcx),%rax
    5a60:	77 12                	ja     5a74 <__pthread_initialize_minimal+0x234>
    5a62:	48 c7 45 d0 10 00 00 	movq   $0x10,-0x30(%rbp)
    5a69:	00 
    5a6a:	b8 0f 00 00 00       	mov    $0xf,%eax
    5a6f:	b9 10 00 00 00       	mov    $0x10,%ecx
    5a74:	48 89 05 b5 68 21 00 	mov    %rax,0x2168b5(%rip)        # 21c330 <__static_tls_align_m1>
    5a7b:	48 8b 05 be 68 21 00 	mov    0x2168be(%rip),%rax        # 21c340 <__static_tls_size>
    5a82:	31 d2                	xor    %edx,%edx
    5a84:	48 8d 75 c0          	lea    -0x40(%rbp),%rsi
    5a88:	bf 03 00 00 00       	mov    $0x3,%edi
    5a8d:	48 8d 44 01 ff       	lea    -0x1(%rcx,%rax,1),%rax
    5a92:	48 f7 f1             	div    %rcx
    5a95:	48 0f af c1          	imul   %rcx,%rax
    5a99:	48 89 05 a0 68 21 00 	mov    %rax,0x2168a0(%rip)        # 21c340 <__static_tls_size>
    5aa0:	e8 3b fc ff ff       	callq  56e0 <getrlimit@plt>
    5aa5:	85 c0                	test   %eax,%eax
    5aa7:	75 1f                	jne    5ac8 <__pthread_initialize_minimal+0x288>
    5aa9:	48 8b 45 c0          	mov    -0x40(%rbp),%rax
    5aad:	48 83 f8 ff          	cmp    $0xffffffffffffffff,%rax
    5ab1:	74 15                	je     5ac8 <__pthread_initialize_minimal+0x288>
    5ab3:	48 3d ff 3f 00 00    	cmp    $0x3fff,%rax
    5ab9:	ba 00 40 00 00       	mov    $0x4000,%edx
    5abe:	48 0f 46 c2          	cmovbe %rdx,%rax
    5ac2:	eb 09                	jmp    5acd <__pthread_initialize_minimal+0x28d>
    5ac4:	0f 1f 40 00          	nopl   0x0(%rax)
    5ac8:	b8 00 00 20 00       	mov    $0x200000,%eax
    5acd:	48 8b 15 d4 24 21 00 	mov    0x2124d4(%rip),%rdx        # 217fa8 <_DYNAMIC+0x218>
    5ad4:	48 8b 4a 18          	mov    0x18(%rdx),%rcx
    5ad8:	48 89 ca             	mov    %rcx,%rdx
    5adb:	48 03 15 5e 68 21 00 	add    0x21685e(%rip),%rdx        # 21c340 <__static_tls_size>
    5ae2:	48 81 c2 00 08 00 00 	add    $0x800,%rdx
    5ae9:	48 39 c2             	cmp    %rax,%rdx
    5aec:	48 0f 46 d0          	cmovbe %rax,%rdx
    5af0:	48 8d 44 0a ff       	lea    -0x1(%rdx,%rcx,1),%rax
    5af5:	48 f7 d9             	neg    %rcx
    5af8:	48 21 c8             	and    %rcx,%rax
    5afb:	48 89 45 c0          	mov    %rax,-0x40(%rbp)
    5aff:	48 89 05 4a 68 21 00 	mov    %rax,0x21684a(%rip)        # 21c350 <__default_stacksize>
    5b06:	e8 25 fb ff ff       	callq  5630 <__libc_dl_error_tsd@plt>
    5b0b:	49 89 c4             	mov    %rax,%r12
    5b0e:	ff 93 90 09 00 00    	callq  *0x990(%rbx)
    5b14:	48 8b 00             	mov    (%rax),%rax
    5b17:	48 8d 15 b2 50 00 00 	lea    0x50b2(%rip),%rdx        # abd0 <__pthread_mutex_unlock>
    5b1e:	48 89 93 08 0f 00 00 	mov    %rdx,0xf08(%rbx)
    5b25:	49 89 04 24          	mov    %rax,(%r12)
    5b29:	48 8b 05 88 24 21 00 	mov    0x212488(%rip),%rax        # 217fb8 <_DYNAMIC+0x228>
    5b30:	44 8b a3 0c 09 00 00 	mov    0x90c(%rbx),%r12d
    5b37:	c7 83 0c 09 00 00 00 	movl   $0x0,0x90c(%rbx)
    5b3e:	00 00 00 
    5b41:	48 89 83 90 09 00 00 	mov    %rax,0x990(%rbx)
    5b48:	48 8d 05 31 3a 00 00 	lea    0x3a31(%rip),%rax        # 9580 <__pthread_mutex_lock>
    5b4f:	45 85 e4             	test   %r12d,%r12d
    5b52:	48 89 83 00 0f 00 00 	mov    %rax,0xf00(%rbx)
    5b59:	74 1b                	je     5b76 <__pthread_initialize_minimal+0x336>
    5b5b:	4c 8d ab 08 09 00 00 	lea    0x908(%rbx),%r13
    5b62:	66 0f 1f 44 00 00    	nopw   0x0(%rax,%rax,1)
    5b68:	4c 89 ef             	mov    %r13,%rdi
    5b6b:	e8 10 3a 00 00       	callq  9580 <__pthread_mutex_lock>
    5b70:	41 83 ec 01          	sub    $0x1,%r12d
    5b74:	75 f2                	jne    5b68 <__pthread_initialize_minimal+0x328>
    5b76:	48 8d 05 f3 0d 00 00 	lea    0xdf3(%rip),%rax        # 6970 <__make_stacks_executable>
    5b7d:	48 8d 15 9c 0c 00 00 	lea    0xc9c(%rip),%rdx        # 6820 <__pthread_init_static_tls>
    5b84:	48 8d 35 95 03 00 00 	lea    0x395(%rip),%rsi        # 5f20 <__reclaim_stacks>
    5b8b:	48 8d 3d ee 67 21 00 	lea    0x2167ee(%rip),%rdi        # 21c380 <__fork_generation>
    5b92:	48 89 83 10 0f 00 00 	mov    %rax,0xf10(%rbx)
    5b99:	48 8d 05 a0 07 00 00 	lea    0x7a0(%rip),%rax        # 6340 <__wait_lookup_done>
    5ba0:	48 89 93 60 0f 00 00 	mov    %rdx,0xf60(%rbx)
    5ba7:	48 8d 15 32 20 21 00 	lea    0x212032(%rip),%rdx        # 217be0 <pthread_functions>
    5bae:	48 89 83 68 0f 00 00 	mov    %rax,0xf68(%rbx)
    5bb5:	e8 c6 f9 ff ff       	callq  5580 <__libc_pthread_init@plt>
    5bba:	c7 05 98 67 21 00 01 	movl   $0x1,0x216798(%rip)        # 21c35c <__is_smp>
    5bc1:	00 00 00 
    5bc4:	48 89 05 9d 67 21 00 	mov    %rax,0x21679d(%rip)        # 21c368 <__libc_multiple_threads_ptr>
    5bcb:	48 81 c4 c8 00 00 00 	add    $0xc8,%rsp
    5bd2:	5b                   	pop    %rbx
    5bd3:	41 5c                	pop    %r12
    5bd5:	41 5d                	pop    %r13
    5bd7:	c9                   	leaveq 
    5bd8:	c3                   	retq   
    5bd9:	48 8d 0d 80 b9 00 00 	lea    0xb980(%rip),%rcx        # 11560 <__PRETTY_FUNCTION__.10016>
    5be0:	48 8d 35 19 b9 00 00 	lea    0xb919(%rip),%rsi        # 11500 <_fini+0x24>
    5be7:	48 8d 3d 2a b9 00 00 	lea    0xb92a(%rip),%rdi        # 11518 <nptl_version+0xc>
    5bee:	ba 5d 01 00 00       	mov    $0x15d,%edx
    5bf3:	e8 e8 f7 ff ff       	callq  53e0 <__assert_fail@plt>
    5bf8:	0f 1f 84 00 00 00 00 	nopl   0x0(%rax,%rax,1)
    5bff:	00 

0000000000005c00 <sigcancel_handler>:
    5c00:	55                   	push   %rbp
    5c01:	48 89 e5             	mov    %rsp,%rbp
    5c04:	64 8b 04 25 d4 02 00 	mov    %fs:0x2d4,%eax
    5c0b:	00 
    5c0c:	83 ff 20             	cmp    $0x20,%edi
    5c0f:	74 07                	je     5c18 <sigcancel_handler+0x18>
    5c11:	c9                   	leaveq 
    5c12:	c3                   	retq   
    5c13:	0f 1f 44 00 00       	nopl   0x0(%rax,%rax,1)
    5c18:	89 c2                	mov    %eax,%edx
    5c1a:	c1 fa 1f             	sar    $0x1f,%edx
    5c1d:	31 d0                	xor    %edx,%eax
    5c1f:	29 d0                	sub    %edx,%eax
    5c21:	39 46 10             	cmp    %eax,0x10(%rsi)
    5c24:	75 eb                	jne    5c11 <sigcancel_handler+0x11>
    5c26:	83 7e 08 fa          	cmpl   $0xfffffffa,0x8(%rsi)
    5c2a:	75 e5                	jne    5c11 <sigcancel_handler+0x11>
    5c2c:	64 8b 14 25 08 03 00 	mov    %fs:0x308,%edx
    5c33:	00 
    5c34:	eb 0c                	jmp    5c42 <sigcancel_handler+0x42>
    5c36:	66 2e 0f 1f 84 00 00 	nopw   %cs:0x0(%rax,%rax,1)
    5c3d:	00 00 00 
    5c40:	89 c2                	mov    %eax,%edx
    5c42:	89 d1                	mov    %edx,%ecx
    5c44:	83 c9 0c             	or     $0xc,%ecx
    5c47:	39 ca                	cmp    %ecx,%edx
    5c49:	74 c6                	je     5c11 <sigcancel_handler+0x11>
    5c4b:	f6 c2 10             	test   $0x10,%dl
    5c4e:	75 c1                	jne    5c11 <sigcancel_handler+0x11>
    5c50:	89 d0                	mov    %edx,%eax
    5c52:	f0 64 0f b1 0c 25 08 	lock cmpxchg %ecx,%fs:0x308
    5c59:	03 00 00 
    5c5c:	39 c2                	cmp    %eax,%edx
    5c5e:	75 e0                	jne    5c40 <sigcancel_handler+0x40>
    5c60:	64 48 c7 04 25 30 06 	movq   $0xffffffffffffffff,%fs:0x630
    5c67:	00 00 ff ff ff ff 
    5c6d:	83 e1 02             	and    $0x2,%ecx
    5c70:	74 9f                	je     5c11 <sigcancel_handler+0x11>
    5c72:	f0 64 83 0c 25 08 03 	lock orl $0x10,%fs:0x308
    5c79:	00 00 10 
    5c7c:	64 48 8b 3c 25 00 03 	mov    %fs:0x300,%rdi
    5c83:	00 00 
    5c85:	e8 b6 83 00 00       	callq  e040 <__pthread_unwind>
    5c8a:	66 0f 1f 44 00 00    	nopw   0x0(%rax,%rax,1)

0000000000005c90 <sighandler_setxid>:
    5c90:	55                   	push   %rbp
    5c91:	48 89 e5             	mov    %rsp,%rbp
    5c94:	64 8b 04 25 d4 02 00 	mov    %fs:0x2d4,%eax
    5c9b:	00 
    5c9c:	83 ff 21             	cmp    $0x21,%edi
    5c9f:	74 07                	je     5ca8 <sighandler_setxid+0x18>
    5ca1:	c9                   	leaveq 
    5ca2:	c3                   	retq   
    5ca3:	0f 1f 44 00 00       	nopl   0x0(%rax,%rax,1)
    5ca8:	89 c2                	mov    %eax,%edx
    5caa:	c1 fa 1f             	sar    $0x1f,%edx
    5cad:	31 d0                	xor    %edx,%eax
    5caf:	29 d0                	sub    %edx,%eax
    5cb1:	39 46 10             	cmp    %eax,0x10(%rsi)
    5cb4:	75 eb                	jne    5ca1 <sighandler_setxid+0x11>
    5cb6:	83 7e 08 fa          	cmpl   $0xfffffffa,0x8(%rsi)
    5cba:	75 e5                	jne    5ca1 <sighandler_setxid+0x11>
    5cbc:	48 8b 05 65 66 21 00 	mov    0x216665(%rip),%rax        # 21c328 <__xidcmd>
    5cc3:	48 8b 70 10          	mov    0x10(%rax),%rsi
    5cc7:	48 8b 78 08          	mov    0x8(%rax),%rdi
    5ccb:	48 8b 50 18          	mov    0x18(%rax),%rdx
    5ccf:	8b 00                	mov    (%rax),%eax
    5cd1:	0f 05                	syscall 
    5cd3:	64 48 8b 3c 25 10 00 	mov    %fs:0x10,%rdi
    5cda:	00 00 
    5cdc:	0f 1f 40 00          	nopl   0x0(%rax)
    5ce0:	64 8b 14 25 08 03 00 	mov    %fs:0x308,%edx
    5ce7:	00 
    5ce8:	89 d1                	mov    %edx,%ecx
    5cea:	89 d0                	mov    %edx,%eax
    5cec:	83 e1 bf             	and    $0xffffffbf,%ecx
    5cef:	f0 64 0f b1 0c 25 08 	lock cmpxchg %ecx,%fs:0x308
    5cf6:	03 00 00 
    5cf9:	39 c2                	cmp    %eax,%edx
    5cfb:	75 e3                	jne    5ce0 <sighandler_setxid+0x50>
    5cfd:	c7 87 1c 06 00 00 01 	movl   $0x1,0x61c(%rdi)
    5d04:	00 00 00 
    5d07:	ba 01 00 00 00       	mov    $0x1,%edx
    5d0c:	48 81 c7 1c 06 00 00 	add    $0x61c,%rdi
    5d13:	64 8b 34 25 48 00 00 	mov    %fs:0x48,%esi
    5d1a:	00 
    5d1b:	41 b8 ca 00 00 00    	mov    $0xca,%r8d
    5d21:	83 ce 01             	or     $0x1,%esi
    5d24:	44 89 c0             	mov    %r8d,%eax
    5d27:	0f 05                	syscall 
    5d29:	48 8b 05 f8 65 21 00 	mov    0x2165f8(%rip),%rax        # 21c328 <__xidcmd>
    5d30:	ba ff ff ff ff       	mov    $0xffffffff,%edx
    5d35:	48 83 c0 20          	add    $0x20,%rax
    5d39:	f0 0f c1 10          	lock xadd %edx,(%rax)
    5d3d:	83 fa 01             	cmp    $0x1,%edx
    5d40:	0f 85 5b ff ff ff    	jne    5ca1 <sighandler_setxid+0x11>
    5d46:	48 8b 3d db 65 21 00 	mov    0x2165db(%rip),%rdi        # 21c328 <__xidcmd>
    5d4d:	48 83 c7 20          	add    $0x20,%rdi
    5d51:	64 8b 34 25 48 00 00 	mov    %fs:0x48,%esi
    5d58:	00 
    5d59:	83 ce 01             	or     $0x1,%esi
    5d5c:	44 89 c0             	mov    %r8d,%eax
    5d5f:	0f 05                	syscall 
    5d61:	c9                   	leaveq 
    5d62:	c3                   	retq   
    5d63:	90                   	nop
    5d64:	90                   	nop
    5d65:	90                   	nop
    5d66:	90                   	nop
    5d67:	90                   	nop
    5d68:	90                   	nop
    5d69:	90                   	nop
    5d6a:	90                   	nop
    5d6b:	90                   	nop
    5d6c:	90                   	nop
    5d6d:	90                   	nop
    5d6e:	90                   	nop
    5d6f:	90                   	nop

0000000000005d70 <__GI___nptl_create_event>:
    5d70:	55                   	push   %rbp
    5d71:	48 89 e5             	mov    %rsp,%rbp
    5d74:	c9                   	leaveq 
    5d75:	c3                   	retq   
    5d76:	66 2e 0f 1f 84 00 00 	nopw   %cs:0x0(%rax,%rax,1)
    5d7d:	00 00 00 

0000000000005d80 <__GI___nptl_death_event>:
    5d80:	55                   	push   %rbp
    5d81:	48 89 e5             	mov    %rsp,%rbp
    5d84:	c9                   	leaveq 
    5d85:	c3                   	retq   
    5d86:	90                   	nop
    5d87:	90                   	nop
    5d88:	90                   	nop
    5d89:	90                   	nop
    5d8a:	90                   	nop
    5d8b:	90                   	nop
    5d8c:	90                   	nop
    5d8d:	90                   	nop
    5d8e:	90                   	nop
    5d8f:	90                   	nop

0000000000005d90 <__nptl_main>:
    5d90:	55                   	push   %rbp
    5d91:	ba 1d 01 00 00       	mov    $0x11d,%edx
    5d96:	48 8d 35 03 b8 00 00 	lea    0xb803(%rip),%rsi        # 115a0 <banner>
    5d9d:	bf 01 00 00 00       	mov    $0x1,%edi
    5da2:	b8 01 00 00 00       	mov    $0x1,%eax
    5da7:	48 89 e5             	mov    %rsp,%rbp
    5daa:	0f 05                	syscall 
    5dac:	40 30 ff             	xor    %dil,%dil
    5daf:	e8 6c f5 ff ff       	callq  5320 <_exit@plt>
    5db4:	90                   	nop
    5db5:	90                   	nop
    5db6:	90                   	nop
    5db7:	90                   	nop
    5db8:	90                   	nop
    5db9:	90                   	nop
    5dba:	90                   	nop
    5dbb:	90                   	nop
    5dbc:	90                   	nop
    5dbd:	90                   	nop
    5dbe:	90                   	nop
    5dbf:	90                   	nop

0000000000005dc0 <__find_thread_by_id>:
    5dc0:	55                   	push   %rbp
    5dc1:	89 fa                	mov    %edi,%edx
    5dc3:	be 01 00 00 00       	mov    $0x1,%esi
    5dc8:	31 c0                	xor    %eax,%eax
    5dca:	48 89 e5             	mov    %rsp,%rbp
    5dcd:	f0 0f b1 35 db 64 21 	lock cmpxchg %esi,0x2164db(%rip)        # 21c2b0 <stack_cache_lock>
    5dd4:	00 
    5dd5:	0f 85 7f 1e 00 00    	jne    7c5a <_L_lock_10>
    5ddb:	48 8b 05 5e 24 21 00 	mov    0x21245e(%rip),%rax        # 218240 <stack_used>
    5de2:	48 8d 0d 57 24 21 00 	lea    0x212457(%rip),%rcx        # 218240 <stack_used>
    5de9:	48 39 c8             	cmp    %rcx,%rax
    5dec:	75 0a                	jne    5df8 <__find_thread_by_id+0x38>
    5dee:	eb 30                	jmp    5e20 <__find_thread_by_id+0x60>
    5df0:	48 8b 00             	mov    (%rax),%rax
    5df3:	48 39 c8             	cmp    %rcx,%rax
    5df6:	74 28                	je     5e20 <__find_thread_by_id+0x60>
    5df8:	48 8d b0 40 fd ff ff 	lea    -0x2c0(%rax),%rsi
    5dff:	39 96 d0 02 00 00    	cmp    %edx,0x2d0(%rsi)
    5e05:	75 e9                	jne    5df0 <__find_thread_by_id+0x30>
    5e07:	f0 ff 0d a2 64 21 00 	lock decl 0x2164a2(%rip)        # 21c2b0 <stack_cache_lock>
    5e0e:	0f 85 65 1e 00 00    	jne    7c79 <_L_unlock_30>
    5e14:	48 89 f0             	mov    %rsi,%rax
    5e17:	c9                   	leaveq 
    5e18:	c3                   	retq   
    5e19:	0f 1f 80 00 00 00 00 	nopl   0x0(%rax)
    5e20:	48 8b 05 79 64 21 00 	mov    0x216479(%rip),%rax        # 21c2a0 <__GI___stack_user>
    5e27:	48 8d 0d 72 64 21 00 	lea    0x216472(%rip),%rcx        # 21c2a0 <__GI___stack_user>
    5e2e:	48 39 c8             	cmp    %rcx,%rax
    5e31:	75 15                	jne    5e48 <__find_thread_by_id+0x88>
    5e33:	0f 1f 44 00 00       	nopl   0x0(%rax,%rax,1)
    5e38:	31 f6                	xor    %esi,%esi
    5e3a:	eb cb                	jmp    5e07 <__find_thread_by_id+0x47>
    5e3c:	0f 1f 40 00          	nopl   0x0(%rax)
    5e40:	48 8b 00             	mov    (%rax),%rax
    5e43:	48 39 c8             	cmp    %rcx,%rax
    5e46:	74 f0                	je     5e38 <__find_thread_by_id+0x78>
    5e48:	48 8d b0 40 fd ff ff 	lea    -0x2c0(%rax),%rsi
    5e4f:	39 96 d0 02 00 00    	cmp    %edx,0x2d0(%rsi)
    5e55:	75 e9                	jne    5e40 <__find_thread_by_id+0x80>
    5e57:	eb ae                	jmp    5e07 <__find_thread_by_id+0x47>
    5e59:	0f 1f 80 00 00 00 00 	nopl   0x0(%rax)

0000000000005e60 <__find_in_stack_list>:
    5e60:	55                   	push   %rbp
    5e61:	48 89 fa             	mov    %rdi,%rdx
    5e64:	be 01 00 00 00       	mov    $0x1,%esi
    5e69:	31 c0                	xor    %eax,%eax
    5e6b:	48 89 e5             	mov    %rsp,%rbp
    5e6e:	f0 0f b1 35 3a 64 21 	lock cmpxchg %esi,0x21643a(%rip)        # 21c2b0 <stack_cache_lock>
    5e75:	00 
    5e76:	0f 85 1c 1e 00 00    	jne    7c98 <_L_lock_71>
    5e7c:	48 8b 05 bd 23 21 00 	mov    0x2123bd(%rip),%rax        # 218240 <stack_used>
    5e83:	48 8d 35 b6 23 21 00 	lea    0x2123b6(%rip),%rsi        # 218240 <stack_used>
    5e8a:	48 39 f0             	cmp    %rsi,%rax
    5e8d:	75 11                	jne    5ea0 <__find_in_stack_list+0x40>
    5e8f:	eb 3f                	jmp    5ed0 <__find_in_stack_list+0x70>
    5e91:	0f 1f 80 00 00 00 00 	nopl   0x0(%rax)
    5e98:	48 8b 00             	mov    (%rax),%rax
    5e9b:	48 39 f0             	cmp    %rsi,%rax
    5e9e:	74 30                	je     5ed0 <__find_in_stack_list+0x70>
    5ea0:	48 8d 88 40 fd ff ff 	lea    -0x2c0(%rax),%rcx
    5ea7:	48 39 ca             	cmp    %rcx,%rdx
    5eaa:	75 ec                	jne    5e98 <__find_in_stack_list+0x38>
    5eac:	48 85 d2             	test   %rdx,%rdx
    5eaf:	74 1f                	je     5ed0 <__find_in_stack_list+0x70>
    5eb1:	48 89 d6             	mov    %rdx,%rsi
    5eb4:	f0 ff 0d f5 63 21 00 	lock decl 0x2163f5(%rip)        # 21c2b0 <stack_cache_lock>
    5ebb:	0f 85 f6 1d 00 00    	jne    7cb7 <_L_unlock_97>
    5ec1:	48 89 f0             	mov    %rsi,%rax
    5ec4:	c9                   	leaveq 
    5ec5:	c3                   	retq   
    5ec6:	66 2e 0f 1f 84 00 00 	nopw   %cs:0x0(%rax,%rax,1)
    5ecd:	00 00 00 
    5ed0:	48 8b 05 c9 63 21 00 	mov    0x2163c9(%rip),%rax        # 21c2a0 <__GI___stack_user>
    5ed7:	48 8d 3d c2 63 21 00 	lea    0x2163c2(%rip),%rdi        # 21c2a0 <__GI___stack_user>
    5ede:	48 39 f8             	cmp    %rdi,%rax
    5ee1:	74 31                	je     5f14 <__find_in_stack_list+0xb4>
    5ee3:	48 8d 88 40 fd ff ff 	lea    -0x2c0(%rax),%rcx
    5eea:	48 89 d6             	mov    %rdx,%rsi
    5eed:	48 39 d1             	cmp    %rdx,%rcx
    5ef0:	74 c2                	je     5eb4 <__find_in_stack_list+0x54>
    5ef2:	48 8b 00             	mov    (%rax),%rax
    5ef5:	48 39 f8             	cmp    %rdi,%rax
    5ef8:	74 1a                	je     5f14 <__find_in_stack_list+0xb4>
    5efa:	66 0f 1f 44 00 00    	nopw   0x0(%rax,%rax,1)
    5f00:	48 8d 88 40 fd ff ff 	lea    -0x2c0(%rax),%rcx
    5f07:	48 39 d1             	cmp    %rdx,%rcx
    5f0a:	74 a5                	je     5eb1 <__find_in_stack_list+0x51>
    5f0c:	48 8b 00             	mov    (%rax),%rax
    5f0f:	48 39 f8             	cmp    %rdi,%rax
    5f12:	75 ec                	jne    5f00 <__find_in_stack_list+0xa0>
    5f14:	31 f6                	xor    %esi,%esi
    5f16:	eb 9c                	jmp    5eb4 <__find_in_stack_list+0x54>
    5f18:	0f 1f 84 00 00 00 00 	nopl   0x0(%rax,%rax,1)
    5f1f:	00 

0000000000005f20 <__reclaim_stacks>:
    5f20:	55                   	push   %rbp
    5f21:	48 8b 05 a8 63 21 00 	mov    0x2163a8(%rip),%rax        # 21c2d0 <in_flight_stack>
    5f28:	64 4c 8b 1c 25 10 00 	mov    %fs:0x10,%r11
    5f2f:	00 00 
    5f31:	48 89 e5             	mov    %rsp,%rbp
    5f34:	41 54                	push   %r12
    5f36:	48 85 c0             	test   %rax,%rax
    5f39:	53                   	push   %rbx
    5f3a:	74 5b                	je     5f97 <__reclaim_stacks+0x77>
    5f3c:	48 89 c2             	mov    %rax,%rdx
    5f3f:	48 83 e2 fe          	and    $0xfffffffffffffffe,%rdx
    5f43:	a8 01                	test   $0x1,%al
    5f45:	74 3e                	je     5f85 <__reclaim_stacks+0x65>
    5f47:	4c 8b 15 f2 22 21 00 	mov    0x2122f2(%rip),%r10        # 218240 <stack_used>
    5f4e:	48 8d 1d eb 22 21 00 	lea    0x2122eb(%rip),%rbx        # 218240 <stack_used>
    5f55:	49 8b 42 08          	mov    0x8(%r10),%rax
    5f59:	48 39 d8             	cmp    %rbx,%rax
    5f5c:	0f 84 1b 02 00 00    	je     617d <__reclaim_stacks+0x25d>
    5f62:	48 39 c2             	cmp    %rax,%rdx
    5f65:	0f 85 48 02 00 00    	jne    61b3 <__reclaim_stacks+0x293>
    5f6b:	4c 89 12             	mov    %r10,(%rdx)
    5f6e:	48 89 5a 08          	mov    %rbx,0x8(%rdx)
    5f72:	49 89 d2             	mov    %rdx,%r10
    5f75:	48 89 15 c4 22 21 00 	mov    %rdx,0x2122c4(%rip)        # 218240 <stack_used>
    5f7c:	4c 8d 25 cd 22 21 00 	lea    0x2122cd(%rip),%r12        # 218250 <stack_cache>
    5f83:	eb 27                	jmp    5fac <__reclaim_stacks+0x8c>
    5f85:	48 8b 02             	mov    (%rdx),%rax
    5f88:	48 8b 4a 08          	mov    0x8(%rdx),%rcx
    5f8c:	48 89 48 08          	mov    %rcx,0x8(%rax)
    5f90:	48 8b 52 08          	mov    0x8(%rdx),%rdx
    5f94:	48 89 02             	mov    %rax,(%rdx)
    5f97:	4c 8b 15 a2 22 21 00 	mov    0x2122a2(%rip),%r10        # 218240 <stack_used>
    5f9e:	48 8d 1d 9b 22 21 00 	lea    0x21229b(%rip),%rbx        # 218240 <stack_used>
    5fa5:	4c 8d 25 a4 22 21 00 	lea    0x2122a4(%rip),%r12        # 218250 <stack_cache>
    5fac:	49 39 da             	cmp    %rbx,%r10
    5faf:	48 89 de             	mov    %rbx,%rsi
    5fb2:	0f 84 af 00 00 00    	je     6067 <__reclaim_stacks+0x147>
    5fb8:	31 c0                	xor    %eax,%eax
    5fba:	41 b9 40 00 00 00    	mov    $0x40,%r9d
    5fc0:	eb 12                	jmp    5fd4 <__reclaim_stacks+0xb4>
    5fc2:	66 0f 1f 44 00 00    	nopw   0x0(%rax,%rax,1)
    5fc8:	4d 8b 12             	mov    (%r10),%r10
    5fcb:	49 39 da             	cmp    %rbx,%r10
    5fce:	0f 84 90 00 00 00    	je     6064 <__reclaim_stacks+0x144>
    5fd4:	4d 8d 82 40 fd ff ff 	lea    -0x2c0(%r10),%r8
    5fdb:	4d 39 c3             	cmp    %r8,%r11
    5fde:	74 e8                	je     5fc8 <__reclaim_stacks+0xa8>
    5fe0:	41 8b 93 d4 02 00 00 	mov    0x2d4(%r11),%edx
    5fe7:	41 c7 80 d0 02 00 00 	movl   $0x0,0x2d0(%r8)
    5fee:	00 00 00 00 
    5ff2:	41 89 90 d4 02 00 00 	mov    %edx,0x2d4(%r8)
    5ff9:	49 8b 90 98 06 00 00 	mov    0x698(%r8),%rdx
    6000:	48 01 15 c1 62 21 00 	add    %rdx,0x2162c1(%rip)        # 21c2c8 <stack_cache_actsize>
    6007:	41 80 b8 10 06 00 00 	cmpb   $0x0,0x610(%r8)
    600e:	00 
    600f:	74 b7                	je     5fc8 <__reclaim_stacks+0xa8>
    6011:	49 8d 52 50          	lea    0x50(%r10),%rdx
    6015:	4c 89 c9             	mov    %r9,%rcx
    6018:	41 c6 80 10 06 00 00 	movb   $0x0,0x610(%r8)
    601f:	00 
    6020:	48 89 d7             	mov    %rdx,%rdi
    6023:	ba 01 00 00 00       	mov    $0x1,%edx
    6028:	f3 48 ab             	rep stos %rax,%es:(%rdi)
    602b:	0f 1f 44 00 00       	nopl   0x0(%rax,%rax,1)
    6030:	49 8b b4 d0 10 05 00 	mov    0x510(%r8,%rdx,8),%rsi
    6037:	00 
    6038:	48 85 f6             	test   %rsi,%rsi
    603b:	74 11                	je     604e <__reclaim_stacks+0x12e>
    603d:	48 89 f7             	mov    %rsi,%rdi
    6040:	4c 89 c9             	mov    %r9,%rcx
    6043:	f3 48 ab             	rep stos %rax,%es:(%rdi)
    6046:	41 c6 80 10 06 00 00 	movb   $0x1,0x610(%r8)
    604d:	01 
    604e:	48 83 c2 01          	add    $0x1,%rdx
    6052:	48 83 fa 20          	cmp    $0x20,%rdx
    6056:	75 d8                	jne    6030 <__reclaim_stacks+0x110>
    6058:	4d 8b 12             	mov    (%r10),%r10
    605b:	49 39 da             	cmp    %rbx,%r10
    605e:	0f 85 70 ff ff ff    	jne    5fd4 <__reclaim_stacks+0xb4>
    6064:	48 8b 33             	mov    (%rbx),%rsi
    6067:	48 8b 0d e2 21 21 00 	mov    0x2121e2(%rip),%rcx        # 218250 <stack_cache>
    606e:	4c 39 e1             	cmp    %r12,%rcx
    6071:	48 89 c8             	mov    %rcx,%rax
    6074:	74 1c                	je     6092 <__reclaim_stacks+0x172>
    6076:	66 2e 0f 1f 84 00 00 	nopw   %cs:0x0(%rax,%rax,1)
    607d:	00 00 00 
    6080:	41 8b 93 d4 02 00 00 	mov    0x2d4(%r11),%edx
    6087:	89 50 14             	mov    %edx,0x14(%rax)
    608a:	48 8b 00             	mov    (%rax),%rax
    608d:	4c 39 e0             	cmp    %r12,%rax
    6090:	75 ee                	jne    6080 <__reclaim_stacks+0x160>
    6092:	48 39 de             	cmp    %rbx,%rsi
    6095:	74 2e                	je     60c5 <__reclaim_stacks+0x1a5>
    6097:	48 8d 05 b2 21 21 00 	lea    0x2121b2(%rip),%rax        # 218250 <stack_cache>
    609e:	48 89 46 08          	mov    %rax,0x8(%rsi)
    60a2:	48 8b 05 9f 21 21 00 	mov    0x21219f(%rip),%rax        # 218248 <stack_used+0x8>
    60a9:	48 89 08             	mov    %rcx,(%rax)
    60ac:	48 8b 15 9d 21 21 00 	mov    0x21219d(%rip),%rdx        # 218250 <stack_cache>
    60b3:	48 89 42 08          	mov    %rax,0x8(%rdx)
    60b7:	48 8b 05 82 21 21 00 	mov    0x212182(%rip),%rax        # 218240 <stack_used>
    60be:	48 89 05 8b 21 21 00 	mov    %rax,0x21218b(%rip)        # 218250 <stack_cache>
    60c5:	49 8d 83 c0 02 00 00 	lea    0x2c0(%r11),%rax
    60cc:	48 89 05 fd 61 21 00 	mov    %rax,0x2161fd(%rip)        # 21c2d0 <in_flight_stack>
    60d3:	49 8b 93 c0 02 00 00 	mov    0x2c0(%r11),%rdx
    60da:	49 8b 8b c8 02 00 00 	mov    0x2c8(%r11),%rcx
    60e1:	48 89 4a 08          	mov    %rcx,0x8(%rdx)
    60e5:	49 8b 8b c8 02 00 00 	mov    0x2c8(%r11),%rcx
    60ec:	48 89 11             	mov    %rdx,(%rcx)
    60ef:	48 8d 15 4a 21 21 00 	lea    0x21214a(%rip),%rdx        # 218240 <stack_used>
    60f6:	48 c7 05 cf 61 21 00 	movq   $0x0,0x2161cf(%rip)        # 21c2d0 <in_flight_stack>
    60fd:	00 00 00 00 
    6101:	48 89 15 40 21 21 00 	mov    %rdx,0x212140(%rip)        # 218248 <stack_used+0x8>
    6108:	48 89 15 31 21 21 00 	mov    %rdx,0x212131(%rip)        # 218240 <stack_used>
    610f:	48 8d 15 8a 61 21 00 	lea    0x21618a(%rip),%rdx        # 21c2a0 <__GI___stack_user>
    6116:	48 89 15 8b 61 21 00 	mov    %rdx,0x21618b(%rip)        # 21c2a8 <__GI___stack_user+0x8>
    611d:	48 89 15 7c 61 21 00 	mov    %rdx,0x21617c(%rip)        # 21c2a0 <__GI___stack_user>
    6124:	31 d2                	xor    %edx,%edx
    6126:	64 8a 14 25 12 06 00 	mov    %fs:0x612,%dl
    612d:	00 
    612e:	84 d2                	test   %dl,%dl
    6130:	0f 85 9c 00 00 00    	jne    61d2 <__reclaim_stacks+0x2b2>
    6136:	48 8d 15 03 21 21 00 	lea    0x212103(%rip),%rdx        # 218240 <stack_used>
    613d:	49 89 93 c0 02 00 00 	mov    %rdx,0x2c0(%r11)
    6144:	49 89 93 c8 02 00 00 	mov    %rdx,0x2c8(%r11)
    614b:	48 89 05 f6 20 21 00 	mov    %rax,0x2120f6(%rip)        # 218248 <stack_used+0x8>
    6152:	48 89 05 e7 20 21 00 	mov    %rax,0x2120e7(%rip)        # 218240 <stack_used>
    6159:	5b                   	pop    %rbx
    615a:	c7 05 d4 20 21 00 01 	movl   $0x1,0x2120d4(%rip)        # 218238 <__nptl_nthreads>
    6161:	00 00 00 
    6164:	48 c7 05 61 61 21 00 	movq   $0x0,0x216161(%rip)        # 21c2d0 <in_flight_stack>
    616b:	00 00 00 00 
    616f:	c7 05 37 61 21 00 00 	movl   $0x0,0x216137(%rip)        # 21c2b0 <stack_cache_lock>
    6176:	00 00 00 
    6179:	41 5c                	pop    %r12
    617b:	c9                   	leaveq 
    617c:	c3                   	retq   
    617d:	48 8b 05 cc 20 21 00 	mov    0x2120cc(%rip),%rax        # 218250 <stack_cache>
    6184:	4c 8d 25 c5 20 21 00 	lea    0x2120c5(%rip),%r12        # 218250 <stack_cache>
    618b:	48 8b 48 08          	mov    0x8(%rax),%rcx
    618f:	4c 39 e1             	cmp    %r12,%rcx
    6192:	0f 84 14 fe ff ff    	je     5fac <__reclaim_stacks+0x8c>
    6198:	48 39 ca             	cmp    %rcx,%rdx
    619b:	75 16                	jne    61b3 <__reclaim_stacks+0x293>
    619d:	48 89 02             	mov    %rax,(%rdx)
    61a0:	4c 89 62 08          	mov    %r12,0x8(%rdx)
    61a4:	48 89 15 a5 20 21 00 	mov    %rdx,0x2120a5(%rip)        # 218250 <stack_cache>
    61ab:	4c 8b 13             	mov    (%rbx),%r10
    61ae:	e9 f9 fd ff ff       	jmpq   5fac <__reclaim_stacks+0x8c>
    61b3:	48 8d 0d ac b5 00 00 	lea    0xb5ac(%rip),%rcx        # 11766 <__PRETTY_FUNCTION__.11806>
    61ba:	48 8d 35 fd b4 00 00 	lea    0xb4fd(%rip),%rsi        # 116be <banner+0x11e>
    61c1:	48 8d 3d 06 b5 00 00 	lea    0xb506(%rip),%rdi        # 116ce <banner+0x12e>
    61c8:	ba 3d 03 00 00       	mov    $0x33d,%edx
    61cd:	e8 0e f2 ff ff       	callq  53e0 <__assert_fail@plt>
    61d2:	48 8d 15 c7 60 21 00 	lea    0x2160c7(%rip),%rdx        # 21c2a0 <__GI___stack_user>
    61d9:	49 89 93 c0 02 00 00 	mov    %rdx,0x2c0(%r11)
    61e0:	49 89 93 c8 02 00 00 	mov    %rdx,0x2c8(%r11)
    61e7:	48 89 05 ba 60 21 00 	mov    %rax,0x2160ba(%rip)        # 21c2a8 <__GI___stack_user+0x8>
    61ee:	48 89 05 ab 60 21 00 	mov    %rax,0x2160ab(%rip)        # 21c2a0 <__GI___stack_user>
    61f5:	e9 5f ff ff ff       	jmpq   6159 <__reclaim_stacks+0x239>
    61fa:	66 0f 1f 44 00 00    	nopw   0x0(%rax,%rax,1)

0000000000006200 <__nptl_deallocate_tsd>:
    6200:	55                   	push   %rbp
    6201:	31 c0                	xor    %eax,%eax
    6203:	48 89 e5             	mov    %rsp,%rbp
    6206:	41 57                	push   %r15
    6208:	41 56                	push   %r14
    620a:	41 55                	push   %r13
    620c:	41 54                	push   %r12
    620e:	53                   	push   %rbx
    620f:	48 83 ec 18          	sub    $0x18,%rsp
    6213:	64 8a 04 25 10 06 00 	mov    %fs:0x610,%al
    621a:	00 
    621b:	84 c0                	test   %al,%al
    621d:	0f 84 08 01 00 00    	je     632b <__nptl_deallocate_tsd+0x12b>
    6223:	4c 8d 3d 76 20 21 00 	lea    0x212076(%rip),%r15        # 2182a0 <__GI___pthread_keys>
    622a:	48 c7 45 c8 00 00 00 	movq   $0x0,-0x38(%rbp)
    6231:	00 
    6232:	64 c6 04 25 10 06 00 	movb   $0x0,%fs:0x610
    6239:	00 00 
    623b:	45 31 f6             	xor    %r14d,%r14d
    623e:	66 90                	xchg   %ax,%ax
    6240:	64 4e 8b 2c f5 10 05 	mov    %fs:0x510(,%r14,8),%r13
    6247:	00 00 
    6249:	4d 85 ed             	test   %r13,%r13
    624c:	74 5a                	je     62a8 <__nptl_deallocate_tsd+0xa8>
    624e:	4d 89 f4             	mov    %r14,%r12
    6251:	31 db                	xor    %ebx,%ebx
    6253:	49 c1 e4 09          	shl    $0x9,%r12
    6257:	4d 01 fc             	add    %r15,%r12
    625a:	eb 15                	jmp    6271 <__nptl_deallocate_tsd+0x71>
    625c:	0f 1f 40 00          	nopl   0x0(%rax)
    6260:	48 83 c3 10          	add    $0x10,%rbx
    6264:	49 83 c4 10          	add    $0x10,%r12
    6268:	48 81 fb 00 02 00 00 	cmp    $0x200,%rbx
    626f:	74 37                	je     62a8 <__nptl_deallocate_tsd+0xa8>
    6271:	49 8b 7c 1d 08       	mov    0x8(%r13,%rbx,1),%rdi
    6276:	48 85 ff             	test   %rdi,%rdi
    6279:	74 e5                	je     6260 <__nptl_deallocate_tsd+0x60>
    627b:	49 8b 04 24          	mov    (%r12),%rax
    627f:	49 39 44 1d 00       	cmp    %rax,0x0(%r13,%rbx,1)
    6284:	49 c7 44 1d 08 00 00 	movq   $0x0,0x8(%r13,%rbx,1)
    628b:	00 00 
    628d:	75 d1                	jne    6260 <__nptl_deallocate_tsd+0x60>
    628f:	49 8b 44 24 08       	mov    0x8(%r12),%rax
    6294:	48 85 c0             	test   %rax,%rax
    6297:	74 c7                	je     6260 <__nptl_deallocate_tsd+0x60>
    6299:	ff d0                	callq  *%rax
    629b:	0f 1f 44 00 00       	nopl   0x0(%rax,%rax,1)
    62a0:	eb be                	jmp    6260 <__nptl_deallocate_tsd+0x60>
    62a2:	66 0f 1f 44 00 00    	nopw   0x0(%rax,%rax,1)
    62a8:	49 83 c6 01          	add    $0x1,%r14
    62ac:	49 83 fe 20          	cmp    $0x20,%r14
    62b0:	75 8e                	jne    6240 <__nptl_deallocate_tsd+0x40>
    62b2:	31 c0                	xor    %eax,%eax
    62b4:	64 8a 04 25 10 06 00 	mov    %fs:0x610,%al
    62bb:	00 
    62bc:	84 c0                	test   %al,%al
    62be:	74 2d                	je     62ed <__nptl_deallocate_tsd+0xed>
    62c0:	48 83 45 c8 01       	addq   $0x1,-0x38(%rbp)
    62c5:	48 83 7d c8 04       	cmpq   $0x4,-0x38(%rbp)
    62ca:	0f 85 62 ff ff ff    	jne    6232 <__nptl_deallocate_tsd+0x32>
    62d0:	64 48 8b 14 25 10 00 	mov    %fs:0x10,%rdx
    62d7:	00 00 
    62d9:	48 81 c2 10 03 00 00 	add    $0x310,%rdx
    62e0:	b9 40 00 00 00       	mov    $0x40,%ecx
    62e5:	31 c0                	xor    %eax,%eax
    62e7:	48 89 d7             	mov    %rdx,%rdi
    62ea:	f3 48 ab             	rep stos %rax,%es:(%rdi)
    62ed:	bb 01 00 00 00       	mov    $0x1,%ebx
    62f2:	66 0f 1f 44 00 00    	nopw   0x0(%rax,%rax,1)
    62f8:	64 48 8b 3c dd 10 05 	mov    %fs:0x510(,%rbx,8),%rdi
    62ff:	00 00 
    6301:	48 85 ff             	test   %rdi,%rdi
    6304:	74 12                	je     6318 <__nptl_deallocate_tsd+0x118>
    6306:	e8 e5 ef ff ff       	callq  52f0 <free@plt>
    630b:	64 48 c7 04 dd 10 05 	movq   $0x0,%fs:0x510(,%rbx,8)
    6312:	00 00 00 00 00 00 
    6318:	48 83 c3 01          	add    $0x1,%rbx
    631c:	48 83 fb 20          	cmp    $0x20,%rbx
    6320:	75 d6                	jne    62f8 <__nptl_deallocate_tsd+0xf8>
    6322:	64 c6 04 25 10 06 00 	movb   $0x0,%fs:0x610
    6329:	00 00 
    632b:	48 83 c4 18          	add    $0x18,%rsp
    632f:	5b                   	pop    %rbx
    6330:	41 5c                	pop    %r12
    6332:	41 5d                	pop    %r13
    6334:	41 5e                	pop    %r14
    6336:	41 5f                	pop    %r15
    6338:	c9                   	leaveq 
    6339:	c3                   	retq   
    633a:	66 0f 1f 44 00 00    	nopw   0x0(%rax,%rax,1)

0000000000006340 <__wait_lookup_done>:
    6340:	55                   	push   %rbp
    6341:	be 01 00 00 00       	mov    $0x1,%esi
    6346:	31 c0                	xor    %eax,%eax
    6348:	48 89 e5             	mov    %rsp,%rbp
    634b:	41 57                	push   %r15
    634d:	41 56                	push   %r14
    634f:	41 55                	push   %r13
    6351:	41 54                	push   %r12
    6353:	53                   	push   %rbx
    6354:	f0 0f b1 35 54 5f 21 	lock cmpxchg %esi,0x215f54(%rip)        # 21c2b0 <stack_cache_lock>
    635b:	00 
    635c:	0f 85 74 19 00 00    	jne    7cd6 <_L_lock_468>
    6362:	4c 8b 05 d7 1e 21 00 	mov    0x211ed7(%rip),%r8        # 218240 <stack_used>
    6369:	4c 8d 25 d0 1e 21 00 	lea    0x211ed0(%rip),%r12        # 218240 <stack_used>
    6370:	64 48 8b 1c 25 10 00 	mov    %fs:0x10,%rbx
    6377:	00 00 
    6379:	4d 39 e0             	cmp    %r12,%r8
    637c:	74 72                	je     63f0 <__wait_lookup_done+0xb0>
    637e:	41 be 01 00 00 00    	mov    $0x1,%r14d
    6384:	41 bf 02 00 00 00    	mov    $0x2,%r15d
    638a:	41 bd ca 00 00 00    	mov    $0xca,%r13d
    6390:	eb 0e                	jmp    63a0 <__wait_lookup_done+0x60>
    6392:	66 0f 1f 44 00 00    	nopw   0x0(%rax,%rax,1)
    6398:	4d 8b 00             	mov    (%r8),%r8
    639b:	4d 39 e0             	cmp    %r12,%r8
    639e:	74 50                	je     63f0 <__wait_lookup_done+0xb0>
    63a0:	4d 8d 88 40 fd ff ff 	lea    -0x2c0(%r8),%r9
    63a7:	4c 39 cb             	cmp    %r9,%rbx
    63aa:	74 ec                	je     6398 <__wait_lookup_done+0x58>
    63ac:	41 8b 90 5c fd ff ff 	mov    -0x2a4(%r8),%edx
    63b3:	85 d2                	test   %edx,%edx
    63b5:	74 e1                	je     6398 <__wait_lookup_done+0x58>
    63b7:	49 8d 79 1c          	lea    0x1c(%r9),%rdi
    63bb:	44 89 f0             	mov    %r14d,%eax
    63be:	f0 44 0f b1 3f       	lock cmpxchg %r15d,(%rdi)
    63c3:	75 d3                	jne    6398 <__wait_lookup_done+0x58>
    63c5:	0f 1f 00             	nopl   (%rax)
    63c8:	45 31 d2             	xor    %r10d,%r10d
    63cb:	ba 02 00 00 00       	mov    $0x2,%edx
    63d0:	64 8b 34 25 48 00 00 	mov    %fs:0x48,%esi
    63d7:	00 
    63d8:	44 89 e8             	mov    %r13d,%eax
    63db:	0f 05                	syscall 
    63dd:	41 83 79 1c 02       	cmpl   $0x2,0x1c(%r9)
    63e2:	74 e4                	je     63c8 <__wait_lookup_done+0x88>
    63e4:	4d 8b 00             	mov    (%r8),%r8
    63e7:	4d 39 e0             	cmp    %r12,%r8
    63ea:	75 b4                	jne    63a0 <__wait_lookup_done+0x60>
    63ec:	0f 1f 40 00          	nopl   0x0(%rax)
    63f0:	4c 8b 05 a9 5e 21 00 	mov    0x215ea9(%rip),%r8        # 21c2a0 <__GI___stack_user>
    63f7:	4c 8d 25 a2 5e 21 00 	lea    0x215ea2(%rip),%r12        # 21c2a0 <__GI___stack_user>
    63fe:	4d 39 e0             	cmp    %r12,%r8
    6401:	74 75                	je     6478 <__wait_lookup_done+0x138>
    6403:	41 be 01 00 00 00    	mov    $0x1,%r14d
    6409:	41 bf 02 00 00 00    	mov    $0x2,%r15d
    640f:	41 bd ca 00 00 00    	mov    $0xca,%r13d
    6415:	eb 11                	jmp    6428 <__wait_lookup_done+0xe8>
    6417:	66 0f 1f 84 00 00 00 	nopw   0x0(%rax,%rax,1)
    641e:	00 00 
    6420:	4d 8b 00             	mov    (%r8),%r8
    6423:	4d 39 e0             	cmp    %r12,%r8
    6426:	74 50                	je     6478 <__wait_lookup_done+0x138>
    6428:	4d 8d 88 40 fd ff ff 	lea    -0x2c0(%r8),%r9
    642f:	4c 39 cb             	cmp    %r9,%rbx
    6432:	74 ec                	je     6420 <__wait_lookup_done+0xe0>
    6434:	41 8b 80 5c fd ff ff 	mov    -0x2a4(%r8),%eax
    643b:	85 c0                	test   %eax,%eax
    643d:	74 e1                	je     6420 <__wait_lookup_done+0xe0>
    643f:	49 8d 79 1c          	lea    0x1c(%r9),%rdi
    6443:	44 89 f0             	mov    %r14d,%eax
    6446:	f0 44 0f b1 3f       	lock cmpxchg %r15d,(%rdi)
    644b:	75 d3                	jne    6420 <__wait_lookup_done+0xe0>
    644d:	0f 1f 00             	nopl   (%rax)
    6450:	45 31 d2             	xor    %r10d,%r10d
    6453:	ba 02 00 00 00       	mov    $0x2,%edx
    6458:	64 8b 34 25 48 00 00 	mov    %fs:0x48,%esi
    645f:	00 
    6460:	44 89 e8             	mov    %r13d,%eax
    6463:	0f 05                	syscall 
    6465:	41 83 79 1c 02       	cmpl   $0x2,0x1c(%r9)
    646a:	74 e4                	je     6450 <__wait_lookup_done+0x110>
    646c:	4d 8b 00             	mov    (%r8),%r8
    646f:	4d 39 e0             	cmp    %r12,%r8
    6472:	75 b4                	jne    6428 <__wait_lookup_done+0xe8>
    6474:	0f 1f 40 00          	nopl   0x0(%rax)
    6478:	f0 ff 0d 31 5e 21 00 	lock decl 0x215e31(%rip)        # 21c2b0 <stack_cache_lock>
    647f:	0f 85 70 18 00 00    	jne    7cf5 <_L_unlock_562>
    6485:	5b                   	pop    %rbx
    6486:	41 5c                	pop    %r12
    6488:	41 5d                	pop    %r13
    648a:	41 5e                	pop    %r14
    648c:	41 5f                	pop    %r15
    648e:	c9                   	leaveq 
    648f:	c3                   	retq   

0000000000006490 <setxid_mark_thread>:
    6490:	55                   	push   %rbp
    6491:	83 be 1c 06 00 00 ff 	cmpl   $0xffffffff,0x61c(%rsi)
    6498:	49 89 f0             	mov    %rsi,%r8
    649b:	48 89 e5             	mov    %rsp,%rbp
    649e:	74 60                	je     6500 <setxid_mark_thread+0x70>
    64a0:	49 8d 90 08 03 00 00 	lea    0x308(%r8),%rdx
    64a7:	41 c7 80 1c 06 00 00 	movl   $0x0,0x61c(%r8)
    64ae:	00 00 00 00 
    64b2:	66 0f 1f 44 00 00    	nopw   0x0(%rax,%rax,1)
    64b8:	41 8b 80 08 03 00 00 	mov    0x308(%r8),%eax
    64bf:	a8 10                	test   $0x10,%al
    64c1:	75 0d                	jne    64d0 <setxid_mark_thread+0x40>
    64c3:	89 c1                	mov    %eax,%ecx
    64c5:	83 c9 40             	or     $0x40,%ecx
    64c8:	f0 0f b1 0a          	lock cmpxchg %ecx,(%rdx)
    64cc:	75 ea                	jne    64b8 <setxid_mark_thread+0x28>
    64ce:	c9                   	leaveq 
    64cf:	c3                   	retq   
    64d0:	a8 40                	test   $0x40,%al
    64d2:	75 fa                	jne    64ce <setxid_mark_thread+0x3e>
    64d4:	41 c7 80 1c 06 00 00 	movl   $0x1,0x61c(%r8)
    64db:	01 00 00 00 
    64df:	ba 01 00 00 00       	mov    $0x1,%edx
    64e4:	64 8b 34 25 48 00 00 	mov    %fs:0x48,%esi
    64eb:	00 
    64ec:	b8 ca 00 00 00       	mov    $0xca,%eax
    64f1:	49 8d b8 1c 06 00 00 	lea    0x61c(%r8),%rdi
    64f8:	83 ce 01             	or     $0x1,%esi
    64fb:	0f 05                	syscall 
    64fd:	c9                   	leaveq 
    64fe:	c3                   	retq   
    64ff:	90                   	nop
    6500:	48 8d be 1c 06 00 00 	lea    0x61c(%rsi),%rdi
    6507:	b8 ff ff ff ff       	mov    $0xffffffff,%eax
    650c:	ba fe ff ff ff       	mov    $0xfffffffe,%edx
    6511:	f0 0f b1 17          	lock cmpxchg %edx,(%rdi)
    6515:	75 89                	jne    64a0 <setxid_mark_thread+0x10>
    6517:	41 b9 ca 00 00 00    	mov    $0xca,%r9d
    651d:	0f 1f 00             	nopl   (%rax)
    6520:	45 31 d2             	xor    %r10d,%r10d
    6523:	ba fe ff ff ff       	mov    $0xfffffffe,%edx
    6528:	64 8b 34 25 48 00 00 	mov    %fs:0x48,%esi
    652f:	00 
    6530:	44 89 c8             	mov    %r9d,%eax
    6533:	0f 05                	syscall 
    6535:	41 39 90 1c 06 00 00 	cmp    %edx,0x61c(%r8)
    653c:	74 e2                	je     6520 <setxid_mark_thread+0x90>
    653e:	e9 5d ff ff ff       	jmpq   64a0 <setxid_mark_thread+0x10>
    6543:	66 66 66 66 2e 0f 1f 	data32 data32 data32 nopw %cs:0x0(%rax,%rax,1)
    654a:	84 00 00 00 00 00 

0000000000006550 <__nptl_setxid>:
    6550:	55                   	push   %rbp
    6551:	be 01 00 00 00       	mov    $0x1,%esi
    6556:	31 c0                	xor    %eax,%eax
    6558:	48 89 e5             	mov    %rsp,%rbp
    655b:	41 57                	push   %r15
    655d:	41 56                	push   %r14
    655f:	41 55                	push   %r13
    6561:	41 54                	push   %r12
    6563:	53                   	push   %rbx
    6564:	48 89 fb             	mov    %rdi,%rbx
    6567:	f0 0f b1 35 41 5d 21 	lock cmpxchg %esi,0x215d41(%rip)        # 21c2b0 <stack_cache_lock>
    656e:	00 
    656f:	0f 85 9f 17 00 00    	jne    7d14 <_L_lock_660>
    6575:	4c 8b 2d c4 1c 21 00 	mov    0x211cc4(%rip),%r13        # 218240 <stack_used>
    657c:	4c 8d 35 bd 1c 21 00 	lea    0x211cbd(%rip),%r14        # 218240 <stack_used>
    6583:	48 89 1d 9e 5d 21 00 	mov    %rbx,0x215d9e(%rip)        # 21c328 <__xidcmd>
    658a:	64 4c 8b 24 25 10 00 	mov    %fs:0x10,%r12
    6591:	00 00 
    6593:	c7 43 20 00 00 00 00 	movl   $0x0,0x20(%rbx)
    659a:	4d 39 f5             	cmp    %r14,%r13
    659d:	74 1e                	je     65bd <__nptl_setxid+0x6d>
    659f:	90                   	nop
    65a0:	49 8d b5 40 fd ff ff 	lea    -0x2c0(%r13),%rsi
    65a7:	49 39 f4             	cmp    %rsi,%r12
    65aa:	74 08                	je     65b4 <__nptl_setxid+0x64>
    65ac:	48 89 df             	mov    %rbx,%rdi
    65af:	e8 dc fe ff ff       	callq  6490 <setxid_mark_thread>
    65b4:	4d 8b 6d 00          	mov    0x0(%r13),%r13
    65b8:	4d 39 f5             	cmp    %r14,%r13
    65bb:	75 e3                	jne    65a0 <__nptl_setxid+0x50>
    65bd:	4c 8b 2d dc 5c 21 00 	mov    0x215cdc(%rip),%r13        # 21c2a0 <__GI___stack_user>
    65c4:	4c 8d 3d d5 5c 21 00 	lea    0x215cd5(%rip),%r15        # 21c2a0 <__GI___stack_user>
    65cb:	4d 39 fd             	cmp    %r15,%r13
    65ce:	74 1d                	je     65ed <__nptl_setxid+0x9d>
    65d0:	49 8d b5 40 fd ff ff 	lea    -0x2c0(%r13),%rsi
    65d7:	49 39 f4             	cmp    %rsi,%r12
    65da:	74 08                	je     65e4 <__nptl_setxid+0x94>
    65dc:	48 89 df             	mov    %rbx,%rdi
    65df:	e8 ac fe ff ff       	callq  6490 <setxid_mark_thread>
    65e4:	4d 8b 6d 00          	mov    0x0(%r13),%r13
    65e8:	4d 39 fd             	cmp    %r15,%r13
    65eb:	75 e3                	jne    65d0 <__nptl_setxid+0x80>
    65ed:	4c 8d 6b 20          	lea    0x20(%rbx),%r13
    65f1:	0f 1f 80 00 00 00 00 	nopl   0x0(%rax)
    65f8:	4c 8b 0d 41 1c 21 00 	mov    0x211c41(%rip),%r9        # 218240 <stack_used>
    65ff:	45 31 c0             	xor    %r8d,%r8d
    6602:	4d 39 f1             	cmp    %r14,%r9
    6605:	75 42                	jne    6649 <__nptl_setxid+0xf9>
    6607:	eb 5f                	jmp    6668 <__nptl_setxid+0x118>
    6609:	0f 1f 80 00 00 00 00 	nopl   0x0(%rax)
    6610:	48 63 b0 d0 02 00 00 	movslq 0x2d0(%rax),%rsi
    6617:	64 8b 3c 25 d4 02 00 	mov    %fs:0x2d4,%edi
    661e:	00 
    661f:	ba 21 00 00 00       	mov    $0x21,%edx
    6624:	48 63 ff             	movslq %edi,%rdi
    6627:	b8 ea 00 00 00       	mov    $0xea,%eax
    662c:	0f 05                	syscall 
    662e:	3d 00 f0 ff ff       	cmp    $0xfffff000,%eax
    6633:	77 29                	ja     665e <__nptl_setxid+0x10e>
    6635:	f0 ff 43 20          	lock incl 0x20(%rbx)
    6639:	b8 01 00 00 00       	mov    $0x1,%eax
    663e:	41 01 c0             	add    %eax,%r8d
    6641:	4d 8b 09             	mov    (%r9),%r9
    6644:	4d 39 f1             	cmp    %r14,%r9
    6647:	74 1f                	je     6668 <__nptl_setxid+0x118>
    6649:	49 8d 81 40 fd ff ff 	lea    -0x2c0(%r9),%rax
    6650:	49 39 c4             	cmp    %rax,%r12
    6653:	74 ec                	je     6641 <__nptl_setxid+0xf1>
    6655:	f6 80 08 03 00 00 40 	testb  $0x40,0x308(%rax)
    665c:	75 b2                	jne    6610 <__nptl_setxid+0xc0>
    665e:	31 c0                	xor    %eax,%eax
    6660:	eb dc                	jmp    663e <__nptl_setxid+0xee>
    6662:	66 0f 1f 44 00 00    	nopw   0x0(%rax,%rax,1)
    6668:	4c 8b 0d 31 5c 21 00 	mov    0x215c31(%rip),%r9        # 21c2a0 <__GI___stack_user>
    666f:	4d 39 f9             	cmp    %r15,%r9
    6672:	75 45                	jne    66b9 <__nptl_setxid+0x169>
    6674:	eb 77                	jmp    66ed <__nptl_setxid+0x19d>
    6676:	66 2e 0f 1f 84 00 00 	nopw   %cs:0x0(%rax,%rax,1)
    667d:	00 00 00 
    6680:	48 63 b0 d0 02 00 00 	movslq 0x2d0(%rax),%rsi
    6687:	64 8b 3c 25 d4 02 00 	mov    %fs:0x2d4,%edi
    668e:	00 
    668f:	ba 21 00 00 00       	mov    $0x21,%edx
    6694:	48 63 ff             	movslq %edi,%rdi
    6697:	b8 ea 00 00 00       	mov    $0xea,%eax
    669c:	0f 05                	syscall 
    669e:	3d 00 f0 ff ff       	cmp    $0xfffff000,%eax
    66a3:	77 29                	ja     66ce <__nptl_setxid+0x17e>
    66a5:	f0 ff 43 20          	lock incl 0x20(%rbx)
    66a9:	b8 01 00 00 00       	mov    $0x1,%eax
    66ae:	41 01 c0             	add    %eax,%r8d
    66b1:	4d 8b 09             	mov    (%r9),%r9
    66b4:	4d 39 f9             	cmp    %r15,%r9
    66b7:	74 34                	je     66ed <__nptl_setxid+0x19d>
    66b9:	49 8d 81 40 fd ff ff 	lea    -0x2c0(%r9),%rax
    66c0:	49 39 c4             	cmp    %rax,%r12
    66c3:	74 ec                	je     66b1 <__nptl_setxid+0x161>
    66c5:	f6 80 08 03 00 00 40 	testb  $0x40,0x308(%rax)
    66cc:	75 b2                	jne    6680 <__nptl_setxid+0x130>
    66ce:	31 c0                	xor    %eax,%eax
    66d0:	eb dc                	jmp    66ae <__nptl_setxid+0x15e>
    66d2:	66 0f 1f 44 00 00    	nopw   0x0(%rax,%rax,1)
    66d8:	45 31 d2             	xor    %r10d,%r10d
    66db:	64 8b 34 25 48 00 00 	mov    %fs:0x48,%esi
    66e2:	00 
    66e3:	b8 ca 00 00 00       	mov    $0xca,%eax
    66e8:	4c 89 ef             	mov    %r13,%rdi
    66eb:	0f 05                	syscall 
    66ed:	8b 53 20             	mov    0x20(%rbx),%edx
    66f0:	85 d2                	test   %edx,%edx
    66f2:	75 e4                	jne    66d8 <__nptl_setxid+0x188>
    66f4:	45 85 c0             	test   %r8d,%r8d
    66f7:	0f 85 fb fe ff ff    	jne    65f8 <__nptl_setxid+0xa8>
    66fd:	4c 8b 05 3c 1b 21 00 	mov    0x211b3c(%rip),%r8        # 218240 <stack_used>
    6704:	4d 39 f0             	cmp    %r14,%r8
    6707:	74 5a                	je     6763 <__nptl_setxid+0x213>
    6709:	41 b9 ca 00 00 00    	mov    $0xca,%r9d
    670f:	90                   	nop
    6710:	49 8d b8 40 fd ff ff 	lea    -0x2c0(%r8),%rdi
    6717:	49 39 fc             	cmp    %rdi,%r12
    671a:	74 3f                	je     675b <__nptl_setxid+0x20b>
    671c:	49 8d 50 48          	lea    0x48(%r8),%rdx
    6720:	8b 87 08 03 00 00    	mov    0x308(%rdi),%eax
    6726:	a8 40                	test   $0x40,%al
    6728:	74 31                	je     675b <__nptl_setxid+0x20b>
    672a:	89 c1                	mov    %eax,%ecx
    672c:	83 e1 bf             	and    $0xffffffbf,%ecx
    672f:	f0 0f b1 0a          	lock cmpxchg %ecx,(%rdx)
    6733:	75 eb                	jne    6720 <__nptl_setxid+0x1d0>
    6735:	c7 87 1c 06 00 00 01 	movl   $0x1,0x61c(%rdi)
    673c:	00 00 00 
    673f:	ba 01 00 00 00       	mov    $0x1,%edx
    6744:	64 8b 34 25 48 00 00 	mov    %fs:0x48,%esi
    674b:	00 
    674c:	48 81 c7 1c 06 00 00 	add    $0x61c,%rdi
    6753:	83 ce 01             	or     $0x1,%esi
    6756:	44 89 c8             	mov    %r9d,%eax
    6759:	0f 05                	syscall 
    675b:	4d 8b 00             	mov    (%r8),%r8
    675e:	4d 39 f0             	cmp    %r14,%r8
    6761:	75 ad                	jne    6710 <__nptl_setxid+0x1c0>
    6763:	4c 8b 05 36 5b 21 00 	mov    0x215b36(%rip),%r8        # 21c2a0 <__GI___stack_user>
    676a:	4d 39 f8             	cmp    %r15,%r8
    676d:	74 64                	je     67d3 <__nptl_setxid+0x283>
    676f:	41 b9 ca 00 00 00    	mov    $0xca,%r9d
    6775:	0f 1f 00             	nopl   (%rax)
    6778:	49 8d b8 40 fd ff ff 	lea    -0x2c0(%r8),%rdi
    677f:	49 39 fc             	cmp    %rdi,%r12
    6782:	74 47                	je     67cb <__nptl_setxid+0x27b>
    6784:	49 8d 50 48          	lea    0x48(%r8),%rdx
    6788:	0f 1f 84 00 00 00 00 	nopl   0x0(%rax,%rax,1)
    678f:	00 
    6790:	8b 87 08 03 00 00    	mov    0x308(%rdi),%eax
    6796:	a8 40                	test   $0x40,%al
    6798:	74 31                	je     67cb <__nptl_setxid+0x27b>
    679a:	89 c1                	mov    %eax,%ecx
    679c:	83 e1 bf             	and    $0xffffffbf,%ecx
    679f:	f0 0f b1 0a          	lock cmpxchg %ecx,(%rdx)
    67a3:	75 eb                	jne    6790 <__nptl_setxid+0x240>
    67a5:	c7 87 1c 06 00 00 01 	movl   $0x1,0x61c(%rdi)
    67ac:	00 00 00 
    67af:	ba 01 00 00 00       	mov    $0x1,%edx
    67b4:	64 8b 34 25 48 00 00 	mov    %fs:0x48,%esi
    67bb:	00 
    67bc:	48 81 c7 1c 06 00 00 	add    $0x61c,%rdi
    67c3:	83 ce 01             	or     $0x1,%esi
    67c6:	44 89 c8             	mov    %r9d,%eax
    67c9:	0f 05                	syscall 
    67cb:	4d 8b 00             	mov    (%r8),%r8
    67ce:	4d 39 f8             	cmp    %r15,%r8
    67d1:	75 a5                	jne    6778 <__nptl_setxid+0x228>
    67d3:	48 8b 73 10          	mov    0x10(%rbx),%rsi
    67d7:	48 8b 7b 08          	mov    0x8(%rbx),%rdi
    67db:	48 8b 53 18          	mov    0x18(%rbx),%rdx
    67df:	8b 03                	mov    (%rbx),%eax
    67e1:	0f 05                	syscall 
    67e3:	3d 00 f0 ff ff       	cmp    $0xfffff000,%eax
    67e8:	89 c2                	mov    %eax,%edx
    67ea:	77 1a                	ja     6806 <__nptl_setxid+0x2b6>
    67ec:	f0 ff 0d bd 5a 21 00 	lock decl 0x215abd(%rip)        # 21c2b0 <stack_cache_lock>
    67f3:	0f 85 3a 15 00 00    	jne    7d33 <_L_unlock_903>
    67f9:	5b                   	pop    %rbx
    67fa:	41 5c                	pop    %r12
    67fc:	41 5d                	pop    %r13
    67fe:	41 5e                	pop    %r14
    6800:	89 d0                	mov    %edx,%eax
    6802:	41 5f                	pop    %r15
    6804:	c9                   	leaveq 
    6805:	c3                   	retq   
    6806:	48 8b 05 73 17 21 00 	mov    0x211773(%rip),%rax        # 217f80 <_DYNAMIC+0x1f0>
    680d:	f7 da                	neg    %edx
    680f:	64 89 10             	mov    %edx,%fs:(%rax)
    6812:	83 ca ff             	or     $0xffffffff,%edx
    6815:	eb d5                	jmp    67ec <__nptl_setxid+0x29c>
    6817:	66 0f 1f 84 00 00 00 	nopw   0x0(%rax,%rax,1)
    681e:	00 00 

0000000000006820 <__pthread_init_static_tls>:
    6820:	55                   	push   %rbp
    6821:	be 01 00 00 00       	mov    $0x1,%esi
    6826:	31 c0                	xor    %eax,%eax
    6828:	48 89 e5             	mov    %rsp,%rbp
    682b:	41 56                	push   %r14
    682d:	41 55                	push   %r13
    682f:	41 54                	push   %r12
    6831:	53                   	push   %rbx
    6832:	48 89 fb             	mov    %rdi,%rbx
    6835:	f0 0f b1 35 73 5a 21 	lock cmpxchg %esi,0x215a73(%rip)        # 21c2b0 <stack_cache_lock>
    683c:	00 
    683d:	0f 85 0f 15 00 00    	jne    7d52 <_L_lock_937>
    6843:	4c 8b 25 f6 19 21 00 	mov    0x2119f6(%rip),%r12        # 218240 <stack_used>
    684a:	4c 8d 35 ef 19 21 00 	lea    0x2119ef(%rip),%r14        # 218240 <stack_used>
    6851:	4d 39 f4             	cmp    %r14,%r12
    6854:	74 75                	je     68cb <__pthread_init_static_tls+0xab>
    6856:	66 2e 0f 1f 84 00 00 	nopw   %cs:0x0(%rax,%rax,1)
    685d:	00 00 00 
    6860:	4c 89 e0             	mov    %r12,%rax
    6863:	48 2b 83 40 04 00 00 	sub    0x440(%rbx),%rax
    686a:	49 8b 94 24 48 fd ff 	mov    -0x2b8(%r12),%rdx
    6871:	ff 
    6872:	48 8d b8 40 fd ff ff 	lea    -0x2c0(%rax),%rdi
    6879:	48 8b 83 48 04 00 00 	mov    0x448(%rbx),%rax
    6880:	48 c1 e0 04          	shl    $0x4,%rax
    6884:	48 89 3c 10          	mov    %rdi,(%rax,%rdx,1)
    6888:	48 8b 83 48 04 00 00 	mov    0x448(%rbx),%rax
    688f:	48 c1 e0 04          	shl    $0x4,%rax
    6893:	c6 44 10 08 01       	movb   $0x1,0x8(%rax,%rdx,1)
    6898:	48 8b 93 20 04 00 00 	mov    0x420(%rbx),%rdx
    689f:	4c 8b ab 28 04 00 00 	mov    0x428(%rbx),%r13
    68a6:	48 8b b3 18 04 00 00 	mov    0x418(%rbx),%rsi
    68ad:	49 29 d5             	sub    %rdx,%r13
    68b0:	e8 3b ed ff ff       	callq  55f0 <mempcpy@plt>
    68b5:	31 f6                	xor    %esi,%esi
    68b7:	4c 89 ea             	mov    %r13,%rdx
    68ba:	48 89 c7             	mov    %rax,%rdi
    68bd:	e8 2e eb ff ff       	callq  53f0 <memset@plt>
    68c2:	4d 8b 24 24          	mov    (%r12),%r12
    68c6:	4d 39 f4             	cmp    %r14,%r12
    68c9:	75 95                	jne    6860 <__pthread_init_static_tls+0x40>
    68cb:	4c 8b 25 ce 59 21 00 	mov    0x2159ce(%rip),%r12        # 21c2a0 <__GI___stack_user>
    68d2:	4c 8d 35 c7 59 21 00 	lea    0x2159c7(%rip),%r14        # 21c2a0 <__GI___stack_user>
    68d9:	4d 39 f4             	cmp    %r14,%r12
    68dc:	74 6d                	je     694b <__pthread_init_static_tls+0x12b>
    68de:	66 90                	xchg   %ax,%ax
    68e0:	4c 89 e0             	mov    %r12,%rax
    68e3:	48 2b 83 40 04 00 00 	sub    0x440(%rbx),%rax
    68ea:	49 8b 94 24 48 fd ff 	mov    -0x2b8(%r12),%rdx
    68f1:	ff 
    68f2:	48 8d b8 40 fd ff ff 	lea    -0x2c0(%rax),%rdi
    68f9:	48 8b 83 48 04 00 00 	mov    0x448(%rbx),%rax
    6900:	48 c1 e0 04          	shl    $0x4,%rax
    6904:	48 89 3c 10          	mov    %rdi,(%rax,%rdx,1)
    6908:	48 8b 83 48 04 00 00 	mov    0x448(%rbx),%rax
    690f:	48 c1 e0 04          	shl    $0x4,%rax
    6913:	c6 44 10 08 01       	movb   $0x1,0x8(%rax,%rdx,1)
    6918:	48 8b 93 20 04 00 00 	mov    0x420(%rbx),%rdx
    691f:	4c 8b ab 28 04 00 00 	mov    0x428(%rbx),%r13
    6926:	48 8b b3 18 04 00 00 	mov    0x418(%rbx),%rsi
    692d:	49 29 d5             	sub    %rdx,%r13
    6930:	e8 bb ec ff ff       	callq  55f0 <mempcpy@plt>
    6935:	31 f6                	xor    %esi,%esi
    6937:	4c 89 ea             	mov    %r13,%rdx
    693a:	48 89 c7             	mov    %rax,%rdi
    693d:	e8 ae ea ff ff       	callq  53f0 <memset@plt>
    6942:	4d 8b 24 24          	mov    (%r12),%r12
    6946:	4d 39 f4             	cmp    %r14,%r12
    6949:	75 95                	jne    68e0 <__pthread_init_static_tls+0xc0>
    694b:	f0 ff 0d 5e 59 21 00 	lock decl 0x21595e(%rip)        # 21c2b0 <stack_cache_lock>
    6952:	0f 85 19 14 00 00    	jne    7d71 <_L_unlock_1002>
    6958:	5b                   	pop    %rbx
    6959:	41 5c                	pop    %r12
    695b:	41 5d                	pop    %r13
    695d:	41 5e                	pop    %r14
    695f:	c9                   	leaveq 
    6960:	c3                   	retq   
    6961:	66 66 66 66 66 66 2e 	data32 data32 data32 data32 data32 nopw %cs:0x0(%rax,%rax,1)
    6968:	0f 1f 84 00 00 00 00 
    696f:	00 

0000000000006970 <__make_stacks_executable>:
    6970:	55                   	push   %rbp
    6971:	48 89 e5             	mov    %rsp,%rbp
    6974:	41 54                	push   %r12
    6976:	53                   	push   %rbx
    6977:	e8 f4 eb ff ff       	callq  5570 <_dl_make_stack_executable@plt>
    697c:	85 c0                	test   %eax,%eax
    697e:	89 c2                	mov    %eax,%edx
    6980:	75 7e                	jne    6a00 <__make_stacks_executable+0x90>
    6982:	be 01 00 00 00       	mov    $0x1,%esi
    6987:	f0 0f b1 35 21 59 21 	lock cmpxchg %esi,0x215921(%rip)        # 21c2b0 <stack_cache_lock>
    698e:	00 
    698f:	0f 85 fb 13 00 00    	jne    7d90 <_L_lock_1026>
    6995:	48 8b 1d a4 18 21 00 	mov    0x2118a4(%rip),%rbx        # 218240 <stack_used>
    699c:	4c 8d 25 9d 18 21 00 	lea    0x21189d(%rip),%r12        # 218240 <stack_used>
    69a3:	4c 39 e3             	cmp    %r12,%rbx
    69a6:	75 10                	jne    69b8 <__make_stacks_executable+0x48>
    69a8:	eb 66                	jmp    6a10 <__make_stacks_executable+0xa0>
    69aa:	66 0f 1f 44 00 00    	nopw   0x0(%rax,%rax,1)
    69b0:	48 8b 1b             	mov    (%rbx),%rbx
    69b3:	4c 39 e3             	cmp    %r12,%rbx
    69b6:	74 58                	je     6a10 <__make_stacks_executable+0xa0>
    69b8:	48 8d 83 40 fd ff ff 	lea    -0x2c0(%rbx),%rax
    69bf:	ba 07 00 00 00       	mov    $0x7,%edx
    69c4:	48 8b b8 a0 06 00 00 	mov    0x6a0(%rax),%rdi
    69cb:	48 8b b0 98 06 00 00 	mov    0x698(%rax),%rsi
    69d2:	48 29 fe             	sub    %rdi,%rsi
    69d5:	48 03 b8 90 06 00 00 	add    0x690(%rax),%rdi
    69dc:	e8 5f ec ff ff       	callq  5640 <mprotect@plt>
    69e1:	85 c0                	test   %eax,%eax
    69e3:	74 cb                	je     69b0 <__make_stacks_executable+0x40>
    69e5:	48 8b 05 94 15 21 00 	mov    0x211594(%rip),%rax        # 217f80 <_DYNAMIC+0x1f0>
    69ec:	64 8b 10             	mov    %fs:(%rax),%edx
    69ef:	85 d2                	test   %edx,%edx
    69f1:	74 bd                	je     69b0 <__make_stacks_executable+0x40>
    69f3:	f0 ff 0d b6 58 21 00 	lock decl 0x2158b6(%rip)        # 21c2b0 <stack_cache_lock>
    69fa:	0f 85 af 13 00 00    	jne    7daf <_L_unlock_1057>
    6a00:	5b                   	pop    %rbx
    6a01:	89 d0                	mov    %edx,%eax
    6a03:	41 5c                	pop    %r12
    6a05:	c9                   	leaveq 
    6a06:	c3                   	retq   
    6a07:	66 0f 1f 84 00 00 00 	nopw   0x0(%rax,%rax,1)
    6a0e:	00 00 
    6a10:	48 8b 1d 39 18 21 00 	mov    0x211839(%rip),%rbx        # 218250 <stack_cache>
    6a17:	4c 8d 25 32 18 21 00 	lea    0x211832(%rip),%r12        # 218250 <stack_cache>
    6a1e:	4c 39 e3             	cmp    %r12,%rbx
    6a21:	75 0d                	jne    6a30 <__make_stacks_executable+0xc0>
    6a23:	eb 4e                	jmp    6a73 <__make_stacks_executable+0x103>
    6a25:	0f 1f 00             	nopl   (%rax)
    6a28:	48 8b 1b             	mov    (%rbx),%rbx
    6a2b:	4c 39 e3             	cmp    %r12,%rbx
    6a2e:	74 43                	je     6a73 <__make_stacks_executable+0x103>
    6a30:	48 8d 83 40 fd ff ff 	lea    -0x2c0(%rbx),%rax
    6a37:	ba 07 00 00 00       	mov    $0x7,%edx
    6a3c:	48 8b b8 a0 06 00 00 	mov    0x6a0(%rax),%rdi
    6a43:	48 8b b0 98 06 00 00 	mov    0x698(%rax),%rsi
    6a4a:	48 29 fe             	sub    %rdi,%rsi
    6a4d:	48 03 b8 90 06 00 00 	add    0x690(%rax),%rdi
    6a54:	e8 e7 eb ff ff       	callq  5640 <mprotect@plt>
    6a59:	85 c0                	test   %eax,%eax
    6a5b:	74 cb                	je     6a28 <__make_stacks_executable+0xb8>
    6a5d:	48 8b 05 1c 15 21 00 	mov    0x21151c(%rip),%rax        # 217f80 <_DYNAMIC+0x1f0>
    6a64:	64 8b 10             	mov    %fs:(%rax),%edx
    6a67:	85 d2                	test   %edx,%edx
    6a69:	75 88                	jne    69f3 <__make_stacks_executable+0x83>
    6a6b:	48 8b 1b             	mov    (%rbx),%rbx
    6a6e:	4c 39 e3             	cmp    %r12,%rbx
    6a71:	75 bd                	jne    6a30 <__make_stacks_executable+0xc0>
    6a73:	31 d2                	xor    %edx,%edx
    6a75:	e9 79 ff ff ff       	jmpq   69f3 <__make_stacks_executable+0x83>
    6a7a:	66 0f 1f 44 00 00    	nopw   0x0(%rax,%rax,1)

0000000000006a80 <__free_stacks>:
    6a80:	55                   	push   %rbp
    6a81:	48 8b 05 d0 17 21 00 	mov    0x2117d0(%rip),%rax        # 218258 <stack_cache+0x8>
    6a88:	48 89 e5             	mov    %rsp,%rbp
    6a8b:	41 56                	push   %r14
    6a8d:	41 55                	push   %r13
    6a8f:	49 89 fd             	mov    %rdi,%r13
    6a92:	41 54                	push   %r12
    6a94:	4c 8d 25 b5 17 21 00 	lea    0x2117b5(%rip),%r12        # 218250 <stack_cache>
    6a9b:	4c 39 e0             	cmp    %r12,%rax
    6a9e:	53                   	push   %rbx
    6a9f:	48 8b 58 08          	mov    0x8(%rax),%rbx
    6aa3:	75 1a                	jne    6abf <__free_stacks+0x3f>
    6aa5:	e9 86 00 00 00       	jmpq   6b30 <__free_stacks+0xb0>
    6aaa:	66 0f 1f 44 00 00    	nopw   0x0(%rax,%rax,1)
    6ab0:	4c 39 e3             	cmp    %r12,%rbx
    6ab3:	48 8b 53 08          	mov    0x8(%rbx),%rdx
    6ab7:	48 89 d8             	mov    %rbx,%rax
    6aba:	74 74                	je     6b30 <__free_stacks+0xb0>
    6abc:	48 89 d3             	mov    %rdx,%rbx
    6abf:	4c 8d b0 40 fd ff ff 	lea    -0x2c0(%rax),%r14
    6ac6:	41 8b 8e d0 02 00 00 	mov    0x2d0(%r14),%ecx
    6acd:	85 c9                	test   %ecx,%ecx
    6acf:	7f df                	jg     6ab0 <__free_stacks+0x30>
    6ad1:	48 89 05 f8 57 21 00 	mov    %rax,0x2157f8(%rip)        # 21c2d0 <in_flight_stack>
    6ad8:	48 8b 10             	mov    (%rax),%rdx
    6adb:	48 8b 48 08          	mov    0x8(%rax),%rcx
    6adf:	48 89 4a 08          	mov    %rcx,0x8(%rdx)
    6ae3:	48 8b 40 08          	mov    0x8(%rax),%rax
    6ae7:	48 89 10             	mov    %rdx,(%rax)
    6aea:	31 f6                	xor    %esi,%esi
    6aec:	4c 89 f7             	mov    %r14,%rdi
    6aef:	49 8b 86 98 06 00 00 	mov    0x698(%r14),%rax
    6af6:	48 c7 05 cf 57 21 00 	movq   $0x0,0x2157cf(%rip)        # 21c2d0 <in_flight_stack>
    6afd:	00 00 00 00 
    6b01:	48 29 05 c0 57 21 00 	sub    %rax,0x2157c0(%rip)        # 21c2c8 <stack_cache_actsize>
    6b08:	e8 33 e9 ff ff       	callq  5440 <_dl_deallocate_tls@plt>
    6b0d:	49 8b b6 98 06 00 00 	mov    0x698(%r14),%rsi
    6b14:	49 8b be 90 06 00 00 	mov    0x690(%r14),%rdi
    6b1b:	e8 c0 ea ff ff       	callq  55e0 <munmap@plt>
    6b20:	85 c0                	test   %eax,%eax
    6b22:	75 15                	jne    6b39 <__free_stacks+0xb9>
    6b24:	4c 39 2d 9d 57 21 00 	cmp    %r13,0x21579d(%rip)        # 21c2c8 <stack_cache_actsize>
    6b2b:	77 83                	ja     6ab0 <__free_stacks+0x30>
    6b2d:	0f 1f 00             	nopl   (%rax)
    6b30:	5b                   	pop    %rbx
    6b31:	41 5c                	pop    %r12
    6b33:	41 5d                	pop    %r13
    6b35:	41 5e                	pop    %r14
    6b37:	c9                   	leaveq 
    6b38:	c3                   	retq   
    6b39:	e8 c2 e7 ff ff       	callq  5300 <abort@plt>
    6b3e:	66 90                	xchg   %ax,%ax

0000000000006b40 <__deallocate_stack>:
    6b40:	55                   	push   %rbp
    6b41:	48 89 fa             	mov    %rdi,%rdx
    6b44:	be 01 00 00 00       	mov    $0x1,%esi
    6b49:	31 c0                	xor    %eax,%eax
    6b4b:	48 89 e5             	mov    %rsp,%rbp
    6b4e:	53                   	push   %rbx
    6b4f:	48 83 ec 08          	sub    $0x8,%rsp
    6b53:	f0 0f b1 35 55 57 21 	lock cmpxchg %esi,0x215755(%rip)        # 21c2b0 <stack_cache_lock>
    6b5a:	00 
    6b5b:	0f 85 6d 12 00 00    	jne    7dce <_L_lock_1190>
    6b61:	48 8d 82 c0 02 00 00 	lea    0x2c0(%rdx),%rax
    6b68:	48 89 05 61 57 21 00 	mov    %rax,0x215761(%rip)        # 21c2d0 <in_flight_stack>
    6b6f:	48 8b 8a c0 02 00 00 	mov    0x2c0(%rdx),%rcx
    6b76:	48 8b b2 c8 02 00 00 	mov    0x2c8(%rdx),%rsi
    6b7d:	48 89 71 08          	mov    %rsi,0x8(%rcx)
    6b81:	48 8b b2 c8 02 00 00 	mov    0x2c8(%rdx),%rsi
    6b88:	48 89 0e             	mov    %rcx,(%rsi)
    6b8b:	80 ba 12 06 00 00 00 	cmpb   $0x0,0x612(%rdx)
    6b92:	48 c7 05 33 57 21 00 	movq   $0x0,0x215733(%rip)        # 21c2d0 <in_flight_stack>
    6b99:	00 00 00 00 
    6b9d:	75 71                	jne    6c10 <__deallocate_stack+0xd0>
    6b9f:	48 89 c1             	mov    %rax,%rcx
    6ba2:	48 83 c9 01          	or     $0x1,%rcx
    6ba6:	48 89 0d 23 57 21 00 	mov    %rcx,0x215723(%rip)        # 21c2d0 <in_flight_stack>
    6bad:	48 8b 0d 9c 16 21 00 	mov    0x21169c(%rip),%rcx        # 218250 <stack_cache>
    6bb4:	48 8d 1d 95 16 21 00 	lea    0x211695(%rip),%rbx        # 218250 <stack_cache>
    6bbb:	48 89 9a c8 02 00 00 	mov    %rbx,0x2c8(%rdx)
    6bc2:	48 89 8a c0 02 00 00 	mov    %rcx,0x2c0(%rdx)
    6bc9:	48 89 41 08          	mov    %rax,0x8(%rcx)
    6bcd:	48 89 05 7c 16 21 00 	mov    %rax,0x21167c(%rip)        # 218250 <stack_cache>
    6bd4:	48 8b 05 ed 56 21 00 	mov    0x2156ed(%rip),%rax        # 21c2c8 <stack_cache_actsize>
    6bdb:	48 03 82 98 06 00 00 	add    0x698(%rdx),%rax
    6be2:	48 c7 05 e3 56 21 00 	movq   $0x0,0x2156e3(%rip)        # 21c2d0 <in_flight_stack>
    6be9:	00 00 00 00 
    6bed:	48 3d 00 00 80 02    	cmp    $0x2800000,%rax
    6bf3:	48 89 05 ce 56 21 00 	mov    %rax,0x2156ce(%rip)        # 21c2c8 <stack_cache_actsize>
    6bfa:	77 20                	ja     6c1c <__deallocate_stack+0xdc>
    6bfc:	f0 ff 0d ad 56 21 00 	lock decl 0x2156ad(%rip)        # 21c2b0 <stack_cache_lock>
    6c03:	0f 85 e4 11 00 00    	jne    7ded <_L_unlock_1225>
    6c09:	48 83 c4 08          	add    $0x8,%rsp
    6c0d:	5b                   	pop    %rbx
    6c0e:	c9                   	leaveq 
    6c0f:	c3                   	retq   
    6c10:	31 f6                	xor    %esi,%esi
    6c12:	48 89 d7             	mov    %rdx,%rdi
    6c15:	e8 26 e8 ff ff       	callq  5440 <_dl_deallocate_tls@plt>
    6c1a:	eb e0                	jmp    6bfc <__deallocate_stack+0xbc>
    6c1c:	bf 00 00 80 02       	mov    $0x2800000,%edi
    6c21:	e8 5a fe ff ff       	callq  6a80 <__free_stacks>
    6c26:	eb d4                	jmp    6bfc <__deallocate_stack+0xbc>
    6c28:	0f 1f 84 00 00 00 00 	nopl   0x0(%rax,%rax,1)
    6c2f:	00 

0000000000006c30 <__free_tcb>:
    6c30:	55                   	push   %rbp
    6c31:	48 89 e5             	mov    %rsp,%rbp
    6c34:	53                   	push   %rbx
    6c35:	48 89 fb             	mov    %rdi,%rbx
    6c38:	48 83 ec 08          	sub    $0x8,%rsp
    6c3c:	f0 0f ba af 08 03 00 	lock btsl $0x5,0x308(%rdi)
    6c43:	00 05 
    6c45:	0f 92 c0             	setb   %al
    6c48:	84 c0                	test   %al,%al
    6c4a:	75 1a                	jne    6c66 <__free_tcb+0x36>
    6c4c:	48 8b bf b0 06 00 00 	mov    0x6b0(%rdi),%rdi
    6c53:	48 85 ff             	test   %rdi,%rdi
    6c56:	75 12                	jne    6c6a <__free_tcb+0x3a>
    6c58:	48 83 c4 08          	add    $0x8,%rsp
    6c5c:	48 89 df             	mov    %rbx,%rdi
    6c5f:	5b                   	pop    %rbx
    6c60:	c9                   	leaveq 
    6c61:	e9 da fe ff ff       	jmpq   6b40 <__deallocate_stack>
    6c66:	5b                   	pop    %rbx
    6c67:	5b                   	pop    %rbx
    6c68:	c9                   	leaveq 
    6c69:	c3                   	retq   
    6c6a:	48 c7 83 b0 06 00 00 	movq   $0x0,0x6b0(%rbx)
    6c71:	00 00 00 00 
    6c75:	e8 76 e6 ff ff       	callq  52f0 <free@plt>
    6c7a:	eb dc                	jmp    6c58 <__free_tcb+0x28>
    6c7c:	0f 1f 40 00          	nopl   0x0(%rax)

0000000000006c80 <start_thread>:
    6c80:	55                   	push   %rbp
    6c81:	48 89 e5             	mov    %rsp,%rbp
    6c84:	53                   	push   %rbx
    6c85:	48 81 ec 08 01 00 00 	sub    $0x108,%rsp
    6c8c:	48 89 bd f8 fe ff ff 	mov    %rdi,-0x108(%rbp)
    6c93:	0f 31                	rdtsc  
    6c95:	48 c1 e2 20          	shl    $0x20,%rdx
    6c99:	89 c0                	mov    %eax,%eax
    6c9b:	48 09 c2             	or     %rax,%rdx
    6c9e:	64 48 89 14 25 20 06 	mov    %rdx,%fs:0x620
    6ca5:	00 00 
    6ca7:	48 8b 05 ea 12 21 00 	mov    0x2112ea(%rip),%rax        # 217f98 <_DYNAMIC+0x208>
    6cae:	48 89 fa             	mov    %rdi,%rdx
    6cb1:	48 81 c2 b8 06 00 00 	add    $0x6b8,%rdx
    6cb8:	64 48 89 10          	mov    %rdx,%fs:(%rax)
    6cbc:	e8 cf e8 ff ff       	callq  5590 <__ctype_init@plt>
    6cc1:	31 c0                	xor    %eax,%eax
    6cc3:	48 8b 95 f8 fe ff ff 	mov    -0x108(%rbp),%rdx
    6cca:	87 82 1c 06 00 00    	xchg   %eax,0x61c(%rdx)
    6cd0:	83 f8 fe             	cmp    $0xfffffffe,%eax
    6cd3:	0f 84 55 02 00 00    	je     6f2e <start_thread+0x2ae>
    6cd9:	8b 3d 59 56 21 00    	mov    0x215659(%rip),%edi        # 21c338 <__set_robust_list_avail>
    6cdf:	85 ff                	test   %edi,%edi
    6ce1:	78 1a                	js     6cfd <start_thread+0x7d>
    6ce3:	48 8b bd f8 fe ff ff 	mov    -0x108(%rbp),%rdi
    6cea:	be 18 00 00 00       	mov    $0x18,%esi
    6cef:	b8 11 01 00 00       	mov    $0x111,%eax
    6cf4:	48 81 c7 e0 02 00 00 	add    $0x2e0,%rdi
    6cfb:	0f 05                	syscall 
    6cfd:	48 8b 8d f8 fe ff ff 	mov    -0x108(%rbp),%rcx
    6d04:	f6 81 14 06 00 00 04 	testb  $0x4,0x614(%rcx)
    6d0b:	0f 85 e5 01 00 00    	jne    6ef6 <start_thread+0x276>
    6d11:	48 8d 7d 80          	lea    -0x80(%rbp),%rdi
    6d15:	48 c7 45 c8 00 00 00 	movq   $0x0,-0x38(%rbp)
    6d1c:	00 
    6d1d:	48 c7 45 d0 00 00 00 	movq   $0x0,-0x30(%rbp)
    6d24:	00 
    6d25:	e8 46 e7 ff ff       	callq  5470 <_setjmp@plt>
    6d2a:	85 c0                	test   %eax,%eax
    6d2c:	89 c3                	mov    %eax,%ebx
    6d2e:	75 3b                	jne    6d6b <start_thread+0xeb>
    6d30:	48 8d 45 80          	lea    -0x80(%rbp),%rax
    6d34:	64 48 89 04 25 00 03 	mov    %rax,%fs:0x300
    6d3b:	00 00 
    6d3d:	48 8b 85 f8 fe ff ff 	mov    -0x108(%rbp),%rax
    6d44:	80 b8 13 06 00 00 00 	cmpb   $0x0,0x613(%rax)
    6d4b:	0f 85 56 02 00 00    	jne    6fa7 <start_thread+0x327>
    6d51:	64 48 8b 3c 25 48 06 	mov    %fs:0x648,%rdi
    6d58:	00 00 
    6d5a:	64 ff 14 25 40 06 00 	callq  *%fs:0x640
    6d61:	00 
    6d62:	64 48 89 04 25 30 06 	mov    %rax,%fs:0x630
    6d69:	00 00 
    6d6b:	e8 90 f4 ff ff       	callq  6200 <__nptl_deallocate_tsd>
    6d70:	e8 5b e7 ff ff       	callq  54d0 <__libc_thread_freeres@plt>
    6d75:	f0 ff 0d bc 14 21 00 	lock decl 0x2114bc(%rip)        # 218238 <__nptl_nthreads>
    6d7c:	0f 94 c0             	sete   %al
    6d7f:	84 c0                	test   %al,%al
    6d81:	0f 85 19 02 00 00    	jne    6fa0 <start_thread+0x320>
    6d87:	48 8b b5 f8 fe ff ff 	mov    -0x108(%rbp),%rsi
    6d8e:	80 be 11 06 00 00 00 	cmpb   $0x0,0x611(%rsi)
    6d95:	0f 85 dc 01 00 00    	jne    6f77 <start_thread+0x2f7>
    6d9b:	48 8b 85 f8 fe ff ff 	mov    -0x108(%rbp),%rax
    6da2:	f0 83 88 08 03 00 00 	lock orl $0x10,0x308(%rax)
    6da9:	10 
    6daa:	8b 35 88 55 21 00    	mov    0x215588(%rip),%esi        # 21c338 <__set_robust_list_avail>
    6db0:	4c 8b 80 e0 02 00 00 	mov    0x2e0(%rax),%r8
    6db7:	85 f6                	test   %esi,%esi
    6db9:	0f 88 99 00 00 00    	js     6e58 <start_thread+0x1d8>
    6dbf:	e8 7c e7 ff ff       	callq  5540 <__getpagesize@plt>
    6dc4:	48 8b 95 f8 fe ff ff 	mov    -0x108(%rbp),%rdx
    6dcb:	8d 70 ff             	lea    -0x1(%rax),%esi
    6dce:	48 89 e0             	mov    %rsp,%rax
    6dd1:	48 63 f6             	movslq %esi,%rsi
    6dd4:	48 8b ba 90 06 00 00 	mov    0x690(%rdx),%rdi
    6ddb:	48 f7 d6             	not    %rsi
    6dde:	48 29 f8             	sub    %rdi,%rax
    6de1:	48 21 c6             	and    %rax,%rsi
    6de4:	48 3b b2 98 06 00 00 	cmp    0x698(%rdx),%rsi
    6deb:	0f 83 67 01 00 00    	jae    6f58 <start_thread+0x2d8>
    6df1:	48 81 fe 00 40 00 00 	cmp    $0x4000,%rsi
    6df8:	77 46                	ja     6e40 <start_thread+0x1c0>
    6dfa:	48 8b 8d f8 fe ff ff 	mov    -0x108(%rbp),%rcx
    6e01:	48 39 89 28 06 00 00 	cmp    %rcx,0x628(%rcx)
    6e08:	0f 84 9a 00 00 00    	je     6ea8 <start_thread+0x228>
    6e0e:	48 8b 9d f8 fe ff ff 	mov    -0x108(%rbp),%rbx
    6e15:	f6 83 08 03 00 00 40 	testb  $0x40,0x308(%rbx)
    6e1c:	0f 85 93 00 00 00    	jne    6eb5 <start_thread+0x235>
    6e22:	31 ff                	xor    %edi,%edi
    6e24:	b8 3c 00 00 00       	mov    $0x3c,%eax
    6e29:	0f 05                	syscall 
    6e2b:	48 81 c4 08 01 00 00 	add    $0x108,%rsp
    6e32:	30 c0                	xor    %al,%al
    6e34:	5b                   	pop    %rbx
    6e35:	c9                   	leaveq 
    6e36:	c3                   	retq   
    6e37:	66 0f 1f 84 00 00 00 	nopw   0x0(%rax,%rax,1)
    6e3e:	00 00 
    6e40:	48 81 ee 00 40 00 00 	sub    $0x4000,%rsi
    6e47:	ba 04 00 00 00       	mov    $0x4,%edx
    6e4c:	e8 cf e7 ff ff       	callq  5620 <__madvise@plt>
    6e51:	eb a7                	jmp    6dfa <start_thread+0x17a>
    6e53:	0f 1f 44 00 00       	nopl   0x0(%rax,%rax,1)
    6e58:	49 89 c1             	mov    %rax,%r9
    6e5b:	49 81 c1 e0 02 00 00 	add    $0x2e0,%r9
    6e62:	4d 39 c8             	cmp    %r9,%r8
    6e65:	0f 84 54 ff ff ff    	je     6dbf <start_thread+0x13f>
    6e6b:	ba 01 00 00 00       	mov    $0x1,%edx
    6e70:	41 ba ca 00 00 00    	mov    $0xca,%r10d
    6e76:	49 8d 78 e0          	lea    -0x20(%r8),%rdi
    6e7a:	44 89 d0             	mov    %r10d,%eax
    6e7d:	4d 8b 00             	mov    (%r8),%r8
    6e80:	89 d6                	mov    %edx,%esi
    6e82:	48 c7 47 18 00 00 00 	movq   $0x0,0x18(%rdi)
    6e89:	00 
    6e8a:	48 c7 47 20 00 00 00 	movq   $0x0,0x20(%rdi)
    6e91:	00 
    6e92:	f0 81 0f 00 00 00 40 	lock orl $0x40000000,(%rdi)
    6e99:	0f 05                	syscall 
    6e9b:	4d 39 c1             	cmp    %r8,%r9
    6e9e:	75 d6                	jne    6e76 <start_thread+0x1f6>
    6ea0:	e9 1a ff ff ff       	jmpq   6dbf <start_thread+0x13f>
    6ea5:	0f 1f 00             	nopl   (%rax)
    6ea8:	48 89 cf             	mov    %rcx,%rdi
    6eab:	e8 80 fd ff ff       	callq  6c30 <__free_tcb>
    6eb0:	e9 6d ff ff ff       	jmpq   6e22 <start_thread+0x1a2>
    6eb5:	48 89 df             	mov    %rbx,%rdi
    6eb8:	41 b8 ca 00 00 00    	mov    $0xca,%r8d
    6ebe:	48 81 c7 1c 06 00 00 	add    $0x61c,%rdi
    6ec5:	45 31 d2             	xor    %r10d,%r10d
    6ec8:	31 d2                	xor    %edx,%edx
    6eca:	64 8b 34 25 48 00 00 	mov    %fs:0x48,%esi
    6ed1:	00 
    6ed2:	44 89 c0             	mov    %r8d,%eax
    6ed5:	0f 05                	syscall 
    6ed7:	48 8b b5 f8 fe ff ff 	mov    -0x108(%rbp),%rsi
    6ede:	f6 86 08 03 00 00 40 	testb  $0x40,0x308(%rsi)
    6ee5:	75 de                	jne    6ec5 <start_thread+0x245>
    6ee7:	c7 86 1c 06 00 00 00 	movl   $0x0,0x61c(%rsi)
    6eee:	00 00 00 
    6ef1:	e9 2c ff ff ff       	jmpq   6e22 <start_thread+0x1a2>
    6ef6:	48 8d b5 00 ff ff ff 	lea    -0x100(%rbp),%rsi
    6efd:	31 c0                	xor    %eax,%eax
    6eff:	b9 20 00 00 00       	mov    $0x20,%ecx
    6f04:	41 ba 08 00 00 00    	mov    $0x8,%r10d
    6f0a:	31 d2                	xor    %edx,%edx
    6f0c:	48 89 f7             	mov    %rsi,%rdi
    6f0f:	f3 ab                	rep stos %eax,%es:(%rdi)
    6f11:	b8 00 00 00 80       	mov    $0x80000000,%eax
    6f16:	bf 01 00 00 00       	mov    $0x1,%edi
    6f1b:	48 09 85 00 ff ff ff 	or     %rax,-0x100(%rbp)
    6f22:	b8 0e 00 00 00       	mov    $0xe,%eax
    6f27:	0f 05                	syscall 
    6f29:	e9 e3 fd ff ff       	jmpq   6d11 <start_thread+0x91>
    6f2e:	ba 01 00 00 00       	mov    $0x1,%edx
    6f33:	64 8b 34 25 48 00 00 	mov    %fs:0x48,%esi
    6f3a:	00 
    6f3b:	48 8b bd f8 fe ff ff 	mov    -0x108(%rbp),%rdi
    6f42:	83 ce 01             	or     $0x1,%esi
    6f45:	b8 ca 00 00 00       	mov    $0xca,%eax
    6f4a:	48 81 c7 1c 06 00 00 	add    $0x61c,%rdi
    6f51:	0f 05                	syscall 
    6f53:	e9 81 fd ff ff       	jmpq   6cd9 <start_thread+0x59>
    6f58:	48 8d 0d fa a7 00 00 	lea    0xa7fa(%rip),%rcx        # 11759 <__PRETTY_FUNCTION__.12800>
    6f5f:	48 8d 35 7e a7 00 00 	lea    0xa77e(%rip),%rsi        # 116e4 <banner+0x144>
    6f66:	48 8d 3d 0b a8 00 00 	lea    0xa80b(%rip),%rdi        # 11778 <__PRETTY_FUNCTION__.11806+0x12>
    6f6d:	ba 90 01 00 00       	mov    $0x190,%edx
    6f72:	e8 69 e4 ff ff       	callq  53e0 <__assert_fail@plt>
    6f77:	8b 86 50 06 00 00    	mov    0x650(%rsi),%eax
    6f7d:	0b 05 31 53 21 00    	or     0x215331(%rip),%eax        # 21c2b4 <__nptl_threads_events>
    6f83:	f6 c4 01             	test   $0x1,%ah
    6f86:	0f 84 0f fe ff ff    	je     6d9b <start_thread+0x11b>
    6f8c:	48 83 be 68 06 00 00 	cmpq   $0x0,0x668(%rsi)
    6f93:	00 
    6f94:	74 4d                	je     6fe3 <start_thread+0x363>
    6f96:	e8 e5 ed ff ff       	callq  5d80 <__GI___nptl_death_event>
    6f9b:	e9 fb fd ff ff       	jmpq   6d9b <start_thread+0x11b>
    6fa0:	31 ff                	xor    %edi,%edi
    6fa2:	e8 19 e7 ff ff       	callq  56c0 <exit@plt>
    6fa7:	e8 34 73 00 00       	callq  e2e0 <__pthread_enable_asynccancel>
    6fac:	be 01 00 00 00       	mov    $0x1,%esi
    6fb1:	89 c2                	mov    %eax,%edx
    6fb3:	89 d8                	mov    %ebx,%eax
    6fb5:	48 8b 9d f8 fe ff ff 	mov    -0x108(%rbp),%rbx
    6fbc:	f0 0f b1 b3 18 06 00 	lock cmpxchg %esi,0x618(%rbx)
    6fc3:	00 
    6fc4:	0f 85 42 0e 00 00    	jne    7e0c <_L_lock_1534>
    6fca:	f0 ff 8b 18 06 00 00 	lock decl 0x618(%rbx)
    6fd1:	0f 85 54 0e 00 00    	jne    7e2b <_L_unlock_1535>
    6fd7:	89 d7                	mov    %edx,%edi
    6fd9:	e8 62 73 00 00       	callq  e340 <__pthread_disable_asynccancel>
    6fde:	e9 6e fd ff ff       	jmpq   6d51 <start_thread+0xd1>
    6fe3:	c7 86 58 06 00 00 09 	movl   $0x9,0x658(%rsi)
    6fea:	00 00 00 
    6fed:	48 89 b6 60 06 00 00 	mov    %rsi,0x660(%rsi)
    6ff4:	48 89 f2             	mov    %rsi,%rdx
    6ff7:	48 8b 05 c2 52 21 00 	mov    0x2152c2(%rip),%rax        # 21c2c0 <__nptl_last_event>
    6ffe:	48 8b bd f8 fe ff ff 	mov    -0x108(%rbp),%rdi
    7005:	48 89 87 68 06 00 00 	mov    %rax,0x668(%rdi)
    700c:	f0 48 0f b1 15 ab 52 	lock cmpxchg %rdx,0x2152ab(%rip)        # 21c2c0 <__nptl_last_event>
    7013:	21 00 
    7015:	75 e0                	jne    6ff7 <start_thread+0x377>
    7017:	e9 7a ff ff ff       	jmpq   6f96 <start_thread+0x316>
    701c:	0f 1f 40 00          	nopl   0x0(%rax)

0000000000007020 <T.141>:
    7020:	55                   	push   %rbp
    7021:	49 89 d2             	mov    %rdx,%r10
    7024:	48 89 e5             	mov    %rsp,%rbp
    7027:	48 89 5d e8          	mov    %rbx,-0x18(%rbp)
    702b:	4c 89 65 f0          	mov    %r12,-0x10(%rbp)
    702f:	48 89 fb             	mov    %rdi,%rbx
    7032:	4c 89 6d f8          	mov    %r13,-0x8(%rbp)
    7036:	48 83 ec 30          	sub    $0x30,%rsp
    703a:	85 c9                	test   %ecx,%ecx
    703c:	49 89 f5             	mov    %rsi,%r13
    703f:	41 89 cc             	mov    %ecx,%r12d
    7042:	75 58                	jne    709c <T.141+0x7c>
    7044:	f0 ff 05 ed 11 21 00 	lock incl 0x2111ed(%rip)        # 218238 <__nptl_nthreads>
    704b:	48 8d 3d 2e fc ff ff 	lea    -0x3d2(%rip),%rdi        # 6c80 <start_thread>
    7052:	4c 8d 83 d0 02 00 00 	lea    0x2d0(%rbx),%r8
    7059:	31 c0                	xor    %eax,%eax
    705b:	49 89 d9             	mov    %rbx,%r9
    705e:	48 89 d9             	mov    %rbx,%rcx
    7061:	ba 00 0f 3d 00       	mov    $0x3d0f00,%edx
    7066:	4c 89 d6             	mov    %r10,%rsi
    7069:	4c 89 04 24          	mov    %r8,(%rsp)
    706d:	e8 6e e2 ff ff       	callq  52e0 <__clone@plt>
    7072:	83 f8 ff             	cmp    $0xffffffff,%eax
    7075:	0f 84 bd 00 00 00    	je     7138 <T.141+0x118>
    707b:	45 85 e4             	test   %r12d,%r12d
    707e:	75 33                	jne    70b3 <T.141+0x93>
    7080:	64 c7 04 25 18 00 00 	movl   $0x1,%fs:0x18
    7087:	00 01 00 00 00 
    708c:	31 c0                	xor    %eax,%eax
    708e:	48 8b 5d e8          	mov    -0x18(%rbp),%rbx
    7092:	4c 8b 65 f0          	mov    -0x10(%rbp),%r12
    7096:	4c 8b 6d f8          	mov    -0x8(%rbp),%r13
    709a:	c9                   	leaveq 
    709b:	c3                   	retq   
    709c:	be 01 00 00 00       	mov    $0x1,%esi
    70a1:	31 c0                	xor    %eax,%eax
    70a3:	f0 0f b1 b3 18 06 00 	lock cmpxchg %esi,0x618(%rbx)
    70aa:	00 
    70ab:	0f 85 99 0d 00 00    	jne    7e4a <_L_lock_1609>
    70b1:	eb 91                	jmp    7044 <T.141+0x24>
    70b3:	49 8b 55 28          	mov    0x28(%r13),%rdx
    70b7:	48 85 d2             	test   %rdx,%rdx
    70ba:	74 1c                	je     70d8 <T.141+0xb8>
    70bc:	49 8b 75 30          	mov    0x30(%r13),%rsi
    70c0:	48 63 bb d0 02 00 00 	movslq 0x2d0(%rbx),%rdi
    70c7:	b8 cb 00 00 00       	mov    $0xcb,%eax
    70cc:	0f 05                	syscall 
    70ce:	3d 00 f0 ff ff       	cmp    $0xfffff000,%eax
    70d3:	41 89 c0             	mov    %eax,%r8d
    70d6:	77 31                	ja     7109 <T.141+0xe9>
    70d8:	41 f6 45 08 02       	testb  $0x2,0x8(%r13)
    70dd:	74 a1                	je     7080 <T.141+0x60>
    70df:	48 63 b3 3c 06 00 00 	movslq 0x63c(%rbx),%rsi
    70e6:	48 63 bb d0 02 00 00 	movslq 0x2d0(%rbx),%rdi
    70ed:	48 8d 93 38 06 00 00 	lea    0x638(%rbx),%rdx
    70f4:	b8 90 00 00 00       	mov    $0x90,%eax
    70f9:	0f 05                	syscall 
    70fb:	3d 00 f0 ff ff       	cmp    $0xfffff000,%eax
    7100:	41 89 c0             	mov    %eax,%r8d
    7103:	0f 86 77 ff ff ff    	jbe    7080 <T.141+0x60>
    7109:	48 63 b3 d0 02 00 00 	movslq 0x2d0(%rbx),%rsi
    7110:	64 8b 3c 25 d4 02 00 	mov    %fs:0x2d4,%edi
    7117:	00 
    7118:	ba 20 00 00 00       	mov    $0x20,%edx
    711d:	48 63 ff             	movslq %edi,%rdi
    7120:	b8 ea 00 00 00       	mov    $0xea,%eax
    7125:	0f 05                	syscall 
    7127:	44 89 c0             	mov    %r8d,%eax
    712a:	f7 d8                	neg    %eax
    712c:	e9 5d ff ff ff       	jmpq   708e <T.141+0x6e>
    7131:	0f 1f 80 00 00 00 00 	nopl   0x0(%rax)
    7138:	f0 ff 0d f9 10 21 00 	lock decl 0x2110f9(%rip)        # 218238 <__nptl_nthreads>
    713f:	31 c0                	xor    %eax,%eax
    7141:	87 83 1c 06 00 00    	xchg   %eax,0x61c(%rbx)
    7147:	83 f8 fe             	cmp    $0xfffffffe,%eax
    714a:	74 22                	je     716e <T.141+0x14e>
    714c:	48 89 df             	mov    %rbx,%rdi
    714f:	e8 ec f9 ff ff       	callq  6b40 <__deallocate_stack>
    7154:	48 8b 05 25 0e 21 00 	mov    0x210e25(%rip),%rax        # 217f80 <_DYNAMIC+0x1f0>
    715b:	ba 0b 00 00 00       	mov    $0xb,%edx
    7160:	64 8b 00             	mov    %fs:(%rax),%eax
    7163:	83 f8 0c             	cmp    $0xc,%eax
    7166:	0f 44 c2             	cmove  %edx,%eax
    7169:	e9 20 ff ff ff       	jmpq   708e <T.141+0x6e>
    716e:	ba 01 00 00 00       	mov    $0x1,%edx
    7173:	64 8b 34 25 48 00 00 	mov    %fs:0x48,%esi
    717a:	00 
    717b:	b8 ca 00 00 00       	mov    $0xca,%eax
    7180:	48 8d bb 1c 06 00 00 	lea    0x61c(%rbx),%rdi
    7187:	83 ce 01             	or     $0x1,%esi
    718a:	0f 05                	syscall 
    718c:	eb be                	jmp    714c <T.141+0x12c>
    718e:	66 90                	xchg   %ax,%ax

0000000000007190 <pthread_create@@GLIBC_2.2.5>:
    7190:	55                   	push   %rbp
    7191:	48 89 e5             	mov    %rsp,%rbp
    7194:	41 57                	push   %r15
    7196:	41 56                	push   %r14
    7198:	41 55                	push   %r13
    719a:	41 54                	push   %r12
    719c:	4c 8d 25 1d a8 00 00 	lea    0xa81d(%rip),%r12        # 119c0 <default_attr>
    71a3:	53                   	push   %rbx
    71a4:	48 83 ec 68          	sub    $0x68,%rsp
    71a8:	48 85 f6             	test   %rsi,%rsi
    71ab:	48 89 55 a0          	mov    %rdx,-0x60(%rbp)
    71af:	4c 0f 45 e6          	cmovne %rsi,%r12
    71b3:	48 89 7d a8          	mov    %rdi,-0x58(%rbp)
    71b7:	48 89 75 b8          	mov    %rsi,-0x48(%rbp)
    71bb:	48 89 4d 98          	mov    %rcx,-0x68(%rbp)
    71bf:	e8 7c e3 ff ff       	callq  5540 <__getpagesize@plt>
    71c4:	83 e8 01             	sub    $0x1,%eax
    71c7:	48 98                	cltq   
    71c9:	48 8d 50 01          	lea    0x1(%rax),%rdx
    71cd:	48 85 c2             	test   %rax,%rdx
    71d0:	0f 85 3c 04 00 00    	jne    7612 <pthread_create@@GLIBC_2.2.5+0x482>
    71d6:	49 8b 4c 24 20       	mov    0x20(%r12),%rcx
    71db:	48 8b 35 6e 51 21 00 	mov    0x21516e(%rip),%rsi        # 21c350 <__default_stacksize>
    71e2:	48 85 c9             	test   %rcx,%rcx
    71e5:	48 0f 45 f1          	cmovne %rcx,%rsi
    71e9:	41 f6 44 24 08 08    	testb  $0x8,0x8(%r12)
    71ef:	0f 85 ac 07 00 00    	jne    79a1 <pthread_create@@GLIBC_2.2.5+0x811>
    71f5:	4c 8b 3d cc 0d 21 00 	mov    0x210dcc(%rip),%r15        # 217fc8 <_DYNAMIC+0x238>
    71fc:	4c 8b 2d 2d 51 21 00 	mov    0x21512d(%rip),%r13        # 21c330 <__static_tls_align_m1>
    7203:	41 8b 8f 18 0f 00 00 	mov    0xf18(%r15),%ecx
    720a:	49 f7 d5             	not    %r13
    720d:	83 e1 01             	and    $0x1,%ecx
    7210:	83 f9 01             	cmp    $0x1,%ecx
    7213:	19 c9                	sbb    %ecx,%ecx
    7215:	83 e1 fc             	and    $0xfffffffc,%ecx
    7218:	83 c1 07             	add    $0x7,%ecx
    721b:	49 21 f5             	and    %rsi,%r13
    721e:	89 4d cc             	mov    %ecx,-0x34(%rbp)
    7221:	0f 84 5b 07 00 00    	je     7982 <pthread_create@@GLIBC_2.2.5+0x7f2>
    7227:	48 89 c3             	mov    %rax,%rbx
    722a:	49 03 5c 24 10       	add    0x10(%r12),%rbx
    722f:	48 89 c1             	mov    %rax,%rcx
    7232:	48 f7 d1             	not    %rcx
    7235:	48 21 cb             	and    %rcx,%rbx
    7238:	48 89 5d c0          	mov    %rbx,-0x40(%rbp)
    723c:	48 8b 1d fd 50 21 00 	mov    0x2150fd(%rip),%rbx        # 21c340 <__static_tls_size>
    7243:	48 8d 84 18 00 08 00 	lea    0x800(%rax,%rbx,1),%rax
    724a:	00 
    724b:	48 03 45 c0          	add    -0x40(%rbp),%rax
    724f:	48 21 c8             	and    %rcx,%rax
    7252:	49 39 c5             	cmp    %rax,%r13
    7255:	0f 82 1c 07 00 00    	jb     7977 <pthread_create@@GLIBC_2.2.5+0x7e7>
    725b:	be 01 00 00 00       	mov    $0x1,%esi
    7260:	31 c0                	xor    %eax,%eax
    7262:	f0 0f b1 35 46 50 21 	lock cmpxchg %esi,0x215046(%rip)        # 21c2b0 <stack_cache_lock>
    7269:	00 
    726a:	0f 85 f9 0b 00 00    	jne    7e69 <_L_lock_1752>
    7270:	48 8b 05 d9 0f 21 00 	mov    0x210fd9(%rip),%rax        # 218250 <stack_cache>
    7277:	48 8d 35 d2 0f 21 00 	lea    0x210fd2(%rip),%rsi        # 218250 <stack_cache>
    727e:	48 39 f0             	cmp    %rsi,%rax
    7281:	0f 84 3d 04 00 00    	je     76c4 <pthread_create@@GLIBC_2.2.5+0x534>
    7287:	31 c9                	xor    %ecx,%ecx
    7289:	eb 13                	jmp    729e <pthread_create@@GLIBC_2.2.5+0x10e>
    728b:	0f 1f 44 00 00       	nopl   0x0(%rax,%rax,1)
    7290:	48 89 cb             	mov    %rcx,%rbx
    7293:	48 8b 00             	mov    (%rax),%rax
    7296:	48 39 f0             	cmp    %rsi,%rax
    7299:	74 3d                	je     72d8 <pthread_create@@GLIBC_2.2.5+0x148>
    729b:	48 89 d9             	mov    %rbx,%rcx
    729e:	48 8d 98 40 fd ff ff 	lea    -0x2c0(%rax),%rbx
    72a5:	44 8b 83 d0 02 00 00 	mov    0x2d0(%rbx),%r8d
    72ac:	45 85 c0             	test   %r8d,%r8d
    72af:	7f df                	jg     7290 <pthread_create@@GLIBC_2.2.5+0x100>
    72b1:	48 8b bb 98 06 00 00 	mov    0x698(%rbx),%rdi
    72b8:	49 39 fd             	cmp    %rdi,%r13
    72bb:	77 d3                	ja     7290 <pthread_create@@GLIBC_2.2.5+0x100>
    72bd:	74 19                	je     72d8 <pthread_create@@GLIBC_2.2.5+0x148>
    72bf:	48 85 c9             	test   %rcx,%rcx
    72c2:	74 cf                	je     7293 <pthread_create@@GLIBC_2.2.5+0x103>
    72c4:	48 3b b9 98 06 00 00 	cmp    0x698(%rcx),%rdi
    72cb:	73 c3                	jae    7290 <pthread_create@@GLIBC_2.2.5+0x100>
    72cd:	48 8b 00             	mov    (%rax),%rax
    72d0:	48 39 f0             	cmp    %rsi,%rax
    72d3:	75 c6                	jne    729b <pthread_create@@GLIBC_2.2.5+0x10b>
    72d5:	0f 1f 00             	nopl   (%rax)
    72d8:	48 85 db             	test   %rbx,%rbx
    72db:	0f 84 e3 03 00 00    	je     76c4 <pthread_create@@GLIBC_2.2.5+0x534>
    72e1:	4a 8d 04 ad 00 00 00 	lea    0x0(,%r13,4),%rax
    72e8:	00 
    72e9:	48 39 83 98 06 00 00 	cmp    %rax,0x698(%rbx)
    72f0:	0f 87 ce 03 00 00    	ja     76c4 <pthread_create@@GLIBC_2.2.5+0x534>
    72f6:	4c 8d b3 c0 02 00 00 	lea    0x2c0(%rbx),%r14
    72fd:	c7 83 1c 06 00 00 ff 	movl   $0xffffffff,0x61c(%rbx)
    7304:	ff ff ff 
    7307:	4c 89 35 c2 4f 21 00 	mov    %r14,0x214fc2(%rip)        # 21c2d0 <in_flight_stack>
    730e:	48 8b 83 c0 02 00 00 	mov    0x2c0(%rbx),%rax
    7315:	48 8b 93 c8 02 00 00 	mov    0x2c8(%rbx),%rdx
    731c:	48 89 50 08          	mov    %rdx,0x8(%rax)
    7320:	48 8b 93 c8 02 00 00 	mov    0x2c8(%rbx),%rdx
    7327:	48 89 02             	mov    %rax,(%rdx)
    732a:	4c 89 f0             	mov    %r14,%rax
    732d:	48 83 c8 01          	or     $0x1,%rax
    7331:	48 89 05 98 4f 21 00 	mov    %rax,0x214f98(%rip)        # 21c2d0 <in_flight_stack>
    7338:	48 8b 05 01 0f 21 00 	mov    0x210f01(%rip),%rax        # 218240 <stack_used>
    733f:	48 8d 3d fa 0e 21 00 	lea    0x210efa(%rip),%rdi        # 218240 <stack_used>
    7346:	48 89 bb c8 02 00 00 	mov    %rdi,0x2c8(%rbx)
    734d:	48 89 83 c0 02 00 00 	mov    %rax,0x2c0(%rbx)
    7354:	48 8b 05 e5 0e 21 00 	mov    0x210ee5(%rip),%rax        # 218240 <stack_used>
    735b:	4c 89 70 08          	mov    %r14,0x8(%rax)
    735f:	4c 89 35 da 0e 21 00 	mov    %r14,0x210eda(%rip)        # 218240 <stack_used>
    7366:	48 c7 05 5f 4f 21 00 	movq   $0x0,0x214f5f(%rip)        # 21c2d0 <in_flight_stack>
    736d:	00 00 00 00 
    7371:	48 8b 83 98 06 00 00 	mov    0x698(%rbx),%rax
    7378:	48 29 05 49 4f 21 00 	sub    %rax,0x214f49(%rip)        # 21c2c8 <stack_cache_actsize>
    737f:	f0 ff 0d 2a 4f 21 00 	lock decl 0x214f2a(%rip)        # 21c2b0 <stack_cache_lock>
    7386:	0f 85 fc 0a 00 00    	jne    7e88 <_L_unlock_1831>
    738c:	48 8b 83 98 06 00 00 	mov    0x698(%rbx),%rax
    7393:	48 8b 93 90 06 00 00 	mov    0x690(%rbx),%rdx
    739a:	c7 83 08 03 00 00 00 	movl   $0x0,0x308(%rbx)
    73a1:	00 00 00 
    73a4:	48 c7 83 f8 02 00 00 	movq   $0x0,0x2f8(%rbx)
    73ab:	00 00 00 00 
    73af:	48 89 45 b0          	mov    %rax,-0x50(%rbp)
    73b3:	48 89 95 78 ff ff ff 	mov    %rdx,-0x88(%rbp)
    73ba:	31 d2                	xor    %edx,%edx
    73bc:	48 c7 83 68 06 00 00 	movq   $0x0,0x668(%rbx)
    73c3:	00 00 00 00 
    73c7:	4c 8b 7b 08          	mov    0x8(%rbx),%r15
    73cb:	49 8d 77 f0          	lea    -0x10(%r15),%rsi
    73cf:	4c 89 f8             	mov    %r15,%rax
    73d2:	49 8b 4f f0          	mov    -0x10(%r15),%rcx
    73d6:	4c 89 7d 90          	mov    %r15,-0x70(%rbp)
    73da:	4c 89 65 88          	mov    %r12,-0x78(%rbp)
    73de:	4d 89 ef             	mov    %r13,%r15
    73e1:	4c 89 75 80          	mov    %r14,-0x80(%rbp)
    73e5:	49 89 f5             	mov    %rsi,%r13
    73e8:	49 89 de             	mov    %rbx,%r14
    73eb:	49 89 d4             	mov    %rdx,%r12
    73ee:	48 89 c3             	mov    %rax,%rbx
    73f1:	eb 26                	jmp    7419 <pthread_create@@GLIBC_2.2.5+0x289>
    73f3:	0f 1f 44 00 00       	nopl   0x0(%rax,%rax,1)
    73f8:	49 83 c4 01          	add    $0x1,%r12
    73fc:	80 7b 18 00          	cmpb   $0x0,0x18(%rbx)
    7400:	75 13                	jne    7415 <pthread_create@@GLIBC_2.2.5+0x285>
    7402:	48 8b 7b 10          	mov    0x10(%rbx),%rdi
    7406:	48 83 ff ff          	cmp    $0xffffffffffffffff,%rdi
    740a:	74 09                	je     7415 <pthread_create@@GLIBC_2.2.5+0x285>
    740c:	e8 df de ff ff       	callq  52f0 <free@plt>
    7411:	49 8b 4d 00          	mov    0x0(%r13),%rcx
    7415:	48 83 c3 10          	add    $0x10,%rbx
    7419:	49 39 cc             	cmp    %rcx,%r12
    741c:	72 da                	jb     73f8 <pthread_create@@GLIBC_2.2.5+0x268>
    741e:	4d 89 fd             	mov    %r15,%r13
    7421:	4c 8b 7d 90          	mov    -0x70(%rbp),%r15
    7425:	48 8d 51 01          	lea    0x1(%rcx),%rdx
    7429:	4c 89 f3             	mov    %r14,%rbx
    742c:	31 f6                	xor    %esi,%esi
    742e:	4c 8b 65 88          	mov    -0x78(%rbp),%r12
    7432:	48 c1 e2 04          	shl    $0x4,%rdx
    7436:	4c 8b 75 80          	mov    -0x80(%rbp),%r14
    743a:	4c 89 ff             	mov    %r15,%rdi
    743d:	e8 ae df ff ff       	callq  53f0 <memset@plt>
    7442:	48 89 df             	mov    %rbx,%rdi
    7445:	e8 a6 e2 ff ff       	callq  56f0 <_dl_allocate_tls_init@plt>
    744a:	48 8b b3 a0 06 00 00 	mov    0x6a0(%rbx),%rsi
    7451:	48 39 75 c0          	cmp    %rsi,-0x40(%rbp)
    7455:	0f 87 9a 06 00 00    	ja     7af5 <pthread_create@@GLIBC_2.2.5+0x965>
    745b:	48 2b 75 c0          	sub    -0x40(%rbp),%rsi
    745f:	48 8b 4d b0          	mov    -0x50(%rbp),%rcx
    7463:	4c 29 e9             	sub    %r13,%rcx
    7466:	48 39 ce             	cmp    %rcx,%rsi
    7469:	0f 87 5b 06 00 00    	ja     7aca <pthread_create@@GLIBC_2.2.5+0x93a>
    746f:	48 8b 45 c0          	mov    -0x40(%rbp),%rax
    7473:	48 89 83 a8 06 00 00 	mov    %rax,0x6a8(%rbx)
    747a:	48 8d 83 e0 02 00 00 	lea    0x2e0(%rbx),%rax
    7481:	c7 83 18 06 00 00 00 	movl   $0x0,0x618(%rbx)
    7488:	00 00 00 
    748b:	48 c7 83 e8 02 00 00 	movq   $0xffffffffffffffe0,0x2e8(%rbx)
    7492:	e0 ff ff ff 
    7496:	48 c7 83 f0 02 00 00 	movq   $0x0,0x2f0(%rbx)
    749d:	00 00 00 00 
    74a1:	48 89 83 d8 02 00 00 	mov    %rax,0x2d8(%rbx)
    74a8:	48 89 83 e0 02 00 00 	mov    %rax,0x2e0(%rbx)
    74af:	48 89 d8             	mov    %rbx,%rax
    74b2:	48 2b 05 87 4e 21 00 	sub    0x214e87(%rip),%rax        # 21c340 <__static_tls_size>
    74b9:	48 8d 90 00 09 00 00 	lea    0x900(%rax),%rdx
    74c0:	48 89 5b 10          	mov    %rbx,0x10(%rbx)
    74c4:	48 89 1b             	mov    %rbx,(%rbx)
    74c7:	48 8b 4d a0          	mov    -0x60(%rbp),%rcx
    74cb:	41 8b 74 24 08       	mov    0x8(%r12),%esi
    74d0:	64 48 8b 04 25 10 00 	mov    %fs:0x10,%rax
    74d7:	00 00 
    74d9:	48 8b 7d 98          	mov    -0x68(%rbp),%rdi
    74dd:	48 89 8b 40 06 00 00 	mov    %rcx,0x640(%rbx)
    74e4:	8b 88 0c 03 00 00    	mov    0x30c(%rax),%ecx
    74ea:	83 e6 9f             	and    $0xffffff9f,%esi
    74ed:	48 89 bb 48 06 00 00 	mov    %rdi,0x648(%rbx)
    74f4:	83 e1 60             	and    $0x60,%ecx
    74f7:	09 f1                	or     %esi,%ecx
    74f9:	31 f6                	xor    %esi,%esi
    74fb:	89 8b 0c 03 00 00    	mov    %ecx,0x30c(%rbx)
    7501:	41 f6 44 24 08 01    	testb  $0x1,0x8(%r12)
    7507:	48 0f 45 f3          	cmovne %rbx,%rsi
    750b:	48 89 b3 28 06 00 00 	mov    %rsi,0x628(%rbx)
    7512:	48 8b b0 50 06 00 00 	mov    0x650(%rax),%rsi
    7519:	48 89 b3 50 06 00 00 	mov    %rsi,0x650(%rbx)
    7520:	48 8b b0 58 06 00 00 	mov    0x658(%rax),%rsi
    7527:	48 89 b3 58 06 00 00 	mov    %rsi,0x658(%rbx)
    752e:	48 8b b0 60 06 00 00 	mov    0x660(%rax),%rsi
    7535:	48 89 b3 60 06 00 00 	mov    %rsi,0x660(%rbx)
    753c:	8b b0 3c 06 00 00    	mov    0x63c(%rax),%esi
    7542:	8b 80 38 06 00 00    	mov    0x638(%rax),%eax
    7548:	89 b3 3c 06 00 00    	mov    %esi,0x63c(%rbx)
    754e:	89 83 38 06 00 00    	mov    %eax,0x638(%rbx)
    7554:	64 48 8b 04 25 28 00 	mov    %fs:0x28,%rax
    755b:	00 00 
    755d:	48 89 43 28          	mov    %rax,0x28(%rbx)
    7561:	64 48 8b 04 25 30 00 	mov    %fs:0x30,%rax
    7568:	00 00 
    756a:	48 89 43 30          	mov    %rax,0x30(%rbx)
    756e:	48 83 7d b8 00       	cmpq   $0x0,-0x48(%rbp)
    7573:	74 0d                	je     7582 <pthread_create@@GLIBC_2.2.5+0x3f2>
    7575:	41 8b 44 24 08       	mov    0x8(%r12),%eax
    757a:	a8 02                	test   $0x2,%al
    757c:	0f 85 9d 05 00 00    	jne    7b1f <pthread_create@@GLIBC_2.2.5+0x98f>
    7582:	48 8b 45 a8          	mov    -0x58(%rbp),%rax
    7586:	48 89 18             	mov    %rbx,(%rax)
    7589:	48 83 3b 00          	cmpq   $0x0,(%rbx)
    758d:	0f 84 12 01 00 00    	je     76a5 <pthread_create@@GLIBC_2.2.5+0x515>
    7593:	31 c0                	xor    %eax,%eax
    7595:	64 8a 04 25 11 06 00 	mov    %fs:0x611,%al
    759c:	00 
    759d:	84 c0                	test   %al,%al
    759f:	0f 85 8c 00 00 00    	jne    7631 <pthread_create@@GLIBC_2.2.5+0x4a1>
    75a5:	49 83 7c 24 28 00    	cmpq   $0x0,0x28(%r12)
    75ab:	74 56                	je     7603 <pthread_create@@GLIBC_2.2.5+0x473>
    75ad:	b9 01 00 00 00       	mov    $0x1,%ecx
    75b2:	41 bd 01 00 00 00    	mov    $0x1,%r13d
    75b8:	44 88 ab 13 06 00 00 	mov    %r13b,0x613(%rbx)
    75bf:	64 8b 04 25 08 03 00 	mov    %fs:0x308,%eax
    75c6:	00 
    75c7:	89 83 14 06 00 00    	mov    %eax,0x614(%rbx)
    75cd:	4c 89 e6             	mov    %r12,%rsi
    75d0:	48 89 df             	mov    %rbx,%rdi
    75d3:	e8 48 fa ff ff       	callq  7020 <T.141>
    75d8:	85 c0                	test   %eax,%eax
    75da:	41 89 c7             	mov    %eax,%r15d
    75dd:	75 12                	jne    75f1 <pthread_create@@GLIBC_2.2.5+0x461>
    75df:	45 84 ed             	test   %r13b,%r13b
    75e2:	74 0d                	je     75f1 <pthread_create@@GLIBC_2.2.5+0x461>
    75e4:	f0 ff 8b 18 06 00 00 	lock decl 0x618(%rbx)
    75eb:	0f 85 b6 08 00 00    	jne    7ea7 <_L_unlock_1989>
    75f1:	48 83 c4 68          	add    $0x68,%rsp
    75f5:	44 89 f8             	mov    %r15d,%eax
    75f8:	5b                   	pop    %rbx
    75f9:	41 5c                	pop    %r12
    75fb:	41 5d                	pop    %r13
    75fd:	41 5e                	pop    %r14
    75ff:	41 5f                	pop    %r15
    7601:	c9                   	leaveq 
    7602:	c3                   	retq   
    7603:	31 c9                	xor    %ecx,%ecx
    7605:	45 31 ed             	xor    %r13d,%r13d
    7608:	41 f6 44 24 08 02    	testb  $0x2,0x8(%r12)
    760e:	74 a8                	je     75b8 <pthread_create@@GLIBC_2.2.5+0x428>
    7610:	eb 9b                	jmp    75ad <pthread_create@@GLIBC_2.2.5+0x41d>
    7612:	48 8d 0d 23 a1 00 00 	lea    0xa123(%rip),%rcx        # 1173c <__PRETTY_FUNCTION__.11526>
    7619:	48 8d 35 9e a0 00 00 	lea    0xa09e(%rip),%rsi        # 116be <banner+0x11e>
    7620:	48 8d 3d 71 a1 00 00 	lea    0xa171(%rip),%rdi        # 11798 <__PRETTY_FUNCTION__.11806+0x32>
    7627:	ba 61 01 00 00       	mov    $0x161,%edx
    762c:	e8 af dd ff ff       	callq  53e0 <__assert_fail@plt>
    7631:	0f b6 0d 7c 4c 21 00 	movzbl 0x214c7c(%rip),%ecx        # 21c2b4 <__nptl_threads_events>
    7638:	8b 83 50 06 00 00    	mov    0x650(%rbx),%eax
    763e:	08 c1                	or     %al,%cl
    7640:	0f 89 5f ff ff ff    	jns    75a5 <pthread_create@@GLIBC_2.2.5+0x415>
    7646:	c6 83 13 06 00 00 01 	movb   $0x1,0x613(%rbx)
    764d:	b9 01 00 00 00       	mov    $0x1,%ecx
    7652:	4c 89 e6             	mov    %r12,%rsi
    7655:	48 89 df             	mov    %rbx,%rdi
    7658:	e8 c3 f9 ff ff       	callq  7020 <T.141>
    765d:	85 c0                	test   %eax,%eax
    765f:	41 89 c7             	mov    %eax,%r15d
    7662:	75 8d                	jne    75f1 <pthread_create@@GLIBC_2.2.5+0x461>
    7664:	c7 83 58 06 00 00 08 	movl   $0x8,0x658(%rbx)
    766b:	00 00 00 
    766e:	48 89 9b 60 06 00 00 	mov    %rbx,0x660(%rbx)
    7675:	48 8b 05 44 4c 21 00 	mov    0x214c44(%rip),%rax        # 21c2c0 <__nptl_last_event>
    767c:	48 89 83 68 06 00 00 	mov    %rax,0x668(%rbx)
    7683:	f0 48 0f b1 1d 34 4c 	lock cmpxchg %rbx,0x214c34(%rip)        # 21c2c0 <__nptl_last_event>
    768a:	21 00 
    768c:	75 e7                	jne    7675 <pthread_create@@GLIBC_2.2.5+0x4e5>
    768e:	e8 dd e6 ff ff       	callq  5d70 <__GI___nptl_create_event>
    7693:	f0 ff 8b 18 06 00 00 	lock decl 0x618(%rbx)
    769a:	0f 85 26 08 00 00    	jne    7ec6 <_L_unlock_2054>
    76a0:	e9 4c ff ff ff       	jmpq   75f1 <pthread_create@@GLIBC_2.2.5+0x461>
    76a5:	48 8d 0d 9f a0 00 00 	lea    0xa09f(%rip),%rcx        # 1174b <__PRETTY_FUNCTION__.12470>
    76ac:	48 8d 35 45 a1 00 00 	lea    0xa145(%rip),%rsi        # 117f8 <__PRETTY_FUNCTION__.11806+0x92>
    76b3:	48 8d 3d 64 a0 00 00 	lea    0xa064(%rip),%rdi        # 1171e <banner+0x17e>
    76ba:	ba 96 00 00 00       	mov    $0x96,%edx
    76bf:	e8 1c dd ff ff       	callq  53e0 <__assert_fail@plt>
    76c4:	f0 ff 0d e5 4b 21 00 	lock decl 0x214be5(%rip)        # 21c2b0 <stack_cache_lock>
    76cb:	0f 85 14 08 00 00    	jne    7ee5 <_L_unlock_2068>
    76d1:	49 8d 54 15 00       	lea    0x0(%r13,%rdx,1),%rdx
    76d6:	66 45 85 ed          	test   %r13w,%r13w
    76da:	b9 22 00 02 00       	mov    $0x20022,%ecx
    76df:	49 0f 45 d5          	cmovne %r13,%rdx
    76e3:	45 31 c9             	xor    %r9d,%r9d
    76e6:	41 83 c8 ff          	or     $0xffffffff,%r8d
    76ea:	48 89 55 b0          	mov    %rdx,-0x50(%rbp)
    76ee:	8b 55 cc             	mov    -0x34(%rbp),%edx
    76f1:	31 ff                	xor    %edi,%edi
    76f3:	48 8b 75 b0          	mov    -0x50(%rbp),%rsi
    76f7:	e8 c4 dc ff ff       	callq  53c0 <mmap@plt>
    76fc:	48 83 f8 ff          	cmp    $0xffffffffffffffff,%rax
    7700:	48 89 85 78 ff ff ff 	mov    %rax,-0x88(%rbp)
    7707:	0f 84 5a 02 00 00    	je     7967 <pthread_create@@GLIBC_2.2.5+0x7d7>
    770d:	48 83 bd 78 ff ff ff 	cmpq   $0x0,-0x88(%rbp)
    7714:	00 
    7715:	0f 84 a4 01 00 00    	je     78bf <pthread_create@@GLIBC_2.2.5+0x72f>
    771b:	48 8b bd 78 ff ff ff 	mov    -0x88(%rbp),%rdi
    7722:	48 8b 4d b0          	mov    -0x50(%rbp),%rcx
    7726:	48 8d 9c 0f 00 f7 ff 	lea    -0x900(%rdi,%rcx,1),%rbx
    772d:	ff 
    772e:	48 8d 83 10 03 00 00 	lea    0x310(%rbx),%rax
    7735:	c7 43 18 01 00 00 00 	movl   $0x1,0x18(%rbx)
    773c:	48 89 bb 90 06 00 00 	mov    %rdi,0x690(%rbx)
    7743:	48 89 8b 98 06 00 00 	mov    %rcx,0x698(%rbx)
    774a:	48 89 83 10 05 00 00 	mov    %rax,0x510(%rbx)
    7751:	48 8b 05 10 4c 21 00 	mov    0x214c10(%rip),%rax        # 21c368 <__libc_multiple_threads_ptr>
    7758:	c7 00 01 00 00 00    	movl   $0x1,(%rax)
    775e:	c7 05 f0 4b 21 00 01 	movl   $0x1,0x214bf0(%rip)        # 21c358 <__pthread_multiple_threads>
    7765:	00 00 00 
    7768:	64 8b 04 25 48 00 00 	mov    %fs:0x48,%eax
    776f:	00 
    7770:	89 43 48             	mov    %eax,0x48(%rbx)
    7773:	c7 83 1c 06 00 00 ff 	movl   $0xffffffff,0x61c(%rbx)
    777a:	ff ff ff 
    777d:	64 8b 04 25 d4 02 00 	mov    %fs:0x2d4,%eax
    7784:	00 
    7785:	89 83 d4 02 00 00    	mov    %eax,0x2d4(%rbx)
    778b:	48 89 df             	mov    %rbx,%rdi
    778e:	e8 cd de ff ff       	callq  5660 <_dl_allocate_tls@plt>
    7793:	48 85 c0             	test   %rax,%rax
    7796:	0f 84 f4 00 00 00    	je     7890 <pthread_create@@GLIBC_2.2.5+0x700>
    779c:	be 01 00 00 00       	mov    $0x1,%esi
    77a1:	31 c0                	xor    %eax,%eax
    77a3:	f0 0f b1 35 05 4b 21 	lock cmpxchg %esi,0x214b05(%rip)        # 21c2b0 <stack_cache_lock>
    77aa:	00 
    77ab:	0f 85 53 07 00 00    	jne    7f04 <_L_lock_2114>
    77b1:	4c 8d b3 c0 02 00 00 	lea    0x2c0(%rbx),%r14
    77b8:	4c 89 f0             	mov    %r14,%rax
    77bb:	48 83 c8 01          	or     $0x1,%rax
    77bf:	48 89 05 0a 4b 21 00 	mov    %rax,0x214b0a(%rip)        # 21c2d0 <in_flight_stack>
    77c6:	48 8b 05 73 0a 21 00 	mov    0x210a73(%rip),%rax        # 218240 <stack_used>
    77cd:	48 89 83 c0 02 00 00 	mov    %rax,0x2c0(%rbx)
    77d4:	48 8d 05 65 0a 21 00 	lea    0x210a65(%rip),%rax        # 218240 <stack_used>
    77db:	48 89 83 c8 02 00 00 	mov    %rax,0x2c8(%rbx)
    77e2:	48 8b 05 57 0a 21 00 	mov    0x210a57(%rip),%rax        # 218240 <stack_used>
    77e9:	4c 89 70 08          	mov    %r14,0x8(%rax)
    77ed:	4c 89 35 4c 0a 21 00 	mov    %r14,0x210a4c(%rip)        # 218240 <stack_used>
    77f4:	48 c7 05 d1 4a 21 00 	movq   $0x0,0x214ad1(%rip)        # 21c2d0 <in_flight_stack>
    77fb:	00 00 00 00 
    77ff:	f0 ff 0d aa 4a 21 00 	lock decl 0x214aaa(%rip)        # 21c2b0 <stack_cache_lock>
    7806:	0f 85 17 07 00 00    	jne    7f23 <_L_unlock_2130>
    780c:	41 f6 87 18 0f 00 00 	testb  $0x1,0xf18(%r15)
    7813:	01 
    7814:	0f 84 30 fc ff ff    	je     744a <pthread_create@@GLIBC_2.2.5+0x2ba>
    781a:	f6 45 cc 04          	testb  $0x4,-0x34(%rbp)
    781e:	0f 85 26 fc ff ff    	jne    744a <pthread_create@@GLIBC_2.2.5+0x2ba>
    7824:	48 8b bb a0 06 00 00 	mov    0x6a0(%rbx),%rdi
    782b:	48 8b b3 98 06 00 00 	mov    0x698(%rbx),%rsi
    7832:	ba 07 00 00 00       	mov    $0x7,%edx
    7837:	48 29 fe             	sub    %rdi,%rsi
    783a:	48 03 bb 90 06 00 00 	add    0x690(%rbx),%rdi
    7841:	e8 fa dd ff ff       	callq  5640 <mprotect@plt>
    7846:	85 c0                	test   %eax,%eax
    7848:	0f 84 fc fb ff ff    	je     744a <pthread_create@@GLIBC_2.2.5+0x2ba>
    784e:	48 8b 05 2b 07 21 00 	mov    0x21072b(%rip),%rax        # 217f80 <_DYNAMIC+0x1f0>
    7855:	64 44 8b 38          	mov    %fs:(%rax),%r15d
    7859:	45 85 ff             	test   %r15d,%r15d
    785c:	0f 84 e8 fb ff ff    	je     744a <pthread_create@@GLIBC_2.2.5+0x2ba>
    7862:	48 8b 75 b0          	mov    -0x50(%rbp),%rsi
    7866:	48 8b bd 78 ff ff ff 	mov    -0x88(%rbp),%rdi
    786d:	e8 6e dd ff ff       	callq  55e0 <munmap@plt>
    7872:	41 83 ff 0c          	cmp    $0xc,%r15d
    7876:	0f 85 75 fd ff ff    	jne    75f1 <pthread_create@@GLIBC_2.2.5+0x461>
    787c:	41 bf 0b 00 00 00    	mov    $0xb,%r15d
    7882:	e9 6a fd ff ff       	jmpq   75f1 <pthread_create@@GLIBC_2.2.5+0x461>
    7887:	66 0f 1f 84 00 00 00 	nopw   0x0(%rax,%rax,1)
    788e:	00 00 
    7890:	48 8b 1d e9 06 21 00 	mov    0x2106e9(%rip),%rbx        # 217f80 <_DYNAMIC+0x1f0>
    7897:	64 83 3b 0c          	cmpl   $0xc,%fs:(%rbx)
    789b:	75 41                	jne    78de <pthread_create@@GLIBC_2.2.5+0x74e>
    789d:	48 8b 75 b0          	mov    -0x50(%rbp),%rsi
    78a1:	48 8b bd 78 ff ff ff 	mov    -0x88(%rbp),%rdi
    78a8:	e8 33 dd ff ff       	callq  55e0 <munmap@plt>
    78ad:	64 44 8b 3b          	mov    %fs:(%rbx),%r15d
    78b1:	45 85 ff             	test   %r15d,%r15d
    78b4:	75 bc                	jne    7872 <pthread_create@@GLIBC_2.2.5+0x6e2>
    78b6:	31 db                	xor    %ebx,%ebx
    78b8:	31 d2                	xor    %edx,%edx
    78ba:	e9 01 fc ff ff       	jmpq   74c0 <pthread_create@@GLIBC_2.2.5+0x330>
    78bf:	48 8d 0d 76 9e 00 00 	lea    0x9e76(%rip),%rcx        # 1173c <__PRETTY_FUNCTION__.11526>
    78c6:	48 8d 35 f1 9d 00 00 	lea    0x9df1(%rip),%rsi        # 116be <banner+0x11e>
    78cd:	48 8d 3d 37 9e 00 00 	lea    0x9e37(%rip),%rdi        # 1170b <banner+0x16b>
    78d4:	ba f6 01 00 00       	mov    $0x1f6,%edx
    78d9:	e8 02 db ff ff       	callq  53e0 <__assert_fail@plt>
    78de:	48 8d 0d 57 9e 00 00 	lea    0x9e57(%rip),%rcx        # 1173c <__PRETTY_FUNCTION__.11526>
    78e5:	48 8d 35 d2 9d 00 00 	lea    0x9dd2(%rip),%rsi        # 116be <banner+0x11e>
    78ec:	48 8d 3d 02 9e 00 00 	lea    0x9e02(%rip),%rdi        # 116f5 <banner+0x155>
    78f3:	ba 3d 02 00 00       	mov    $0x23d,%edx
    78f8:	e8 e3 da ff ff       	callq  53e0 <__assert_fail@plt>
    78fd:	be 01 00 00 00       	mov    $0x1,%esi
    7902:	31 c0                	xor    %eax,%eax
    7904:	f0 0f b1 35 a4 49 21 	lock cmpxchg %esi,0x2149a4(%rip)        # 21c2b0 <stack_cache_lock>
    790b:	00 
    790c:	0f 85 30 06 00 00    	jne    7f42 <_L_lock_2203>
    7912:	4c 89 35 b7 49 21 00 	mov    %r14,0x2149b7(%rip)        # 21c2d0 <in_flight_stack>
    7919:	48 8b 83 c0 02 00 00 	mov    0x2c0(%rbx),%rax
    7920:	48 8b 93 c8 02 00 00 	mov    0x2c8(%rbx),%rdx
    7927:	48 89 50 08          	mov    %rdx,0x8(%rax)
    792b:	48 8b 93 c8 02 00 00 	mov    0x2c8(%rbx),%rdx
    7932:	48 89 02             	mov    %rax,(%rdx)
    7935:	48 c7 05 90 49 21 00 	movq   $0x0,0x214990(%rip)        # 21c2d0 <in_flight_stack>
    793c:	00 00 00 00 
    7940:	f0 ff 0d 69 49 21 00 	lock decl 0x214969(%rip)        # 21c2b0 <stack_cache_lock>
    7947:	0f 85 14 06 00 00    	jne    7f61 <_L_unlock_2213>
    794d:	31 f6                	xor    %esi,%esi
    794f:	48 89 df             	mov    %rbx,%rdi
    7952:	e8 e9 da ff ff       	callq  5440 <_dl_deallocate_tls@plt>
    7957:	48 8b 75 b0          	mov    -0x50(%rbp),%rsi
    795b:	48 8b bd 78 ff ff ff 	mov    -0x88(%rbp),%rdi
    7962:	e8 79 dc ff ff       	callq  55e0 <munmap@plt>
    7967:	48 8b 05 12 06 21 00 	mov    0x210612(%rip),%rax        # 217f80 <_DYNAMIC+0x1f0>
    796e:	64 44 8b 38          	mov    %fs:(%rax),%r15d
    7972:	e9 3a ff ff ff       	jmpq   78b1 <pthread_create@@GLIBC_2.2.5+0x721>
    7977:	41 bf 16 00 00 00    	mov    $0x16,%r15d
    797d:	e9 6f fc ff ff       	jmpq   75f1 <pthread_create@@GLIBC_2.2.5+0x461>
    7982:	48 8d 0d b3 9d 00 00 	lea    0x9db3(%rip),%rcx        # 1173c <__PRETTY_FUNCTION__.11526>
    7989:	48 8d 35 2e 9d 00 00 	lea    0x9d2e(%rip),%rsi        # 116be <banner+0x11e>
    7990:	48 8d 3d 6a 9d 00 00 	lea    0x9d6a(%rip),%rdi        # 11701 <banner+0x161>
    7997:	ba d4 01 00 00       	mov    $0x1d4,%edx
    799c:	e8 3f da ff ff       	callq  53e0 <__assert_fail@plt>
    79a1:	48 85 c9             	test   %rcx,%rcx
    79a4:	74 12                	je     79b8 <pthread_create@@GLIBC_2.2.5+0x828>
    79a6:	48 8b 05 93 49 21 00 	mov    0x214993(%rip),%rax        # 21c340 <__static_tls_size>
    79ad:	48 05 00 08 00 00    	add    $0x800,%rax
    79b3:	48 39 c1             	cmp    %rax,%rcx
    79b6:	72 bf                	jb     7977 <pthread_create@@GLIBC_2.2.5+0x7e7>
    79b8:	49 8b 5c 24 18       	mov    0x18(%r12),%rbx
    79bd:	48 81 eb 00 09 00 00 	sub    $0x900,%rbx
    79c4:	48 89 d8             	mov    %rbx,%rax
    79c7:	48 23 05 62 49 21 00 	and    0x214962(%rip),%rax        # 21c330 <__static_tls_align_m1>
    79ce:	48 8d 90 00 09 00 00 	lea    0x900(%rax),%rdx
    79d5:	48 39 d6             	cmp    %rdx,%rsi
    79d8:	0f 86 5d 02 00 00    	jbe    7c3b <pthread_create@@GLIBC_2.2.5+0xaab>
    79de:	48 29 c3             	sub    %rax,%rbx
    79e1:	b9 20 01 00 00       	mov    $0x120,%ecx
    79e6:	31 c0                	xor    %eax,%eax
    79e8:	48 89 df             	mov    %rbx,%rdi
    79eb:	f3 48 ab             	rep stos %rax,%es:(%rdi)
    79ee:	48 8d 83 10 03 00 00 	lea    0x310(%rbx),%rax
    79f5:	48 89 b3 98 06 00 00 	mov    %rsi,0x698(%rbx)
    79fc:	c6 83 12 06 00 00 01 	movb   $0x1,0x612(%rbx)
    7a03:	48 89 83 10 05 00 00 	mov    %rax,0x510(%rbx)
    7a0a:	48 89 f0             	mov    %rsi,%rax
    7a0d:	48 f7 d8             	neg    %rax
    7a10:	49 03 44 24 18       	add    0x18(%r12),%rax
    7a15:	c7 43 18 01 00 00 00 	movl   $0x1,0x18(%rbx)
    7a1c:	48 89 83 90 06 00 00 	mov    %rax,0x690(%rbx)
    7a23:	48 8b 05 3e 49 21 00 	mov    0x21493e(%rip),%rax        # 21c368 <__libc_multiple_threads_ptr>
    7a2a:	c7 00 01 00 00 00    	movl   $0x1,(%rax)
    7a30:	c7 05 1e 49 21 00 01 	movl   $0x1,0x21491e(%rip)        # 21c358 <__pthread_multiple_threads>
    7a37:	00 00 00 
    7a3a:	64 8b 04 25 48 00 00 	mov    %fs:0x48,%eax
    7a41:	00 
    7a42:	89 43 48             	mov    %eax,0x48(%rbx)
    7a45:	64 8b 04 25 d4 02 00 	mov    %fs:0x2d4,%eax
    7a4c:	00 
    7a4d:	89 83 d4 02 00 00    	mov    %eax,0x2d4(%rbx)
    7a53:	c7 83 1c 06 00 00 ff 	movl   $0xffffffff,0x61c(%rbx)
    7a5a:	ff ff ff 
    7a5d:	48 89 df             	mov    %rbx,%rdi
    7a60:	e8 fb db ff ff       	callq  5660 <_dl_allocate_tls@plt>
    7a65:	48 85 c0             	test   %rax,%rax
    7a68:	0f 84 9d 01 00 00    	je     7c0b <pthread_create@@GLIBC_2.2.5+0xa7b>
    7a6e:	be 01 00 00 00       	mov    $0x1,%esi
    7a73:	31 c0                	xor    %eax,%eax
    7a75:	f0 0f b1 35 33 48 21 	lock cmpxchg %esi,0x214833(%rip)        # 21c2b0 <stack_cache_lock>
    7a7c:	00 
    7a7d:	0f 85 fd 04 00 00    	jne    7f80 <_L_lock_2287>
    7a83:	48 8b 15 16 48 21 00 	mov    0x214816(%rip),%rdx        # 21c2a0 <__GI___stack_user>
    7a8a:	48 8d 83 c0 02 00 00 	lea    0x2c0(%rbx),%rax
    7a91:	48 89 93 c0 02 00 00 	mov    %rdx,0x2c0(%rbx)
    7a98:	48 8d 15 01 48 21 00 	lea    0x214801(%rip),%rdx        # 21c2a0 <__GI___stack_user>
    7a9f:	48 89 93 c8 02 00 00 	mov    %rdx,0x2c8(%rbx)
    7aa6:	48 8b 15 f3 47 21 00 	mov    0x2147f3(%rip),%rdx        # 21c2a0 <__GI___stack_user>
    7aad:	48 89 42 08          	mov    %rax,0x8(%rdx)
    7ab1:	48 89 05 e8 47 21 00 	mov    %rax,0x2147e8(%rip)        # 21c2a0 <__GI___stack_user>
    7ab8:	f0 ff 0d f1 47 21 00 	lock decl 0x2147f1(%rip)        # 21c2b0 <stack_cache_lock>
    7abf:	0f 85 da 04 00 00    	jne    7f9f <_L_unlock_2297>
    7ac5:	e9 b0 f9 ff ff       	jmpq   747a <pthread_create@@GLIBC_2.2.5+0x2ea>
    7aca:	48 8b bd 78 ff ff ff 	mov    -0x88(%rbp),%rdi
    7ad1:	48 03 7d c0          	add    -0x40(%rbp),%rdi
    7ad5:	8b 55 cc             	mov    -0x34(%rbp),%edx
    7ad8:	e8 63 db ff ff       	callq  5640 <mprotect@plt>
    7add:	85 c0                	test   %eax,%eax
    7adf:	0f 85 18 fe ff ff    	jne    78fd <pthread_create@@GLIBC_2.2.5+0x76d>
    7ae5:	48 8b 7d c0          	mov    -0x40(%rbp),%rdi
    7ae9:	48 89 bb a0 06 00 00 	mov    %rdi,0x6a0(%rbx)
    7af0:	e9 7a f9 ff ff       	jmpq   746f <pthread_create@@GLIBC_2.2.5+0x2df>
    7af5:	48 8b 75 c0          	mov    -0x40(%rbp),%rsi
    7af9:	48 8b bd 78 ff ff ff 	mov    -0x88(%rbp),%rdi
    7b00:	31 d2                	xor    %edx,%edx
    7b02:	e8 39 db ff ff       	callq  5640 <mprotect@plt>
    7b07:	85 c0                	test   %eax,%eax
    7b09:	0f 85 ee fd ff ff    	jne    78fd <pthread_create@@GLIBC_2.2.5+0x76d>
    7b0f:	48 8b 55 c0          	mov    -0x40(%rbp),%rdx
    7b13:	48 89 93 a0 06 00 00 	mov    %rdx,0x6a0(%rbx)
    7b1a:	e9 50 f9 ff ff       	jmpq   746f <pthread_create@@GLIBC_2.2.5+0x2df>
    7b1f:	a8 60                	test   $0x60,%al
    7b21:	0f 84 5b fa ff ff    	je     7582 <pthread_create@@GLIBC_2.2.5+0x3f2>
    7b27:	a8 40                	test   $0x40,%al
    7b29:	0f 84 b3 00 00 00    	je     7be2 <pthread_create@@GLIBC_2.2.5+0xa52>
    7b2f:	41 8b 44 24 04       	mov    0x4(%r12),%eax
    7b34:	89 83 3c 06 00 00    	mov    %eax,0x63c(%rbx)
    7b3a:	41 8b 44 24 08       	mov    0x8(%r12),%eax
    7b3f:	a8 20                	test   $0x20,%al
    7b41:	0f 85 8e 00 00 00    	jne    7bd5 <pthread_create@@GLIBC_2.2.5+0xa45>
    7b47:	f6 83 0c 03 00 00 20 	testb  $0x20,0x30c(%rbx)
    7b4e:	75 17                	jne    7b67 <pthread_create@@GLIBC_2.2.5+0x9d7>
    7b50:	48 8d b3 38 06 00 00 	lea    0x638(%rbx),%rsi
    7b57:	31 ff                	xor    %edi,%edi
    7b59:	b8 8f 00 00 00       	mov    $0x8f,%eax
    7b5e:	0f 05                	syscall 
    7b60:	83 8b 0c 03 00 00 20 	orl    $0x20,0x30c(%rbx)
    7b67:	49 63 7c 24 04       	movslq 0x4(%r12),%rdi
    7b6c:	b8 93 00 00 00       	mov    $0x93,%eax
    7b71:	0f 05                	syscall 
    7b73:	48 89 c6             	mov    %rax,%rsi
    7b76:	49 63 7c 24 04       	movslq 0x4(%r12),%rdi
    7b7b:	b8 92 00 00 00       	mov    $0x92,%eax
    7b80:	0f 05                	syscall 
    7b82:	8b 8b 38 06 00 00    	mov    0x638(%rbx),%ecx
    7b88:	39 f1                	cmp    %esi,%ecx
    7b8a:	7d 3e                	jge    7bca <pthread_create@@GLIBC_2.2.5+0xa3a>
    7b8c:	31 c0                	xor    %eax,%eax
    7b8e:	87 83 1c 06 00 00    	xchg   %eax,0x61c(%rbx)
    7b94:	83 f8 fe             	cmp    $0xfffffffe,%eax
    7b97:	75 1e                	jne    7bb7 <pthread_create@@GLIBC_2.2.5+0xa27>
    7b99:	ba 01 00 00 00       	mov    $0x1,%edx
    7b9e:	64 8b 34 25 48 00 00 	mov    %fs:0x48,%esi
    7ba5:	00 
    7ba6:	b8 ca 00 00 00       	mov    $0xca,%eax
    7bab:	48 8d bb 1c 06 00 00 	lea    0x61c(%rbx),%rdi
    7bb2:	83 ce 01             	or     $0x1,%esi
    7bb5:	0f 05                	syscall 
    7bb7:	48 89 df             	mov    %rbx,%rdi
    7bba:	41 bf 16 00 00 00    	mov    $0x16,%r15d
    7bc0:	e8 7b ef ff ff       	callq  6b40 <__deallocate_stack>
    7bc5:	e9 27 fa ff ff       	jmpq   75f1 <pthread_create@@GLIBC_2.2.5+0x461>
    7bca:	39 c1                	cmp    %eax,%ecx
    7bcc:	7f be                	jg     7b8c <pthread_create@@GLIBC_2.2.5+0x9fc>
    7bce:	66 90                	xchg   %ax,%ax
    7bd0:	e9 ad f9 ff ff       	jmpq   7582 <pthread_create@@GLIBC_2.2.5+0x3f2>
    7bd5:	41 8b 04 24          	mov    (%r12),%eax
    7bd9:	89 83 38 06 00 00    	mov    %eax,0x638(%rbx)
    7bdf:	90                   	nop
    7be0:	eb 85                	jmp    7b67 <pthread_create@@GLIBC_2.2.5+0x9d7>
    7be2:	80 e1 40             	and    $0x40,%cl
    7be5:	0f 85 54 ff ff ff    	jne    7b3f <pthread_create@@GLIBC_2.2.5+0x9af>
    7beb:	31 ff                	xor    %edi,%edi
    7bed:	b8 91 00 00 00       	mov    $0x91,%eax
    7bf2:	0f 05                	syscall 
    7bf4:	83 8b 0c 03 00 00 40 	orl    $0x40,0x30c(%rbx)
    7bfb:	89 83 3c 06 00 00    	mov    %eax,0x63c(%rbx)
    7c01:	41 8b 44 24 08       	mov    0x8(%r12),%eax
    7c06:	e9 34 ff ff ff       	jmpq   7b3f <pthread_create@@GLIBC_2.2.5+0x9af>
    7c0b:	48 8b 05 6e 03 21 00 	mov    0x21036e(%rip),%rax        # 217f80 <_DYNAMIC+0x1f0>
    7c12:	64 83 38 0c          	cmpl   $0xc,%fs:(%rax)
    7c16:	0f 84 60 fc ff ff    	je     787c <pthread_create@@GLIBC_2.2.5+0x6ec>
    7c1c:	48 8d 0d 19 9b 00 00 	lea    0x9b19(%rip),%rcx        # 1173c <__PRETTY_FUNCTION__.11526>
    7c23:	48 8d 35 94 9a 00 00 	lea    0x9a94(%rip),%rsi        # 116be <banner+0x11e>
    7c2a:	48 8d 3d c4 9a 00 00 	lea    0x9ac4(%rip),%rdi        # 116f5 <banner+0x155>
    7c31:	ba b4 01 00 00       	mov    $0x1b4,%edx
    7c36:	e8 a5 d7 ff ff       	callq  53e0 <__assert_fail@plt>
    7c3b:	48 8d 0d fa 9a 00 00 	lea    0x9afa(%rip),%rcx        # 1173c <__PRETTY_FUNCTION__.11526>
    7c42:	48 8d 35 75 9a 00 00 	lea    0x9a75(%rip),%rsi        # 116be <banner+0x11e>
    7c49:	48 8d 3d 80 9b 00 00 	lea    0x9b80(%rip),%rdi        # 117d0 <__PRETTY_FUNCTION__.11806+0x6a>
    7c50:	ba 77 01 00 00       	mov    $0x177,%edx
    7c55:	e8 86 d7 ff ff       	callq  53e0 <__assert_fail@plt>

0000000000007c5a <_L_lock_10>:
    7c5a:	48 8d 3d 4f 46 21 00 	lea    0x21464f(%rip),%rdi        # 21c2b0 <stack_cache_lock>
    7c61:	48 81 ec 80 00 00 00 	sub    $0x80,%rsp
    7c68:	e8 33 67 00 00       	callq  e3a0 <__lll_lock_wait_private>
    7c6d:	48 81 c4 80 00 00 00 	add    $0x80,%rsp
    7c74:	e9 62 e1 ff ff       	jmpq   5ddb <__find_thread_by_id+0x1b>

0000000000007c79 <_L_unlock_30>:
    7c79:	48 8d 3d 30 46 21 00 	lea    0x214630(%rip),%rdi        # 21c2b0 <stack_cache_lock>
    7c80:	48 81 ec 80 00 00 00 	sub    $0x80,%rsp
    7c87:	e8 a4 68 00 00       	callq  e530 <__lll_unlock_wake_private>
    7c8c:	48 81 c4 80 00 00 00 	add    $0x80,%rsp
    7c93:	e9 7c e1 ff ff       	jmpq   5e14 <__find_thread_by_id+0x54>

0000000000007c98 <_L_lock_71>:
    7c98:	48 8d 3d 11 46 21 00 	lea    0x214611(%rip),%rdi        # 21c2b0 <stack_cache_lock>
    7c9f:	48 81 ec 80 00 00 00 	sub    $0x80,%rsp
    7ca6:	e8 f5 66 00 00       	callq  e3a0 <__lll_lock_wait_private>
    7cab:	48 81 c4 80 00 00 00 	add    $0x80,%rsp
    7cb2:	e9 c5 e1 ff ff       	jmpq   5e7c <__find_in_stack_list+0x1c>

0000000000007cb7 <_L_unlock_97>:
    7cb7:	48 8d 3d f2 45 21 00 	lea    0x2145f2(%rip),%rdi        # 21c2b0 <stack_cache_lock>
    7cbe:	48 81 ec 80 00 00 00 	sub    $0x80,%rsp
    7cc5:	e8 66 68 00 00       	callq  e530 <__lll_unlock_wake_private>
    7cca:	48 81 c4 80 00 00 00 	add    $0x80,%rsp
    7cd1:	e9 eb e1 ff ff       	jmpq   5ec1 <__find_in_stack_list+0x61>

0000000000007cd6 <_L_lock_468>:
    7cd6:	48 8d 3d d3 45 21 00 	lea    0x2145d3(%rip),%rdi        # 21c2b0 <stack_cache_lock>
    7cdd:	48 81 ec 80 00 00 00 	sub    $0x80,%rsp
    7ce4:	e8 b7 66 00 00       	callq  e3a0 <__lll_lock_wait_private>
    7ce9:	48 81 c4 80 00 00 00 	add    $0x80,%rsp
    7cf0:	e9 6d e6 ff ff       	jmpq   6362 <__wait_lookup_done+0x22>

0000000000007cf5 <_L_unlock_562>:
    7cf5:	48 8d 3d b4 45 21 00 	lea    0x2145b4(%rip),%rdi        # 21c2b0 <stack_cache_lock>
    7cfc:	48 81 ec 80 00 00 00 	sub    $0x80,%rsp
    7d03:	e8 28 68 00 00       	callq  e530 <__lll_unlock_wake_private>
    7d08:	48 81 c4 80 00 00 00 	add    $0x80,%rsp
    7d0f:	e9 71 e7 ff ff       	jmpq   6485 <__wait_lookup_done+0x145>

0000000000007d14 <_L_lock_660>:
    7d14:	48 8d 3d 95 45 21 00 	lea    0x214595(%rip),%rdi        # 21c2b0 <stack_cache_lock>
    7d1b:	48 81 ec 80 00 00 00 	sub    $0x80,%rsp
    7d22:	e8 79 66 00 00       	callq  e3a0 <__lll_lock_wait_private>
    7d27:	48 81 c4 80 00 00 00 	add    $0x80,%rsp
    7d2e:	e9 42 e8 ff ff       	jmpq   6575 <__nptl_setxid+0x25>

0000000000007d33 <_L_unlock_903>:
    7d33:	48 8d 3d 76 45 21 00 	lea    0x214576(%rip),%rdi        # 21c2b0 <stack_cache_lock>
    7d3a:	48 81 ec 80 00 00 00 	sub    $0x80,%rsp
    7d41:	e8 ea 67 00 00       	callq  e530 <__lll_unlock_wake_private>
    7d46:	48 81 c4 80 00 00 00 	add    $0x80,%rsp
    7d4d:	e9 a7 ea ff ff       	jmpq   67f9 <__nptl_setxid+0x2a9>

0000000000007d52 <_L_lock_937>:
    7d52:	48 8d 3d 57 45 21 00 	lea    0x214557(%rip),%rdi        # 21c2b0 <stack_cache_lock>
    7d59:	48 81 ec 80 00 00 00 	sub    $0x80,%rsp
    7d60:	e8 3b 66 00 00       	callq  e3a0 <__lll_lock_wait_private>
    7d65:	48 81 c4 80 00 00 00 	add    $0x80,%rsp
    7d6c:	e9 d2 ea ff ff       	jmpq   6843 <__pthread_init_static_tls+0x23>

0000000000007d71 <_L_unlock_1002>:
    7d71:	48 8d 3d 38 45 21 00 	lea    0x214538(%rip),%rdi        # 21c2b0 <stack_cache_lock>
    7d78:	48 81 ec 80 00 00 00 	sub    $0x80,%rsp
    7d7f:	e8 ac 67 00 00       	callq  e530 <__lll_unlock_wake_private>
    7d84:	48 81 c4 80 00 00 00 	add    $0x80,%rsp
    7d8b:	e9 c8 eb ff ff       	jmpq   6958 <__pthread_init_static_tls+0x138>

0000000000007d90 <_L_lock_1026>:
    7d90:	48 8d 3d 19 45 21 00 	lea    0x214519(%rip),%rdi        # 21c2b0 <stack_cache_lock>
    7d97:	48 81 ec 80 00 00 00 	sub    $0x80,%rsp
    7d9e:	e8 fd 65 00 00       	callq  e3a0 <__lll_lock_wait_private>
    7da3:	48 81 c4 80 00 00 00 	add    $0x80,%rsp
    7daa:	e9 e6 eb ff ff       	jmpq   6995 <__make_stacks_executable+0x25>

0000000000007daf <_L_unlock_1057>:
    7daf:	48 8d 3d fa 44 21 00 	lea    0x2144fa(%rip),%rdi        # 21c2b0 <stack_cache_lock>
    7db6:	48 81 ec 80 00 00 00 	sub    $0x80,%rsp
    7dbd:	e8 6e 67 00 00       	callq  e530 <__lll_unlock_wake_private>
    7dc2:	48 81 c4 80 00 00 00 	add    $0x80,%rsp
    7dc9:	e9 32 ec ff ff       	jmpq   6a00 <__make_stacks_executable+0x90>

0000000000007dce <_L_lock_1190>:
    7dce:	48 8d 3d db 44 21 00 	lea    0x2144db(%rip),%rdi        # 21c2b0 <stack_cache_lock>
    7dd5:	48 81 ec 80 00 00 00 	sub    $0x80,%rsp
    7ddc:	e8 bf 65 00 00       	callq  e3a0 <__lll_lock_wait_private>
    7de1:	48 81 c4 80 00 00 00 	add    $0x80,%rsp
    7de8:	e9 74 ed ff ff       	jmpq   6b61 <__deallocate_stack+0x21>

0000000000007ded <_L_unlock_1225>:
    7ded:	48 8d 3d bc 44 21 00 	lea    0x2144bc(%rip),%rdi        # 21c2b0 <stack_cache_lock>
    7df4:	48 81 ec 80 00 00 00 	sub    $0x80,%rsp
    7dfb:	e8 30 67 00 00       	callq  e530 <__lll_unlock_wake_private>
    7e00:	48 81 c4 80 00 00 00 	add    $0x80,%rsp
    7e07:	e9 fd ed ff ff       	jmpq   6c09 <__deallocate_stack+0xc9>

0000000000007e0c <_L_lock_1534>:
    7e0c:	48 8d bb 18 06 00 00 	lea    0x618(%rbx),%rdi
    7e13:	48 81 ec 80 00 00 00 	sub    $0x80,%rsp
    7e1a:	e8 81 65 00 00       	callq  e3a0 <__lll_lock_wait_private>
    7e1f:	48 81 c4 80 00 00 00 	add    $0x80,%rsp
    7e26:	e9 9f f1 ff ff       	jmpq   6fca <start_thread+0x34a>

0000000000007e2b <_L_unlock_1535>:
    7e2b:	48 8d bb 18 06 00 00 	lea    0x618(%rbx),%rdi
    7e32:	48 81 ec 80 00 00 00 	sub    $0x80,%rsp
    7e39:	e8 f2 66 00 00       	callq  e530 <__lll_unlock_wake_private>
    7e3e:	48 81 c4 80 00 00 00 	add    $0x80,%rsp
    7e45:	e9 8d f1 ff ff       	jmpq   6fd7 <start_thread+0x357>

0000000000007e4a <_L_lock_1609>:
    7e4a:	48 8d bb 18 06 00 00 	lea    0x618(%rbx),%rdi
    7e51:	48 81 ec 80 00 00 00 	sub    $0x80,%rsp
    7e58:	e8 43 65 00 00       	callq  e3a0 <__lll_lock_wait_private>
    7e5d:	48 81 c4 80 00 00 00 	add    $0x80,%rsp
    7e64:	e9 48 f2 ff ff       	jmpq   70b1 <T.141+0x91>

0000000000007e69 <_L_lock_1752>:
    7e69:	48 8d 3d 40 44 21 00 	lea    0x214440(%rip),%rdi        # 21c2b0 <stack_cache_lock>
    7e70:	48 81 ec 80 00 00 00 	sub    $0x80,%rsp
    7e77:	e8 24 65 00 00       	callq  e3a0 <__lll_lock_wait_private>
    7e7c:	48 81 c4 80 00 00 00 	add    $0x80,%rsp
    7e83:	e9 e8 f3 ff ff       	jmpq   7270 <pthread_create@@GLIBC_2.2.5+0xe0>

0000000000007e88 <_L_unlock_1831>:
    7e88:	48 8d 3d 21 44 21 00 	lea    0x214421(%rip),%rdi        # 21c2b0 <stack_cache_lock>
    7e8f:	48 81 ec 80 00 00 00 	sub    $0x80,%rsp
    7e96:	e8 95 66 00 00       	callq  e530 <__lll_unlock_wake_private>
    7e9b:	48 81 c4 80 00 00 00 	add    $0x80,%rsp
    7ea2:	e9 e5 f4 ff ff       	jmpq   738c <pthread_create@@GLIBC_2.2.5+0x1fc>

0000000000007ea7 <_L_unlock_1989>:
    7ea7:	48 8d bb 18 06 00 00 	lea    0x618(%rbx),%rdi
    7eae:	48 81 ec 80 00 00 00 	sub    $0x80,%rsp
    7eb5:	e8 76 66 00 00       	callq  e530 <__lll_unlock_wake_private>
    7eba:	48 81 c4 80 00 00 00 	add    $0x80,%rsp
    7ec1:	e9 2b f7 ff ff       	jmpq   75f1 <pthread_create@@GLIBC_2.2.5+0x461>

0000000000007ec6 <_L_unlock_2054>:
    7ec6:	48 8d bb 18 06 00 00 	lea    0x618(%rbx),%rdi
    7ecd:	48 81 ec 80 00 00 00 	sub    $0x80,%rsp
    7ed4:	e8 57 66 00 00       	callq  e530 <__lll_unlock_wake_private>
    7ed9:	48 81 c4 80 00 00 00 	add    $0x80,%rsp
    7ee0:	e9 bb f7 ff ff       	jmpq   76a0 <pthread_create@@GLIBC_2.2.5+0x510>

0000000000007ee5 <_L_unlock_2068>:
    7ee5:	48 8d 3d c4 43 21 00 	lea    0x2143c4(%rip),%rdi        # 21c2b0 <stack_cache_lock>
    7eec:	48 81 ec 80 00 00 00 	sub    $0x80,%rsp
    7ef3:	e8 38 66 00 00       	callq  e530 <__lll_unlock_wake_private>
    7ef8:	48 81 c4 80 00 00 00 	add    $0x80,%rsp
    7eff:	e9 cd f7 ff ff       	jmpq   76d1 <pthread_create@@GLIBC_2.2.5+0x541>

0000000000007f04 <_L_lock_2114>:
    7f04:	48 8d 3d a5 43 21 00 	lea    0x2143a5(%rip),%rdi        # 21c2b0 <stack_cache_lock>
    7f0b:	48 81 ec 80 00 00 00 	sub    $0x80,%rsp
    7f12:	e8 89 64 00 00       	callq  e3a0 <__lll_lock_wait_private>
    7f17:	48 81 c4 80 00 00 00 	add    $0x80,%rsp
    7f1e:	e9 8e f8 ff ff       	jmpq   77b1 <pthread_create@@GLIBC_2.2.5+0x621>

0000000000007f23 <_L_unlock_2130>:
    7f23:	48 8d 3d 86 43 21 00 	lea    0x214386(%rip),%rdi        # 21c2b0 <stack_cache_lock>
    7f2a:	48 81 ec 80 00 00 00 	sub    $0x80,%rsp
    7f31:	e8 fa 65 00 00       	callq  e530 <__lll_unlock_wake_private>
    7f36:	48 81 c4 80 00 00 00 	add    $0x80,%rsp
    7f3d:	e9 ca f8 ff ff       	jmpq   780c <pthread_create@@GLIBC_2.2.5+0x67c>

0000000000007f42 <_L_lock_2203>:
    7f42:	48 8d 3d 67 43 21 00 	lea    0x214367(%rip),%rdi        # 21c2b0 <stack_cache_lock>
    7f49:	48 81 ec 80 00 00 00 	sub    $0x80,%rsp
    7f50:	e8 4b 64 00 00       	callq  e3a0 <__lll_lock_wait_private>
    7f55:	48 81 c4 80 00 00 00 	add    $0x80,%rsp
    7f5c:	e9 b1 f9 ff ff       	jmpq   7912 <pthread_create@@GLIBC_2.2.5+0x782>

0000000000007f61 <_L_unlock_2213>:
    7f61:	48 8d 3d 48 43 21 00 	lea    0x214348(%rip),%rdi        # 21c2b0 <stack_cache_lock>
    7f68:	48 81 ec 80 00 00 00 	sub    $0x80,%rsp
    7f6f:	e8 bc 65 00 00       	callq  e530 <__lll_unlock_wake_private>
    7f74:	48 81 c4 80 00 00 00 	add    $0x80,%rsp
    7f7b:	e9 cd f9 ff ff       	jmpq   794d <pthread_create@@GLIBC_2.2.5+0x7bd>

0000000000007f80 <_L_lock_2287>:
    7f80:	48 8d 3d 29 43 21 00 	lea    0x214329(%rip),%rdi        # 21c2b0 <stack_cache_lock>
    7f87:	48 81 ec 80 00 00 00 	sub    $0x80,%rsp
    7f8e:	e8 0d 64 00 00       	callq  e3a0 <__lll_lock_wait_private>
    7f93:	48 81 c4 80 00 00 00 	add    $0x80,%rsp
    7f9a:	e9 e4 fa ff ff       	jmpq   7a83 <pthread_create@@GLIBC_2.2.5+0x8f3>

0000000000007f9f <_L_unlock_2297>:
    7f9f:	48 8d 3d 0a 43 21 00 	lea    0x21430a(%rip),%rdi        # 21c2b0 <stack_cache_lock>
    7fa6:	48 81 ec 80 00 00 00 	sub    $0x80,%rsp
    7fad:	e8 7e 65 00 00       	callq  e530 <__lll_unlock_wake_private>
    7fb2:	48 81 c4 80 00 00 00 	add    $0x80,%rsp
    7fb9:	e9 07 fb ff ff       	jmpq   7ac5 <pthread_create@@GLIBC_2.2.5+0x935>
    7fbe:	90                   	nop
    7fbf:	90                   	nop

0000000000007fc0 <pthread_exit>:
    7fc0:	55                   	push   %rbp
    7fc1:	48 89 e5             	mov    %rsp,%rbp
    7fc4:	64 48 89 3c 25 30 06 	mov    %rdi,%fs:0x630
    7fcb:	00 00 
    7fcd:	f0 64 83 0c 25 08 03 	lock orl $0x10,%fs:0x308
    7fd4:	00 00 10 
    7fd7:	64 48 8b 3c 25 00 03 	mov    %fs:0x300,%rdi
    7fde:	00 00 
    7fe0:	e8 5b 60 00 00       	callq  e040 <__pthread_unwind>
    7fe5:	90                   	nop
    7fe6:	90                   	nop
    7fe7:	90                   	nop
    7fe8:	90                   	nop
    7fe9:	90                   	nop
    7fea:	90                   	nop
    7feb:	90                   	nop
    7fec:	90                   	nop
    7fed:	90                   	nop
    7fee:	90                   	nop
    7fef:	90                   	nop

0000000000007ff0 <pthread_detach>:
    7ff0:	55                   	push   %rbp
    7ff1:	8b 87 d0 02 00 00    	mov    0x2d0(%rdi),%eax
    7ff7:	48 89 e5             	mov    %rsp,%rbp
    7ffa:	85 c0                	test   %eax,%eax
    7ffc:	78 34                	js     8032 <pthread_detach+0x42>
    7ffe:	31 c0                	xor    %eax,%eax
    8000:	f0 48 0f b1 bf 28 06 	lock cmpxchg %rdi,0x628(%rdi)
    8007:	00 00 
    8009:	74 15                	je     8020 <pthread_detach+0x30>
    800b:	48 39 bf 28 06 00 00 	cmp    %rdi,0x628(%rdi)
    8012:	b8 16 00 00 00       	mov    $0x16,%eax
    8017:	74 02                	je     801b <pthread_detach+0x2b>
    8019:	31 c0                	xor    %eax,%eax
    801b:	c9                   	leaveq 
    801c:	c3                   	retq   
    801d:	0f 1f 00             	nopl   (%rax)
    8020:	f6 87 08 03 00 00 10 	testb  $0x10,0x308(%rdi)
    8027:	74 f0                	je     8019 <pthread_detach+0x29>
    8029:	e8 02 ec ff ff       	callq  6c30 <__free_tcb>
    802e:	31 c0                	xor    %eax,%eax
    8030:	c9                   	leaveq 
    8031:	c3                   	retq   
    8032:	b8 03 00 00 00       	mov    $0x3,%eax
    8037:	c9                   	leaveq 
    8038:	c3                   	retq   
    8039:	90                   	nop
    803a:	90                   	nop
    803b:	90                   	nop
    803c:	90                   	nop
    803d:	90                   	nop
    803e:	90                   	nop
    803f:	90                   	nop

0000000000008040 <cleanup>:
    8040:	55                   	push   %rbp
    8041:	31 d2                	xor    %edx,%edx
    8043:	64 48 8b 04 25 10 00 	mov    %fs:0x10,%rax
    804a:	00 00 
    804c:	48 89 e5             	mov    %rsp,%rbp
    804f:	f0 48 0f b1 17       	lock cmpxchg %rdx,(%rdi)
    8054:	c9                   	leaveq 
    8055:	c3                   	retq   
    8056:	66 2e 0f 1f 84 00 00 	nopw   %cs:0x0(%rax,%rax,1)
    805d:	00 00 00 

0000000000008060 <pthread_join>:
    8060:	55                   	push   %rbp
    8061:	48 89 e5             	mov    %rsp,%rbp
    8064:	48 89 5d d8          	mov    %rbx,-0x28(%rbp)
    8068:	4c 89 65 e0          	mov    %r12,-0x20(%rbp)
    806c:	48 89 fb             	mov    %rdi,%rbx
    806f:	4c 89 6d e8          	mov    %r13,-0x18(%rbp)
    8073:	4c 89 75 f0          	mov    %r14,-0x10(%rbp)
    8077:	49 89 f4             	mov    %rsi,%r12
    807a:	4c 89 7d f8          	mov    %r15,-0x8(%rbp)
    807e:	48 83 ec 60          	sub    $0x60,%rsp
    8082:	8b 87 d0 02 00 00    	mov    0x2d0(%rdi),%eax
    8088:	85 c0                	test   %eax,%eax
    808a:	0f 88 1f 01 00 00    	js     81af <pthread_join+0x14f>
    8090:	48 39 bf 28 06 00 00 	cmp    %rdi,0x628(%rdi)
    8097:	b8 16 00 00 00       	mov    $0x16,%eax
    809c:	0f 84 91 00 00 00    	je     8133 <pthread_join+0xd3>
    80a2:	4c 8d b7 28 06 00 00 	lea    0x628(%rdi),%r14
    80a9:	4c 8d 6d b0          	lea    -0x50(%rbp),%r13
    80ad:	48 8d 35 8c ff ff ff 	lea    -0x74(%rip),%rsi        # 8040 <cleanup>
    80b4:	64 4c 8b 3c 25 10 00 	mov    %fs:0x10,%r15
    80bb:	00 00 
    80bd:	4c 89 f2             	mov    %r14,%rdx
    80c0:	4c 89 ef             	mov    %r13,%rdi
    80c3:	e8 28 5e 00 00       	callq  def0 <_pthread_cleanup_push>
    80c8:	e8 13 62 00 00       	callq  e2e0 <__pthread_enable_asynccancel>
    80cd:	4c 39 fb             	cmp    %r15,%rbx
    80d0:	41 89 c0             	mov    %eax,%r8d
    80d3:	0f 84 a4 00 00 00    	je     817d <pthread_join+0x11d>
    80d9:	49 39 9f 28 06 00 00 	cmp    %rbx,0x628(%r15)
    80e0:	0f 84 8a 00 00 00    	je     8170 <pthread_join+0x110>
    80e6:	31 c0                	xor    %eax,%eax
    80e8:	f0 4d 0f b1 3e       	lock cmpxchg %r15,(%r14)
    80ed:	0f 85 c6 00 00 00    	jne    81b9 <pthread_join+0x159>
    80f3:	8b 93 d0 02 00 00    	mov    0x2d0(%rbx),%edx
    80f9:	85 d2                	test   %edx,%edx
    80fb:	75 53                	jne    8150 <pthread_join+0xf0>
    80fd:	44 89 c7             	mov    %r8d,%edi
    8100:	e8 3b 62 00 00       	callq  e340 <__pthread_disable_asynccancel>
    8105:	31 f6                	xor    %esi,%esi
    8107:	4c 89 ef             	mov    %r13,%rdi
    810a:	e8 11 5e 00 00       	callq  df20 <_pthread_cleanup_pop>
    810f:	4d 85 e4             	test   %r12,%r12
    8112:	c7 83 d0 02 00 00 ff 	movl   $0xffffffff,0x2d0(%rbx)
    8119:	ff ff ff 
    811c:	74 0b                	je     8129 <pthread_join+0xc9>
    811e:	48 8b 83 30 06 00 00 	mov    0x630(%rbx),%rax
    8125:	49 89 04 24          	mov    %rax,(%r12)
    8129:	48 89 df             	mov    %rbx,%rdi
    812c:	e8 ff ea ff ff       	callq  6c30 <__free_tcb>
    8131:	31 c0                	xor    %eax,%eax
    8133:	48 8b 5d d8          	mov    -0x28(%rbp),%rbx
    8137:	4c 8b 65 e0          	mov    -0x20(%rbp),%r12
    813b:	4c 8b 6d e8          	mov    -0x18(%rbp),%r13
    813f:	4c 8b 75 f0          	mov    -0x10(%rbp),%r14
    8143:	4c 8b 7d f8          	mov    -0x8(%rbp),%r15
    8147:	c9                   	leaveq 
    8148:	c3                   	retq   
    8149:	0f 1f 80 00 00 00 00 	nopl   0x0(%rax)
    8150:	48 8d bb d0 02 00 00 	lea    0x2d0(%rbx),%rdi
    8157:	31 f6                	xor    %esi,%esi
    8159:	4d 31 d2             	xor    %r10,%r10
    815c:	48 c7 c0 ca 00 00 00 	mov    $0xca,%rax
    8163:	0f 05                	syscall 
    8165:	83 3f 00             	cmpl   $0x0,(%rdi)
    8168:	75 f2                	jne    815c <pthread_join+0xfc>
    816a:	eb 91                	jmp    80fd <pthread_join+0x9d>
    816c:	0f 1f 40 00          	nopl   0x0(%rax)
    8170:	f6 83 08 03 00 00 3c 	testb  $0x3c,0x308(%rbx)
    8177:	0f 85 69 ff ff ff    	jne    80e6 <pthread_join+0x86>
    817d:	41 8b 97 08 03 00 00 	mov    0x308(%r15),%edx
    8184:	b8 23 00 00 00       	mov    $0x23,%eax
    8189:	83 e2 b9             	and    $0xffffffb9,%edx
    818c:	83 fa 08             	cmp    $0x8,%edx
    818f:	0f 84 51 ff ff ff    	je     80e6 <pthread_join+0x86>
    8195:	44 89 c7             	mov    %r8d,%edi
    8198:	89 45 a8             	mov    %eax,-0x58(%rbp)
    819b:	e8 a0 61 00 00       	callq  e340 <__pthread_disable_asynccancel>
    81a0:	31 f6                	xor    %esi,%esi
    81a2:	4c 89 ef             	mov    %r13,%rdi
    81a5:	e8 76 5d 00 00       	callq  df20 <_pthread_cleanup_pop>
    81aa:	8b 45 a8             	mov    -0x58(%rbp),%eax
    81ad:	eb 84                	jmp    8133 <pthread_join+0xd3>
    81af:	b8 03 00 00 00       	mov    $0x3,%eax
    81b4:	e9 7a ff ff ff       	jmpq   8133 <pthread_join+0xd3>
    81b9:	b8 16 00 00 00       	mov    $0x16,%eax
    81be:	66 90                	xchg   %ax,%ax
    81c0:	eb d3                	jmp    8195 <pthread_join+0x135>
    81c2:	90                   	nop
    81c3:	90                   	nop
    81c4:	90                   	nop
    81c5:	90                   	nop
    81c6:	90                   	nop
    81c7:	90                   	nop
    81c8:	90                   	nop
    81c9:	90                   	nop
    81ca:	90                   	nop
    81cb:	90                   	nop
    81cc:	90                   	nop
    81cd:	90                   	nop
    81ce:	90                   	nop
    81cf:	90                   	nop

00000000000081d0 <pthread_tryjoin_np>:
    81d0:	55                   	push   %rbp
    81d1:	48 39 bf 28 06 00 00 	cmp    %rdi,0x628(%rdi)
    81d8:	48 89 e5             	mov    %rsp,%rbp
    81db:	74 53                	je     8230 <pthread_tryjoin_np+0x60>
    81dd:	64 48 8b 14 25 10 00 	mov    %fs:0x10,%rdx
    81e4:	00 00 
    81e6:	48 39 d7             	cmp    %rdx,%rdi
    81e9:	74 55                	je     8240 <pthread_tryjoin_np+0x70>
    81eb:	48 39 ba 28 06 00 00 	cmp    %rdi,0x628(%rdx)
    81f2:	74 4c                	je     8240 <pthread_tryjoin_np+0x70>
    81f4:	8b 8f d0 02 00 00    	mov    0x2d0(%rdi),%ecx
    81fa:	b8 10 00 00 00       	mov    $0x10,%eax
    81ff:	85 c9                	test   %ecx,%ecx
    8201:	74 05                	je     8208 <pthread_tryjoin_np+0x38>
    8203:	c9                   	leaveq 
    8204:	c3                   	retq   
    8205:	0f 1f 00             	nopl   (%rax)
    8208:	31 c0                	xor    %eax,%eax
    820a:	f0 48 0f b1 97 28 06 	lock cmpxchg %rdx,0x628(%rdi)
    8211:	00 00 
    8213:	75 1b                	jne    8230 <pthread_tryjoin_np+0x60>
    8215:	48 85 f6             	test   %rsi,%rsi
    8218:	74 0a                	je     8224 <pthread_tryjoin_np+0x54>
    821a:	48 8b 87 30 06 00 00 	mov    0x630(%rdi),%rax
    8221:	48 89 06             	mov    %rax,(%rsi)
    8224:	e8 07 ea ff ff       	callq  6c30 <__free_tcb>
    8229:	31 c0                	xor    %eax,%eax
    822b:	c9                   	leaveq 
    822c:	c3                   	retq   
    822d:	0f 1f 00             	nopl   (%rax)
    8230:	b8 16 00 00 00       	mov    $0x16,%eax
    8235:	c9                   	leaveq 
    8236:	c3                   	retq   
    8237:	66 0f 1f 84 00 00 00 	nopw   0x0(%rax,%rax,1)
    823e:	00 00 
    8240:	b8 23 00 00 00       	mov    $0x23,%eax
    8245:	c9                   	leaveq 
    8246:	c3                   	retq   
    8247:	90                   	nop
    8248:	90                   	nop
    8249:	90                   	nop
    824a:	90                   	nop
    824b:	90                   	nop
    824c:	90                   	nop
    824d:	90                   	nop
    824e:	90                   	nop
    824f:	90                   	nop

0000000000008250 <cleanup>:
    8250:	55                   	push   %rbp
    8251:	48 c7 07 00 00 00 00 	movq   $0x0,(%rdi)
    8258:	48 89 e5             	mov    %rsp,%rbp
    825b:	c9                   	leaveq 
    825c:	c3                   	retq   
    825d:	0f 1f 00             	nopl   (%rax)

0000000000008260 <pthread_timedjoin_np>:
    8260:	55                   	push   %rbp
    8261:	48 89 e5             	mov    %rsp,%rbp
    8264:	48 89 5d d8          	mov    %rbx,-0x28(%rbp)
    8268:	4c 89 6d e8          	mov    %r13,-0x18(%rbp)
    826c:	48 89 fb             	mov    %rdi,%rbx
    826f:	4c 89 75 f0          	mov    %r14,-0x10(%rbp)
    8273:	4c 89 65 e0          	mov    %r12,-0x20(%rbp)
    8277:	49 89 d6             	mov    %rdx,%r14
    827a:	4c 89 7d f8          	mov    %r15,-0x8(%rbp)
    827e:	48 83 ec 50          	sub    $0x50,%rsp
    8282:	8b 97 d0 02 00 00    	mov    0x2d0(%rdi),%edx
    8288:	49 89 f5             	mov    %rsi,%r13
    828b:	85 d2                	test   %edx,%edx
    828d:	0f 88 2a 01 00 00    	js     83bd <pthread_timedjoin_np+0x15d>
    8293:	48 39 bf 28 06 00 00 	cmp    %rdi,0x628(%rdi)
    829a:	0f 84 10 01 00 00    	je     83b0 <pthread_timedjoin_np+0x150>
    82a0:	64 48 8b 0c 25 10 00 	mov    %fs:0x10,%rcx
    82a7:	00 00 
    82a9:	48 39 cf             	cmp    %rcx,%rdi
    82ac:	0f 84 c6 00 00 00    	je     8378 <pthread_timedjoin_np+0x118>
    82b2:	48 39 b9 28 06 00 00 	cmp    %rdi,0x628(%rcx)
    82b9:	0f 84 b9 00 00 00    	je     8378 <pthread_timedjoin_np+0x118>
    82bf:	48 8d 97 28 06 00 00 	lea    0x628(%rdi),%rdx
    82c6:	31 c0                	xor    %eax,%eax
    82c8:	f0 48 0f b1 0a       	lock cmpxchg %rcx,(%rdx)
    82cd:	0f 85 dd 00 00 00    	jne    83b0 <pthread_timedjoin_np+0x150>
    82d3:	4c 8d 65 b0          	lea    -0x50(%rbp),%r12
    82d7:	48 8d 35 72 ff ff ff 	lea    -0x8e(%rip),%rsi        # 8250 <cleanup>
    82de:	4c 89 e7             	mov    %r12,%rdi
    82e1:	e8 0a 5c 00 00       	callq  def0 <_pthread_cleanup_push>
    82e6:	e8 f5 5f 00 00       	callq  e2e0 <__pthread_enable_asynccancel>
    82eb:	41 89 c7             	mov    %eax,%r15d
    82ee:	8b 83 d0 02 00 00    	mov    0x2d0(%rbx),%eax
    82f4:	85 c0                	test   %eax,%eax
    82f6:	75 48                	jne    8340 <pthread_timedjoin_np+0xe0>
    82f8:	44 89 ff             	mov    %r15d,%edi
    82fb:	e8 40 60 00 00       	callq  e340 <__pthread_disable_asynccancel>
    8300:	31 f6                	xor    %esi,%esi
    8302:	4c 89 e7             	mov    %r12,%rdi
    8305:	e8 16 5c 00 00       	callq  df20 <_pthread_cleanup_pop>
    830a:	4d 85 ed             	test   %r13,%r13
    830d:	74 0b                	je     831a <pthread_timedjoin_np+0xba>
    830f:	48 8b 83 30 06 00 00 	mov    0x630(%rbx),%rax
    8316:	49 89 45 00          	mov    %rax,0x0(%r13)
    831a:	48 89 df             	mov    %rbx,%rdi
    831d:	e8 0e e9 ff ff       	callq  6c30 <__free_tcb>
    8322:	31 c0                	xor    %eax,%eax
    8324:	48 8b 5d d8          	mov    -0x28(%rbp),%rbx
    8328:	4c 8b 65 e0          	mov    -0x20(%rbp),%r12
    832c:	4c 8b 6d e8          	mov    -0x18(%rbp),%r13
    8330:	4c 8b 75 f0          	mov    -0x10(%rbp),%r14
    8334:	4c 8b 7d f8          	mov    -0x8(%rbp),%r15
    8338:	c9                   	leaveq 
    8339:	c3                   	retq   
    833a:	66 0f 1f 44 00 00    	nopw   0x0(%rax,%rax,1)
    8340:	49 81 7e 08 ff c9 9a 	cmpq   $0x3b9ac9ff,0x8(%r14)
    8347:	3b 
    8348:	76 36                	jbe    8380 <pthread_timedjoin_np+0x120>
    834a:	44 89 ff             	mov    %r15d,%edi
    834d:	41 be 16 00 00 00    	mov    $0x16,%r14d
    8353:	e8 e8 5f 00 00       	callq  e340 <__pthread_disable_asynccancel>
    8358:	31 f6                	xor    %esi,%esi
    835a:	4c 89 e7             	mov    %r12,%rdi
    835d:	e8 be 5b 00 00       	callq  df20 <_pthread_cleanup_pop>
    8362:	48 c7 83 28 06 00 00 	movq   $0x0,0x628(%rbx)
    8369:	00 00 00 00 
    836d:	44 89 f0             	mov    %r14d,%eax
    8370:	eb b2                	jmp    8324 <pthread_timedjoin_np+0xc4>
    8372:	66 0f 1f 44 00 00    	nopw   0x0(%rax,%rax,1)
    8378:	b8 23 00 00 00       	mov    $0x23,%eax
    837d:	eb a5                	jmp    8324 <pthread_timedjoin_np+0xc4>
    837f:	90                   	nop
    8380:	48 8d bb d0 02 00 00 	lea    0x2d0(%rbx),%rdi
    8387:	4c 89 f6             	mov    %r14,%rsi
    838a:	e8 01 62 00 00       	callq  e590 <__lll_timedwait_tid>
    838f:	44 89 ff             	mov    %r15d,%edi
    8392:	41 89 c6             	mov    %eax,%r14d
    8395:	e8 a6 5f 00 00       	callq  e340 <__pthread_disable_asynccancel>
    839a:	31 f6                	xor    %esi,%esi
    839c:	4c 89 e7             	mov    %r12,%rdi
    839f:	e8 7c 5b 00 00       	callq  df20 <_pthread_cleanup_pop>
    83a4:	45 85 f6             	test   %r14d,%r14d
    83a7:	75 b9                	jne    8362 <pthread_timedjoin_np+0x102>
    83a9:	e9 5c ff ff ff       	jmpq   830a <pthread_timedjoin_np+0xaa>
    83ae:	66 90                	xchg   %ax,%ax
    83b0:	b8 16 00 00 00       	mov    $0x16,%eax
    83b5:	0f 1f 00             	nopl   (%rax)
    83b8:	e9 67 ff ff ff       	jmpq   8324 <pthread_timedjoin_np+0xc4>
    83bd:	b8 03 00 00 00       	mov    $0x3,%eax
    83c2:	66 0f 1f 44 00 00    	nopw   0x0(%rax,%rax,1)
    83c8:	e9 57 ff ff ff       	jmpq   8324 <pthread_timedjoin_np+0xc4>
    83cd:	90                   	nop
    83ce:	90                   	nop
    83cf:	90                   	nop

00000000000083d0 <pthread_self>:
    83d0:	55                   	push   %rbp
    83d1:	64 48 8b 04 25 10 00 	mov    %fs:0x10,%rax
    83d8:	00 00 
    83da:	48 89 e5             	mov    %rsp,%rbp
    83dd:	c9                   	leaveq 
    83de:	c3                   	retq   
    83df:	90                   	nop

00000000000083e0 <pthread_equal>:
    83e0:	55                   	push   %rbp
    83e1:	31 c0                	xor    %eax,%eax
    83e3:	48 39 f7             	cmp    %rsi,%rdi
    83e6:	0f 94 c0             	sete   %al
    83e9:	48 89 e5             	mov    %rsp,%rbp
    83ec:	c9                   	leaveq 
    83ed:	c3                   	retq   
    83ee:	90                   	nop
    83ef:	90                   	nop

00000000000083f0 <pthread_yield>:
    83f0:	55                   	push   %rbp
    83f1:	48 89 e5             	mov    %rsp,%rbp
    83f4:	c9                   	leaveq 
    83f5:	e9 36 d0 ff ff       	jmpq   5430 <sched_yield@plt>
    83fa:	90                   	nop
    83fb:	90                   	nop
    83fc:	90                   	nop
    83fd:	90                   	nop
    83fe:	90                   	nop
    83ff:	90                   	nop

0000000000008400 <pthread_getconcurrency>:
    8400:	55                   	push   %rbp
    8401:	8b 05 69 3f 21 00    	mov    0x213f69(%rip),%eax        # 21c370 <__concurrency_level>
    8407:	48 89 e5             	mov    %rsp,%rbp
    840a:	c9                   	leaveq 
    840b:	c3                   	retq   
    840c:	90                   	nop
    840d:	90                   	nop
    840e:	90                   	nop
    840f:	90                   	nop

0000000000008410 <pthread_setconcurrency>:
    8410:	55                   	push   %rbp
    8411:	85 ff                	test   %edi,%edi
    8413:	b8 16 00 00 00       	mov    $0x16,%eax
    8418:	48 89 e5             	mov    %rsp,%rbp
    841b:	78 08                	js     8425 <pthread_setconcurrency+0x15>
    841d:	89 3d 4d 3f 21 00    	mov    %edi,0x213f4d(%rip)        # 21c370 <__concurrency_level>
    8423:	30 c0                	xor    %al,%al
    8425:	c9                   	leaveq 
    8426:	c3                   	retq   
    8427:	90                   	nop
    8428:	90                   	nop
    8429:	90                   	nop
    842a:	90                   	nop
    842b:	90                   	nop
    842c:	90                   	nop
    842d:	90                   	nop
    842e:	90                   	nop
    842f:	90                   	nop

0000000000008430 <pthread_getschedparam>:
    8430:	55                   	push   %rbp
    8431:	48 89 e5             	mov    %rsp,%rbp
    8434:	48 89 5d e0          	mov    %rbx,-0x20(%rbp)
    8438:	4c 89 65 e8          	mov    %r12,-0x18(%rbp)
    843c:	48 89 fb             	mov    %rdi,%rbx
    843f:	4c 89 6d f0          	mov    %r13,-0x10(%rbp)
    8443:	4c 89 75 f8          	mov    %r14,-0x8(%rbp)
    8447:	48 83 ec 20          	sub    $0x20,%rsp
    844b:	8b 87 d0 02 00 00    	mov    0x2d0(%rdi),%eax
    8451:	49 89 f4             	mov    %rsi,%r12
    8454:	49 89 d5             	mov    %rdx,%r13
    8457:	85 c0                	test   %eax,%eax
    8459:	0f 8e d8 00 00 00    	jle    8537 <pthread_getschedparam+0x107>
    845f:	be 01 00 00 00       	mov    $0x1,%esi
    8464:	31 c0                	xor    %eax,%eax
    8466:	f0 0f b1 b3 18 06 00 	lock cmpxchg %esi,0x618(%rbx)
    846d:	00 
    846e:	0f 85 ce 00 00 00    	jne    8542 <_L_lock_22>
    8474:	8b 83 0c 03 00 00    	mov    0x30c(%rbx),%eax
    847a:	45 31 f6             	xor    %r14d,%r14d
    847d:	a8 20                	test   $0x20,%al
    847f:	74 37                	je     84b8 <pthread_getschedparam+0x88>
    8481:	a8 40                	test   $0x40,%al
    8483:	74 5b                	je     84e0 <pthread_getschedparam+0xb0>
    8485:	45 85 f6             	test   %r14d,%r14d
    8488:	74 78                	je     8502 <pthread_getschedparam+0xd2>
    848a:	41 be 01 00 00 00    	mov    $0x1,%r14d
    8490:	f0 ff 8b 18 06 00 00 	lock decl 0x618(%rbx)
    8497:	0f 85 c4 00 00 00    	jne    8561 <_L_unlock_41>
    849d:	44 89 f0             	mov    %r14d,%eax
    84a0:	48 8b 1c 24          	mov    (%rsp),%rbx
    84a4:	4c 8b 64 24 08       	mov    0x8(%rsp),%r12
    84a9:	4c 8b 6c 24 10       	mov    0x10(%rsp),%r13
    84ae:	4c 8b 74 24 18       	mov    0x18(%rsp),%r14
    84b3:	c9                   	leaveq 
    84b4:	c3                   	retq   
    84b5:	0f 1f 00             	nopl   (%rax)
    84b8:	8b bb d0 02 00 00    	mov    0x2d0(%rbx),%edi
    84be:	48 8d b3 38 06 00 00 	lea    0x638(%rbx),%rsi
    84c5:	e8 96 cf ff ff       	callq  5460 <__sched_getparam@plt>
    84ca:	85 c0                	test   %eax,%eax
    84cc:	74 52                	je     8520 <pthread_getschedparam+0xf0>
    84ce:	8b 83 0c 03 00 00    	mov    0x30c(%rbx),%eax
    84d4:	41 b6 01             	mov    $0x1,%r14b
    84d7:	a8 40                	test   $0x40,%al
    84d9:	75 aa                	jne    8485 <pthread_getschedparam+0x55>
    84db:	0f 1f 44 00 00       	nopl   0x0(%rax,%rax,1)
    84e0:	8b bb d0 02 00 00    	mov    0x2d0(%rbx),%edi
    84e6:	e8 45 ce ff ff       	callq  5330 <__sched_getscheduler@plt>
    84eb:	83 f8 ff             	cmp    $0xffffffff,%eax
    84ee:	89 83 3c 06 00 00    	mov    %eax,0x63c(%rbx)
    84f4:	74 94                	je     848a <pthread_getschedparam+0x5a>
    84f6:	83 8b 0c 03 00 00 40 	orl    $0x40,0x30c(%rbx)
    84fd:	45 85 f6             	test   %r14d,%r14d
    8500:	75 88                	jne    848a <pthread_getschedparam+0x5a>
    8502:	8b 83 3c 06 00 00    	mov    0x63c(%rbx),%eax
    8508:	41 89 04 24          	mov    %eax,(%r12)
    850c:	8b 83 38 06 00 00    	mov    0x638(%rbx),%eax
    8512:	41 89 45 00          	mov    %eax,0x0(%r13)
    8516:	e9 75 ff ff ff       	jmpq   8490 <pthread_getschedparam+0x60>
    851b:	0f 1f 44 00 00       	nopl   0x0(%rax,%rax,1)
    8520:	8b 83 0c 03 00 00    	mov    0x30c(%rbx),%eax
    8526:	45 31 f6             	xor    %r14d,%r14d
    8529:	83 c8 20             	or     $0x20,%eax
    852c:	89 83 0c 03 00 00    	mov    %eax,0x30c(%rbx)
    8532:	e9 4a ff ff ff       	jmpq   8481 <pthread_getschedparam+0x51>
    8537:	41 be 03 00 00 00    	mov    $0x3,%r14d
    853d:	e9 5b ff ff ff       	jmpq   849d <pthread_getschedparam+0x6d>

0000000000008542 <_L_lock_22>:
    8542:	48 8d bb 18 06 00 00 	lea    0x618(%rbx),%rdi
    8549:	48 81 ec 80 00 00 00 	sub    $0x80,%rsp
    8550:	e8 4b 5e 00 00       	callq  e3a0 <__lll_lock_wait_private>
    8555:	48 81 c4 80 00 00 00 	add    $0x80,%rsp
    855c:	e9 13 ff ff ff       	jmpq   8474 <pthread_getschedparam+0x44>

0000000000008561 <_L_unlock_41>:
    8561:	48 8d bb 18 06 00 00 	lea    0x618(%rbx),%rdi
    8568:	48 81 ec 80 00 00 00 	sub    $0x80,%rsp
    856f:	e8 bc 5f 00 00       	callq  e530 <__lll_unlock_wake_private>
    8574:	48 81 c4 80 00 00 00 	add    $0x80,%rsp
    857b:	e9 1d ff ff ff       	jmpq   849d <pthread_getschedparam+0x6d>

0000000000008580 <pthread_setschedparam>:
    8580:	55                   	push   %rbp
    8581:	48 89 e5             	mov    %rsp,%rbp
    8584:	48 89 5d e8          	mov    %rbx,-0x18(%rbp)
    8588:	4c 89 65 f0          	mov    %r12,-0x10(%rbp)
    858c:	48 89 fb             	mov    %rdi,%rbx
    858f:	4c 89 6d f8          	mov    %r13,-0x8(%rbp)
    8593:	48 83 ec 30          	sub    $0x30,%rsp
    8597:	8b 87 d0 02 00 00    	mov    0x2d0(%rdi),%eax
    859d:	41 89 f5             	mov    %esi,%r13d
    85a0:	49 89 d4             	mov    %rdx,%r12
    85a3:	85 c0                	test   %eax,%eax
    85a5:	7e 66                	jle    860d <pthread_setschedparam+0x8d>
    85a7:	be 01 00 00 00       	mov    $0x1,%esi
    85ac:	31 c0                	xor    %eax,%eax
    85ae:	f0 0f b1 b3 18 06 00 	lock cmpxchg %esi,0x618(%rbx)
    85b5:	00 
    85b6:	75 77                	jne    862f <_L_lock_20>
    85b8:	48 8b 83 b0 06 00 00 	mov    0x6b0(%rbx),%rax
    85bf:	48 85 c0             	test   %rax,%rax
    85c2:	75 5c                	jne    8620 <pthread_setschedparam+0xa0>
    85c4:	4c 89 e2             	mov    %r12,%rdx
    85c7:	8b bb d0 02 00 00    	mov    0x2d0(%rbx),%edi
    85cd:	44 89 ee             	mov    %r13d,%esi
    85d0:	e8 4b cf ff ff       	callq  5520 <__sched_setscheduler@plt>
    85d5:	83 f8 ff             	cmp    $0xffffffff,%eax
    85d8:	74 3a                	je     8614 <pthread_setschedparam+0x94>
    85da:	44 89 ab 3c 06 00 00 	mov    %r13d,0x63c(%rbx)
    85e1:	41 8b 04 24          	mov    (%r12),%eax
    85e5:	31 d2                	xor    %edx,%edx
    85e7:	83 8b 0c 03 00 00 60 	orl    $0x60,0x30c(%rbx)
    85ee:	89 83 38 06 00 00    	mov    %eax,0x638(%rbx)
    85f4:	f0 ff 8b 18 06 00 00 	lock decl 0x618(%rbx)
    85fb:	75 51                	jne    864e <_L_unlock_42>
    85fd:	89 d0                	mov    %edx,%eax
    85ff:	48 8b 5d e8          	mov    -0x18(%rbp),%rbx
    8603:	4c 8b 65 f0          	mov    -0x10(%rbp),%r12
    8607:	4c 8b 6d f8          	mov    -0x8(%rbp),%r13
    860b:	c9                   	leaveq 
    860c:	c3                   	retq   
    860d:	ba 03 00 00 00       	mov    $0x3,%edx
    8612:	eb e9                	jmp    85fd <pthread_setschedparam+0x7d>
    8614:	48 8b 05 65 f9 20 00 	mov    0x20f965(%rip),%rax        # 217f80 <_DYNAMIC+0x1f0>
    861b:	64 8b 10             	mov    %fs:(%rax),%edx
    861e:	eb d4                	jmp    85f4 <pthread_setschedparam+0x74>
    8620:	8b 00                	mov    (%rax),%eax
    8622:	3b 02                	cmp    (%rdx),%eax
    8624:	7e 9e                	jle    85c4 <pthread_setschedparam+0x44>
    8626:	89 45 d0             	mov    %eax,-0x30(%rbp)
    8629:	48 8d 55 d0          	lea    -0x30(%rbp),%rdx
    862d:	eb 98                	jmp    85c7 <pthread_setschedparam+0x47>

000000000000862f <_L_lock_20>:
    862f:	48 8d bb 18 06 00 00 	lea    0x618(%rbx),%rdi
    8636:	48 81 ec 80 00 00 00 	sub    $0x80,%rsp
    863d:	e8 5e 5d 00 00       	callq  e3a0 <__lll_lock_wait_private>
    8642:	48 81 c4 80 00 00 00 	add    $0x80,%rsp
    8649:	e9 6a ff ff ff       	jmpq   85b8 <pthread_setschedparam+0x38>

000000000000864e <_L_unlock_42>:
    864e:	48 8d bb 18 06 00 00 	lea    0x618(%rbx),%rdi
    8655:	48 81 ec 80 00 00 00 	sub    $0x80,%rsp
    865c:	e8 cf 5e 00 00       	callq  e530 <__lll_unlock_wake_private>
    8661:	48 81 c4 80 00 00 00 	add    $0x80,%rsp
    8668:	eb 93                	jmp    85fd <pthread_setschedparam+0x7d>
    866a:	90                   	nop
    866b:	90                   	nop
    866c:	90                   	nop
    866d:	90                   	nop
    866e:	90                   	nop
    866f:	90                   	nop

0000000000008670 <pthread_setschedprio>:
    8670:	55                   	push   %rbp
    8671:	48 89 e5             	mov    %rsp,%rbp
    8674:	41 54                	push   %r12
    8676:	41 89 f4             	mov    %esi,%r12d
    8679:	53                   	push   %rbx
    867a:	48 89 fb             	mov    %rdi,%rbx
    867d:	48 83 ec 10          	sub    $0x10,%rsp
    8681:	8b 87 d0 02 00 00    	mov    0x2d0(%rdi),%eax
    8687:	85 c0                	test   %eax,%eax
    8689:	7e 5c                	jle    86e7 <pthread_setschedprio+0x77>
    868b:	89 75 e0             	mov    %esi,-0x20(%rbp)
    868e:	31 c0                	xor    %eax,%eax
    8690:	be 01 00 00 00       	mov    $0x1,%esi
    8695:	f0 0f b1 b3 18 06 00 	lock cmpxchg %esi,0x618(%rbx)
    869c:	00 
    869d:	75 67                	jne    8706 <_L_lock_19>
    869f:	48 8b 83 b0 06 00 00 	mov    0x6b0(%rbx),%rax
    86a6:	48 85 c0             	test   %rax,%rax
    86a9:	75 4f                	jne    86fa <pthread_setschedprio+0x8a>
    86ab:	8b bb d0 02 00 00    	mov    0x2d0(%rbx),%edi
    86b1:	48 8d 75 e0          	lea    -0x20(%rbp),%rsi
    86b5:	e8 c6 cf ff ff       	callq  5680 <sched_setparam@plt>
    86ba:	83 f8 ff             	cmp    $0xffffffff,%eax
    86bd:	74 2f                	je     86ee <pthread_setschedprio+0x7e>
    86bf:	44 89 65 e0          	mov    %r12d,-0x20(%rbp)
    86c3:	83 8b 0c 03 00 00 20 	orl    $0x20,0x30c(%rbx)
    86ca:	31 d2                	xor    %edx,%edx
    86cc:	44 89 a3 38 06 00 00 	mov    %r12d,0x638(%rbx)
    86d3:	f0 ff 8b 18 06 00 00 	lock decl 0x618(%rbx)
    86da:	75 49                	jne    8725 <_L_unlock_37>
    86dc:	48 83 c4 10          	add    $0x10,%rsp
    86e0:	89 d0                	mov    %edx,%eax
    86e2:	5b                   	pop    %rbx
    86e3:	41 5c                	pop    %r12
    86e5:	c9                   	leaveq 
    86e6:	c3                   	retq   
    86e7:	ba 03 00 00 00       	mov    $0x3,%edx
    86ec:	eb ee                	jmp    86dc <pthread_setschedprio+0x6c>
    86ee:	48 8b 05 8b f8 20 00 	mov    0x20f88b(%rip),%rax        # 217f80 <_DYNAMIC+0x1f0>
    86f5:	64 8b 10             	mov    %fs:(%rax),%edx
    86f8:	eb d9                	jmp    86d3 <pthread_setschedprio+0x63>
    86fa:	8b 00                	mov    (%rax),%eax
    86fc:	41 39 c4             	cmp    %eax,%r12d
    86ff:	7d aa                	jge    86ab <pthread_setschedprio+0x3b>
    8701:	89 45 e0             	mov    %eax,-0x20(%rbp)
    8704:	eb a5                	jmp    86ab <pthread_setschedprio+0x3b>

0000000000008706 <_L_lock_19>:
    8706:	48 8d bb 18 06 00 00 	lea    0x618(%rbx),%rdi
    870d:	48 81 ec 80 00 00 00 	sub    $0x80,%rsp
    8714:	e8 87 5c 00 00       	callq  e3a0 <__lll_lock_wait_private>
    8719:	48 81 c4 80 00 00 00 	add    $0x80,%rsp
    8720:	e9 7a ff ff ff       	jmpq   869f <pthread_setschedprio+0x2f>

0000000000008725 <_L_unlock_37>:
    8725:	48 8d bb 18 06 00 00 	lea    0x618(%rbx),%rdi
    872c:	48 81 ec 80 00 00 00 	sub    $0x80,%rsp
    8733:	e8 f8 5d 00 00       	callq  e530 <__lll_unlock_wake_private>
    8738:	48 81 c4 80 00 00 00 	add    $0x80,%rsp
    873f:	eb 9b                	jmp    86dc <pthread_setschedprio+0x6c>
    8741:	90                   	nop
    8742:	90                   	nop
    8743:	90                   	nop
    8744:	90                   	nop
    8745:	90                   	nop
    8746:	90                   	nop
    8747:	90                   	nop
    8748:	90                   	nop
    8749:	90                   	nop
    874a:	90                   	nop
    874b:	90                   	nop
    874c:	90                   	nop
    874d:	90                   	nop
    874e:	90                   	nop
    874f:	90                   	nop

0000000000008750 <pthread_attr_init@@GLIBC_2.2.5>:
    8750:	55                   	push   %rbp
    8751:	31 c0                	xor    %eax,%eax
    8753:	b9 07 00 00 00       	mov    $0x7,%ecx
    8758:	48 89 e5             	mov    %rsp,%rbp
    875b:	53                   	push   %rbx
    875c:	48 89 fb             	mov    %rdi,%rbx
    875f:	48 83 ec 08          	sub    $0x8,%rsp
    8763:	f3 48 ab             	rep stos %rax,%es:(%rdi)
    8766:	e8 d5 cd ff ff       	callq  5540 <__getpagesize@plt>
    876b:	48 98                	cltq   
    876d:	48 89 43 10          	mov    %rax,0x10(%rbx)
    8771:	48 83 c4 08          	add    $0x8,%rsp
    8775:	31 c0                	xor    %eax,%eax
    8777:	5b                   	pop    %rbx
    8778:	c9                   	leaveq 
    8779:	c3                   	retq   
    877a:	90                   	nop
    877b:	90                   	nop
    877c:	90                   	nop
    877d:	90                   	nop
    877e:	90                   	nop
    877f:	90                   	nop

0000000000008780 <pthread_attr_destroy>:
    8780:	55                   	push   %rbp
    8781:	48 8b 7f 28          	mov    0x28(%rdi),%rdi
    8785:	48 89 e5             	mov    %rsp,%rbp
    8788:	e8 63 cb ff ff       	callq  52f0 <free@plt>
    878d:	31 c0                	xor    %eax,%eax
    878f:	c9                   	leaveq 
    8790:	c3                   	retq   
    8791:	90                   	nop
    8792:	90                   	nop
    8793:	90                   	nop
    8794:	90                   	nop
    8795:	90                   	nop
    8796:	90                   	nop
    8797:	90                   	nop
    8798:	90                   	nop
    8799:	90                   	nop
    879a:	90                   	nop
    879b:	90                   	nop
    879c:	90                   	nop
    879d:	90                   	nop
    879e:	90                   	nop
    879f:	90                   	nop

00000000000087a0 <pthread_attr_getdetachstate>:
    87a0:	8b 47 08             	mov    0x8(%rdi),%eax
    87a3:	55                   	push   %rbp
    87a4:	48 89 e5             	mov    %rsp,%rbp
    87a7:	83 e0 01             	and    $0x1,%eax
    87aa:	89 06                	mov    %eax,(%rsi)
    87ac:	31 c0                	xor    %eax,%eax
    87ae:	c9                   	leaveq 
    87af:	c3                   	retq   

00000000000087b0 <pthread_attr_setdetachstate>:
    87b0:	55                   	push   %rbp
    87b1:	83 fe 01             	cmp    $0x1,%esi
    87b4:	48 89 e5             	mov    %rsp,%rbp
    87b7:	74 0f                	je     87c8 <pthread_attr_setdetachstate+0x18>
    87b9:	85 f6                	test   %esi,%esi
    87bb:	75 13                	jne    87d0 <pthread_attr_setdetachstate+0x20>
    87bd:	83 67 08 fe          	andl   $0xfffffffe,0x8(%rdi)
    87c1:	31 c0                	xor    %eax,%eax
    87c3:	c9                   	leaveq 
    87c4:	c3                   	retq   
    87c5:	0f 1f 00             	nopl   (%rax)
    87c8:	83 4f 08 01          	orl    $0x1,0x8(%rdi)
    87cc:	31 c0                	xor    %eax,%eax
    87ce:	c9                   	leaveq 
    87cf:	c3                   	retq   
    87d0:	b8 16 00 00 00       	mov    $0x16,%eax
    87d5:	c9                   	leaveq 
    87d6:	c3                   	retq   
    87d7:	90                   	nop
    87d8:	90                   	nop
    87d9:	90                   	nop
    87da:	90                   	nop
    87db:	90                   	nop
    87dc:	90                   	nop
    87dd:	90                   	nop
    87de:	90                   	nop
    87df:	90                   	nop

00000000000087e0 <pthread_attr_getguardsize>:
    87e0:	48 8b 47 10          	mov    0x10(%rdi),%rax
    87e4:	55                   	push   %rbp
    87e5:	48 89 e5             	mov    %rsp,%rbp
    87e8:	48 89 06             	mov    %rax,(%rsi)
    87eb:	31 c0                	xor    %eax,%eax
    87ed:	c9                   	leaveq 
    87ee:	c3                   	retq   
    87ef:	90                   	nop

00000000000087f0 <pthread_attr_setguardsize>:
    87f0:	55                   	push   %rbp
    87f1:	48 89 77 10          	mov    %rsi,0x10(%rdi)
    87f5:	31 c0                	xor    %eax,%eax
    87f7:	48 89 e5             	mov    %rsp,%rbp
    87fa:	c9                   	leaveq 
    87fb:	c3                   	retq   
    87fc:	90                   	nop
    87fd:	90                   	nop
    87fe:	90                   	nop
    87ff:	90                   	nop

0000000000008800 <pthread_attr_getschedparam>:
    8800:	8b 07                	mov    (%rdi),%eax
    8802:	55                   	push   %rbp
    8803:	48 89 e5             	mov    %rsp,%rbp
    8806:	89 06                	mov    %eax,(%rsi)
    8808:	31 c0                	xor    %eax,%eax
    880a:	c9                   	leaveq 
    880b:	c3                   	retq   
    880c:	90                   	nop
    880d:	90                   	nop
    880e:	90                   	nop
    880f:	90                   	nop

0000000000008810 <pthread_attr_setschedparam>:
    8810:	55                   	push   %rbp
    8811:	48 89 e5             	mov    %rsp,%rbp
    8814:	48 89 5d e8          	mov    %rbx,-0x18(%rbp)
    8818:	4c 89 65 f0          	mov    %r12,-0x10(%rbp)
    881c:	48 89 fb             	mov    %rdi,%rbx
    881f:	4c 89 6d f8          	mov    %r13,-0x8(%rbp)
    8823:	48 83 ec 20          	sub    $0x20,%rsp
    8827:	8b 7f 04             	mov    0x4(%rdi),%edi
    882a:	49 89 f5             	mov    %rsi,%r13
    882d:	e8 2e cd ff ff       	callq  5560 <sched_get_priority_min@plt>
    8832:	8b 7b 04             	mov    0x4(%rbx),%edi
    8835:	41 89 c4             	mov    %eax,%r12d
    8838:	e8 93 ce ff ff       	callq  56d0 <sched_get_priority_max@plt>
    883d:	83 f8 ff             	cmp    $0xffffffff,%eax
    8840:	74 15                	je     8857 <pthread_attr_setschedparam+0x47>
    8842:	41 83 fc ff          	cmp    $0xffffffff,%r12d
    8846:	74 0f                	je     8857 <pthread_attr_setschedparam+0x47>
    8848:	41 8b 55 00          	mov    0x0(%r13),%edx
    884c:	39 d0                	cmp    %edx,%eax
    884e:	66 90                	xchg   %ax,%ax
    8850:	7c 05                	jl     8857 <pthread_attr_setschedparam+0x47>
    8852:	41 39 d4             	cmp    %edx,%r12d
    8855:	7e 19                	jle    8870 <pthread_attr_setschedparam+0x60>
    8857:	b8 16 00 00 00       	mov    $0x16,%eax
    885c:	48 8b 5d e8          	mov    -0x18(%rbp),%rbx
    8860:	4c 8b 65 f0          	mov    -0x10(%rbp),%r12
    8864:	4c 8b 6d f8          	mov    -0x8(%rbp),%r13
    8868:	c9                   	leaveq 
    8869:	c3                   	retq   
    886a:	66 0f 1f 44 00 00    	nopw   0x0(%rax,%rax,1)
    8870:	89 13                	mov    %edx,(%rbx)
    8872:	83 4b 08 20          	orl    $0x20,0x8(%rbx)
    8876:	31 c0                	xor    %eax,%eax
    8878:	eb e2                	jmp    885c <pthread_attr_setschedparam+0x4c>
    887a:	90                   	nop
    887b:	90                   	nop
    887c:	90                   	nop
    887d:	90                   	nop
    887e:	90                   	nop
    887f:	90                   	nop

0000000000008880 <pthread_attr_getschedpolicy>:
    8880:	8b 47 04             	mov    0x4(%rdi),%eax
    8883:	55                   	push   %rbp
    8884:	48 89 e5             	mov    %rsp,%rbp
    8887:	89 06                	mov    %eax,(%rsi)
    8889:	31 c0                	xor    %eax,%eax
    888b:	c9                   	leaveq 
    888c:	c3                   	retq   
    888d:	90                   	nop
    888e:	90                   	nop
    888f:	90                   	nop

0000000000008890 <pthread_attr_setschedpolicy>:
    8890:	55                   	push   %rbp
    8891:	83 fe 02             	cmp    $0x2,%esi
    8894:	b8 16 00 00 00       	mov    $0x16,%eax
    8899:	48 89 e5             	mov    %rsp,%rbp
    889c:	77 09                	ja     88a7 <pthread_attr_setschedpolicy+0x17>
    889e:	83 4f 08 40          	orl    $0x40,0x8(%rdi)
    88a2:	89 77 04             	mov    %esi,0x4(%rdi)
    88a5:	30 c0                	xor    %al,%al
    88a7:	c9                   	leaveq 
    88a8:	c3                   	retq   
    88a9:	90                   	nop
    88aa:	90                   	nop
    88ab:	90                   	nop
    88ac:	90                   	nop
    88ad:	90                   	nop
    88ae:	90                   	nop
    88af:	90                   	nop

00000000000088b0 <pthread_attr_getinheritsched>:
    88b0:	8b 47 08             	mov    0x8(%rdi),%eax
    88b3:	55                   	push   %rbp
    88b4:	48 89 e5             	mov    %rsp,%rbp
    88b7:	d1 e8                	shr    %eax
    88b9:	83 e0 01             	and    $0x1,%eax
    88bc:	89 06                	mov    %eax,(%rsi)
    88be:	31 c0                	xor    %eax,%eax
    88c0:	c9                   	leaveq 
    88c1:	c3                   	retq   
    88c2:	90                   	nop
    88c3:	90                   	nop
    88c4:	90                   	nop
    88c5:	90                   	nop
    88c6:	90                   	nop
    88c7:	90                   	nop
    88c8:	90                   	nop
    88c9:	90                   	nop
    88ca:	90                   	nop
    88cb:	90                   	nop
    88cc:	90                   	nop
    88cd:	90                   	nop
    88ce:	90                   	nop
    88cf:	90                   	nop

00000000000088d0 <pthread_attr_setinheritsched>:
    88d0:	55                   	push   %rbp
    88d1:	83 fe 01             	cmp    $0x1,%esi
    88d4:	b8 16 00 00 00       	mov    $0x16,%eax
    88d9:	48 89 e5             	mov    %rsp,%rbp
    88dc:	76 02                	jbe    88e0 <pthread_attr_setinheritsched+0x10>
    88de:	c9                   	leaveq 
    88df:	c3                   	retq   
    88e0:	85 f6                	test   %esi,%esi
    88e2:	75 0c                	jne    88f0 <pthread_attr_setinheritsched+0x20>
    88e4:	83 67 08 fd          	andl   $0xfffffffd,0x8(%rdi)
    88e8:	31 c0                	xor    %eax,%eax
    88ea:	c9                   	leaveq 
    88eb:	c3                   	retq   
    88ec:	0f 1f 40 00          	nopl   0x0(%rax)
    88f0:	83 4f 08 02          	orl    $0x2,0x8(%rdi)
    88f4:	30 c0                	xor    %al,%al
    88f6:	c9                   	leaveq 
    88f7:	c3                   	retq   
    88f8:	90                   	nop
    88f9:	90                   	nop
    88fa:	90                   	nop
    88fb:	90                   	nop
    88fc:	90                   	nop
    88fd:	90                   	nop
    88fe:	90                   	nop
    88ff:	90                   	nop

0000000000008900 <pthread_attr_getscope>:
    8900:	8b 47 08             	mov    0x8(%rdi),%eax
    8903:	55                   	push   %rbp
    8904:	48 89 e5             	mov    %rsp,%rbp
    8907:	c1 e8 02             	shr    $0x2,%eax
    890a:	83 e0 01             	and    $0x1,%eax
    890d:	89 06                	mov    %eax,(%rsi)
    890f:	31 c0                	xor    %eax,%eax
    8911:	c9                   	leaveq 
    8912:	c3                   	retq   
    8913:	90                   	nop
    8914:	90                   	nop
    8915:	90                   	nop
    8916:	90                   	nop
    8917:	90                   	nop
    8918:	90                   	nop
    8919:	90                   	nop
    891a:	90                   	nop
    891b:	90                   	nop
    891c:	90                   	nop
    891d:	90                   	nop
    891e:	90                   	nop
    891f:	90                   	nop

0000000000008920 <pthread_attr_setscope>:
    8920:	55                   	push   %rbp
    8921:	85 f6                	test   %esi,%esi
    8923:	48 89 e5             	mov    %rsp,%rbp
    8926:	75 08                	jne    8930 <pthread_attr_setscope+0x10>
    8928:	83 67 08 fb          	andl   $0xfffffffb,0x8(%rdi)
    892c:	31 c0                	xor    %eax,%eax
    892e:	c9                   	leaveq 
    892f:	c3                   	retq   
    8930:	b8 16 00 00 00       	mov    $0x16,%eax
    8935:	83 fe 01             	cmp    $0x1,%esi
    8938:	ba 5f 00 00 00       	mov    $0x5f,%edx
    893d:	0f 44 c2             	cmove  %edx,%eax
    8940:	c9                   	leaveq 
    8941:	c3                   	retq   
    8942:	90                   	nop
    8943:	90                   	nop
    8944:	90                   	nop
    8945:	90                   	nop
    8946:	90                   	nop
    8947:	90                   	nop
    8948:	90                   	nop
    8949:	90                   	nop
    894a:	90                   	nop
    894b:	90                   	nop
    894c:	90                   	nop
    894d:	90                   	nop
    894e:	90                   	nop
    894f:	90                   	nop

0000000000008950 <pthread_attr_getstackaddr>:
    8950:	48 8b 47 18          	mov    0x18(%rdi),%rax
    8954:	55                   	push   %rbp
    8955:	48 89 e5             	mov    %rsp,%rbp
    8958:	48 89 06             	mov    %rax,(%rsi)
    895b:	31 c0                	xor    %eax,%eax
    895d:	c9                   	leaveq 
    895e:	c3                   	retq   
    895f:	90                   	nop

0000000000008960 <pthread_attr_setstackaddr>:
    8960:	55                   	push   %rbp
    8961:	48 89 77 18          	mov    %rsi,0x18(%rdi)
    8965:	31 c0                	xor    %eax,%eax
    8967:	83 4f 08 08          	orl    $0x8,0x8(%rdi)
    896b:	48 89 e5             	mov    %rsp,%rbp
    896e:	c9                   	leaveq 
    896f:	c3                   	retq   

0000000000008970 <pthread_attr_getstacksize>:
    8970:	48 8b 47 20          	mov    0x20(%rdi),%rax
    8974:	55                   	push   %rbp
    8975:	48 89 e5             	mov    %rsp,%rbp
    8978:	48 85 c0             	test   %rax,%rax
    897b:	48 0f 44 05 cd 39 21 	cmove  0x2139cd(%rip),%rax        # 21c350 <__default_stacksize>
    8982:	00 
    8983:	48 89 06             	mov    %rax,(%rsi)
    8986:	31 c0                	xor    %eax,%eax
    8988:	c9                   	leaveq 
    8989:	c3                   	retq   
    898a:	90                   	nop
    898b:	90                   	nop
    898c:	90                   	nop
    898d:	90                   	nop
    898e:	90                   	nop
    898f:	90                   	nop

0000000000008990 <pthread_attr_setstacksize>:
    8990:	55                   	push   %rbp
    8991:	48 81 fe ff 3f 00 00 	cmp    $0x3fff,%rsi
    8998:	b8 16 00 00 00       	mov    $0x16,%eax
    899d:	48 89 e5             	mov    %rsp,%rbp
    89a0:	76 06                	jbe    89a8 <pthread_attr_setstacksize+0x18>
    89a2:	48 89 77 20          	mov    %rsi,0x20(%rdi)
    89a6:	30 c0                	xor    %al,%al
    89a8:	c9                   	leaveq 
    89a9:	c3                   	retq   
    89aa:	90                   	nop
    89ab:	90                   	nop
    89ac:	90                   	nop
    89ad:	90                   	nop
    89ae:	90                   	nop
    89af:	90                   	nop

00000000000089b0 <pthread_attr_getstack>:
    89b0:	48 8b 4f 20          	mov    0x20(%rdi),%rcx
    89b4:	55                   	push   %rbp
    89b5:	48 89 e5             	mov    %rsp,%rbp
    89b8:	48 89 c8             	mov    %rcx,%rax
    89bb:	48 89 0a             	mov    %rcx,(%rdx)
    89be:	48 f7 d8             	neg    %rax
    89c1:	48 03 47 18          	add    0x18(%rdi),%rax
    89c5:	48 89 06             	mov    %rax,(%rsi)
    89c8:	31 c0                	xor    %eax,%eax
    89ca:	c9                   	leaveq 
    89cb:	c3                   	retq   
    89cc:	90                   	nop
    89cd:	90                   	nop
    89ce:	90                   	nop
    89cf:	90                   	nop

00000000000089d0 <pthread_attr_setstack>:
    89d0:	55                   	push   %rbp
    89d1:	48 81 fa ff 3f 00 00 	cmp    $0x3fff,%rdx
    89d8:	b8 16 00 00 00       	mov    $0x16,%eax
    89dd:	48 89 e5             	mov    %rsp,%rbp
    89e0:	76 11                	jbe    89f3 <pthread_attr_setstack+0x23>
    89e2:	83 4f 08 08          	orl    $0x8,0x8(%rdi)
    89e6:	48 01 d6             	add    %rdx,%rsi
    89e9:	48 89 57 20          	mov    %rdx,0x20(%rdi)
    89ed:	48 89 77 18          	mov    %rsi,0x18(%rdi)
    89f1:	30 c0                	xor    %al,%al
    89f3:	c9                   	leaveq 
    89f4:	c3                   	retq   
    89f5:	90                   	nop
    89f6:	90                   	nop
    89f7:	90                   	nop
    89f8:	90                   	nop
    89f9:	90                   	nop
    89fa:	90                   	nop
    89fb:	90                   	nop
    89fc:	90                   	nop
    89fd:	90                   	nop
    89fe:	90                   	nop
    89ff:	90                   	nop

0000000000008a00 <pthread_getattr_np>:
    8a00:	55                   	push   %rbp
    8a01:	31 c0                	xor    %eax,%eax
    8a03:	48 89 e5             	mov    %rsp,%rbp
    8a06:	41 57                	push   %r15
    8a08:	41 56                	push   %r14
    8a0a:	41 55                	push   %r13
    8a0c:	41 54                	push   %r12
    8a0e:	49 89 f4             	mov    %rsi,%r12
    8a11:	be 01 00 00 00       	mov    $0x1,%esi
    8a16:	53                   	push   %rbx
    8a17:	48 89 fb             	mov    %rdi,%rbx
    8a1a:	48 83 ec 68          	sub    $0x68,%rsp
    8a1e:	f0 0f b1 b3 18 06 00 	lock cmpxchg %esi,0x618(%rbx)
    8a25:	00 
    8a26:	0f 85 f0 02 00 00    	jne    8d1c <_L_lock_17>
    8a2c:	8b 83 38 06 00 00    	mov    0x638(%rbx),%eax
    8a32:	41 89 04 24          	mov    %eax,(%r12)
    8a36:	8b 83 3c 06 00 00    	mov    0x63c(%rbx),%eax
    8a3c:	48 39 9b 28 06 00 00 	cmp    %rbx,0x628(%rbx)
    8a43:	41 89 44 24 04       	mov    %eax,0x4(%r12)
    8a48:	8b 83 0c 03 00 00    	mov    0x30c(%rbx),%eax
    8a4e:	41 89 44 24 08       	mov    %eax,0x8(%r12)
    8a53:	0f 84 f7 00 00 00    	je     8b50 <pthread_getattr_np+0x150>
    8a59:	48 83 bb 90 06 00 00 	cmpq   $0x0,0x690(%rbx)
    8a60:	00 
    8a61:	48 8b 83 a8 06 00 00 	mov    0x6a8(%rbx),%rax
    8a68:	49 89 44 24 10       	mov    %rax,0x10(%r12)
    8a6d:	0f 84 ea 00 00 00    	je     8b5d <pthread_getattr_np+0x15d>
    8a73:	48 8b 83 98 06 00 00 	mov    0x698(%rbx),%rax
    8a7a:	41 83 4c 24 08 08    	orl    $0x8,0x8(%r12)
    8a80:	49 89 44 24 20       	mov    %rax,0x20(%r12)
    8a85:	48 03 83 90 06 00 00 	add    0x690(%rbx),%rax
    8a8c:	49 89 44 24 18       	mov    %rax,0x18(%r12)
    8a91:	45 31 f6             	xor    %r14d,%r14d
    8a94:	41 bd 10 00 00 00    	mov    $0x10,%r13d
    8a9a:	4d 01 ed             	add    %r13,%r13
    8a9d:	4c 89 f7             	mov    %r14,%rdi
    8aa0:	4c 89 ee             	mov    %r13,%rsi
    8aa3:	e8 08 cb ff ff       	callq  55b0 <realloc@plt>
    8aa8:	48 85 c0             	test   %rax,%rax
    8aab:	49 89 c7             	mov    %rax,%r15
    8aae:	0f 84 8c 00 00 00    	je     8b40 <pthread_getattr_np+0x140>
    8ab4:	48 89 c2             	mov    %rax,%rdx
    8ab7:	4c 89 ee             	mov    %r13,%rsi
    8aba:	48 89 df             	mov    %rbx,%rdi
    8abd:	49 89 c6             	mov    %rax,%r14
    8ac0:	e8 2b 6f 00 00       	callq  f9f0 <pthread_getaffinity_np@@GLIBC_2.3.4>
    8ac5:	83 f8 16             	cmp    $0x16,%eax
    8ac8:	75 56                	jne    8b20 <pthread_getattr_np+0x120>
    8aca:	49 81 fd ff ff 0f 00 	cmp    $0xfffff,%r13
    8ad1:	76 c7                	jbe    8a9a <pthread_getattr_np+0x9a>
    8ad3:	4c 89 f9             	mov    %r15,%rcx
    8ad6:	41 89 c7             	mov    %eax,%r15d
    8ad9:	48 89 cf             	mov    %rcx,%rdi
    8adc:	e8 0f c8 ff ff       	callq  52f0 <free@plt>
    8ae1:	41 83 ff 26          	cmp    $0x26,%r15d
    8ae5:	75 19                	jne    8b00 <pthread_getattr_np+0x100>
    8ae7:	49 c7 44 24 28 00 00 	movq   $0x0,0x28(%r12)
    8aee:	00 00 
    8af0:	49 c7 44 24 30 00 00 	movq   $0x0,0x30(%r12)
    8af7:	00 00 
    8af9:	45 30 ff             	xor    %r15b,%r15b
    8afc:	0f 1f 40 00          	nopl   0x0(%rax)
    8b00:	f0 ff 8b 18 06 00 00 	lock decl 0x618(%rbx)
    8b07:	0f 85 2e 02 00 00    	jne    8d3b <_L_unlock_77>
    8b0d:	48 83 c4 68          	add    $0x68,%rsp
    8b11:	44 89 f8             	mov    %r15d,%eax
    8b14:	5b                   	pop    %rbx
    8b15:	41 5c                	pop    %r12
    8b17:	41 5d                	pop    %r13
    8b19:	41 5e                	pop    %r14
    8b1b:	41 5f                	pop    %r15
    8b1d:	c9                   	leaveq 
    8b1e:	c3                   	retq   
    8b1f:	90                   	nop
    8b20:	85 c0                	test   %eax,%eax
    8b22:	4c 89 f9             	mov    %r15,%rcx
    8b25:	41 89 c7             	mov    %eax,%r15d
    8b28:	75 af                	jne    8ad9 <pthread_getattr_np+0xd9>
    8b2a:	4d 89 74 24 28       	mov    %r14,0x28(%r12)
    8b2f:	4d 89 6c 24 30       	mov    %r13,0x30(%r12)
    8b34:	eb ca                	jmp    8b00 <pthread_getattr_np+0x100>
    8b36:	66 2e 0f 1f 84 00 00 	nopw   %cs:0x0(%rax,%rax,1)
    8b3d:	00 00 00 
    8b40:	4c 89 f7             	mov    %r14,%rdi
    8b43:	41 bf 0c 00 00 00    	mov    $0xc,%r15d
    8b49:	e8 a2 c7 ff ff       	callq  52f0 <free@plt>
    8b4e:	eb b0                	jmp    8b00 <pthread_getattr_np+0x100>
    8b50:	83 c8 01             	or     $0x1,%eax
    8b53:	41 89 44 24 08       	mov    %eax,0x8(%r12)
    8b58:	e9 fc fe ff ff       	jmpq   8a59 <pthread_getattr_np+0x59>
    8b5d:	8b 83 d4 02 00 00    	mov    0x2d4(%rbx),%eax
    8b63:	8b 93 d4 02 00 00    	mov    0x2d4(%rbx),%edx
    8b69:	c1 f8 1f             	sar    $0x1f,%eax
    8b6c:	31 c2                	xor    %eax,%edx
    8b6e:	29 c2                	sub    %eax,%edx
    8b70:	3b 93 d0 02 00 00    	cmp    0x2d0(%rbx),%edx
    8b76:	75 58                	jne    8bd0 <pthread_getattr_np+0x1d0>
    8b78:	48 8d 35 8e 8e 00 00 	lea    0x8e8e(%rip),%rsi        # 11a0d <default_attr+0x4d>
    8b7f:	48 8d 3d 8b 8e 00 00 	lea    0x8e8b(%rip),%rdi        # 11a11 <default_attr+0x51>
    8b86:	e8 c5 ca ff ff       	callq  5650 <fopen@plt>
    8b8b:	48 85 c0             	test   %rax,%rax
    8b8e:	49 89 c5             	mov    %rax,%r13
    8b91:	0f 84 75 01 00 00    	je     8d0c <pthread_getattr_np+0x30c>
    8b97:	48 8d 75 a0          	lea    -0x60(%rbp),%rsi
    8b9b:	bf 03 00 00 00       	mov    $0x3,%edi
    8ba0:	e8 3b cb ff ff       	callq  56e0 <getrlimit@plt>
    8ba5:	85 c0                	test   %eax,%eax
    8ba7:	74 46                	je     8bef <pthread_getattr_np+0x1ef>
    8ba9:	48 8b 05 d0 f3 20 00 	mov    0x20f3d0(%rip),%rax        # 217f80 <_DYNAMIC+0x1f0>
    8bb0:	64 44 8b 38          	mov    %fs:(%rax),%r15d
    8bb4:	4c 89 ef             	mov    %r13,%rdi
    8bb7:	e8 c4 c7 ff ff       	callq  5380 <fclose@plt>
    8bbc:	41 83 4c 24 08 08    	orl    $0x8,0x8(%r12)
    8bc2:	45 85 ff             	test   %r15d,%r15d
    8bc5:	0f 85 35 ff ff ff    	jne    8b00 <pthread_getattr_np+0x100>
    8bcb:	e9 c1 fe ff ff       	jmpq   8a91 <pthread_getattr_np+0x91>
    8bd0:	48 8d 0d 89 8e 00 00 	lea    0x8e89(%rip),%rcx        # 11a60 <__PRETTY_FUNCTION__.9858>
    8bd7:	48 8d 35 1a 8e 00 00 	lea    0x8e1a(%rip),%rsi        # 119f8 <default_attr+0x38>
    8bde:	48 8d 3d 4b 8e 00 00 	lea    0x8e4b(%rip),%rdi        # 11a30 <default_attr+0x70>
    8be5:	ba 45 00 00 00       	mov    $0x45,%edx
    8bea:	e8 f1 c7 ff ff       	callq  53e0 <__assert_fail@plt>
    8bef:	48 8b 05 b2 f3 20 00 	mov    0x20f3b2(%rip),%rax        # 217fa8 <_DYNAMIC+0x218>
    8bf6:	48 8d 55 c0          	lea    -0x40(%rbp),%rdx
    8bfa:	48 c7 45 c8 00 00 00 	movq   $0x0,-0x38(%rbp)
    8c01:	00 
    8c02:	48 c7 45 c0 00 00 00 	movq   $0x0,-0x40(%rbp)
    8c09:	00 
    8c0a:	45 31 f6             	xor    %r14d,%r14d
    8c0d:	48 89 55 90          	mov    %rdx,-0x70(%rbp)
    8c11:	48 8d 55 c8          	lea    -0x38(%rbp),%rdx
    8c15:	4c 8b 78 18          	mov    0x18(%rax),%r15
    8c19:	48 8b 05 80 f3 20 00 	mov    0x20f380(%rip),%rax        # 217fa0 <_DYNAMIC+0x210>
    8c20:	48 89 55 88          	mov    %rdx,-0x78(%rbp)
    8c24:	48 8d 55 b0          	lea    -0x50(%rbp),%rdx
    8c28:	48 8b 00             	mov    (%rax),%rax
    8c2b:	48 89 55 80          	mov    %rdx,-0x80(%rbp)
    8c2f:	48 8d 55 b8          	lea    -0x48(%rbp),%rdx
    8c33:	48 89 95 78 ff ff ff 	mov    %rdx,-0x88(%rbp)
    8c3a:	48 89 45 98          	mov    %rax,-0x68(%rbp)
    8c3e:	41 8b 45 00          	mov    0x0(%r13),%eax
    8c42:	80 cc 80             	or     $0x80,%ah
    8c45:	41 89 45 00          	mov    %eax,0x0(%r13)
    8c49:	eb 04                	jmp    8c4f <pthread_getattr_np+0x24f>
    8c4b:	41 8b 45 00          	mov    0x0(%r13),%eax
    8c4f:	a8 10                	test   $0x10,%al
    8c51:	0f 85 ad 00 00 00    	jne    8d04 <pthread_getattr_np+0x304>
    8c57:	48 8b 75 90          	mov    -0x70(%rbp),%rsi
    8c5b:	48 8b 7d 88          	mov    -0x78(%rbp),%rdi
    8c5f:	4c 89 e9             	mov    %r13,%rcx
    8c62:	ba 0a 00 00 00       	mov    $0xa,%edx
    8c67:	e8 24 c8 ff ff       	callq  5490 <__getdelim@plt>
    8c6c:	48 85 c0             	test   %rax,%rax
    8c6f:	0f 8e 8f 00 00 00    	jle    8d04 <pthread_getattr_np+0x304>
    8c75:	48 8b 4d 80          	mov    -0x80(%rbp),%rcx
    8c79:	48 8b 95 78 ff ff ff 	mov    -0x88(%rbp),%rdx
    8c80:	48 8d 35 9a 8d 00 00 	lea    0x8d9a(%rip),%rsi        # 11a21 <default_attr+0x61>
    8c87:	48 8b 7d c8          	mov    -0x38(%rbp),%rdi
    8c8b:	31 c0                	xor    %eax,%eax
    8c8d:	e8 0e c9 ff ff       	callq  55a0 <sscanf@plt>
    8c92:	83 f8 02             	cmp    $0x2,%eax
    8c95:	75 b4                	jne    8c4b <pthread_getattr_np+0x24b>
    8c97:	48 8b 15 02 f3 20 00 	mov    0x20f302(%rip),%rdx        # 217fa0 <_DYNAMIC+0x210>
    8c9e:	48 8b 02             	mov    (%rdx),%rax
    8ca1:	48 3b 45 b8          	cmp    -0x48(%rbp),%rax
    8ca5:	72 0e                	jb     8cb5 <pthread_getattr_np+0x2b5>
    8ca7:	48 8b 55 b0          	mov    -0x50(%rbp),%rdx
    8cab:	48 39 d0             	cmp    %rdx,%rax
    8cae:	72 0b                	jb     8cbb <pthread_getattr_np+0x2bb>
    8cb0:	49 89 d6             	mov    %rdx,%r14
    8cb3:	eb 96                	jmp    8c4b <pthread_getattr_np+0x24b>
    8cb5:	48 8b 55 b0          	mov    -0x50(%rbp),%rdx
    8cb9:	eb f5                	jmp    8cb0 <pthread_getattr_np+0x2b0>
    8cbb:	48 8b 45 98          	mov    -0x68(%rbp),%rax
    8cbf:	4c 89 f9             	mov    %r15,%rcx
    8cc2:	48 f7 d9             	neg    %rcx
    8cc5:	48 21 c8             	and    %rcx,%rax
    8cc8:	4e 8d 3c 38          	lea    (%rax,%r15,1),%r15
    8ccc:	4c 89 f8             	mov    %r15,%rax
    8ccf:	48 03 45 a0          	add    -0x60(%rbp),%rax
    8cd3:	4d 89 7c 24 18       	mov    %r15,0x18(%r12)
    8cd8:	4d 29 f7             	sub    %r14,%r15
    8cdb:	4d 89 fe             	mov    %r15,%r14
    8cde:	45 31 ff             	xor    %r15d,%r15d
    8ce1:	48 29 d0             	sub    %rdx,%rax
    8ce4:	48 21 c8             	and    %rcx,%rax
    8ce7:	4c 39 f0             	cmp    %r14,%rax
    8cea:	49 89 44 24 20       	mov    %rax,0x20(%r12)
    8cef:	76 05                	jbe    8cf6 <pthread_getattr_np+0x2f6>
    8cf1:	4d 89 74 24 20       	mov    %r14,0x20(%r12)
    8cf6:	48 8b 7d c8          	mov    -0x38(%rbp),%rdi
    8cfa:	e8 f1 c5 ff ff       	callq  52f0 <free@plt>
    8cff:	e9 b0 fe ff ff       	jmpq   8bb4 <pthread_getattr_np+0x1b4>
    8d04:	41 bf 02 00 00 00    	mov    $0x2,%r15d
    8d0a:	eb ea                	jmp    8cf6 <pthread_getattr_np+0x2f6>
    8d0c:	48 8b 05 6d f2 20 00 	mov    0x20f26d(%rip),%rax        # 217f80 <_DYNAMIC+0x1f0>
    8d13:	64 44 8b 38          	mov    %fs:(%rax),%r15d
    8d17:	e9 a0 fe ff ff       	jmpq   8bbc <pthread_getattr_np+0x1bc>

0000000000008d1c <_L_lock_17>:
    8d1c:	48 8d bb 18 06 00 00 	lea    0x618(%rbx),%rdi
    8d23:	48 81 ec 80 00 00 00 	sub    $0x80,%rsp
    8d2a:	e8 71 56 00 00       	callq  e3a0 <__lll_lock_wait_private>
    8d2f:	48 81 c4 80 00 00 00 	add    $0x80,%rsp
    8d36:	e9 f1 fc ff ff       	jmpq   8a2c <pthread_getattr_np+0x2c>

0000000000008d3b <_L_unlock_77>:
    8d3b:	48 8d bb 18 06 00 00 	lea    0x618(%rbx),%rdi
    8d42:	48 81 ec 80 00 00 00 	sub    $0x80,%rsp
    8d49:	e8 e2 57 00 00       	callq  e530 <__lll_unlock_wake_private>
    8d4e:	48 81 c4 80 00 00 00 	add    $0x80,%rsp
    8d55:	e9 b3 fd ff ff       	jmpq   8b0d <pthread_getattr_np+0x10d>
    8d5a:	90                   	nop
    8d5b:	90                   	nop
    8d5c:	90                   	nop
    8d5d:	90                   	nop
    8d5e:	90                   	nop
    8d5f:	90                   	nop

0000000000008d60 <__pthread_mutex_init>:
    8d60:	55                   	push   %rbp
    8d61:	48 8d 05 54 8d 00 00 	lea    0x8d54(%rip),%rax        # 11abc <default_attr>
    8d68:	48 89 e5             	mov    %rsp,%rbp
    8d6b:	48 89 5d e8          	mov    %rbx,-0x18(%rbp)
    8d6f:	4c 89 65 f0          	mov    %r12,-0x10(%rbp)
    8d73:	49 89 f4             	mov    %rsi,%r12
    8d76:	4c 89 6d f8          	mov    %r13,-0x8(%rbp)
    8d7a:	48 83 ec 30          	sub    $0x30,%rsp
    8d7e:	48 85 f6             	test   %rsi,%rsi
    8d81:	4c 0f 44 e0          	cmove  %rax,%r12
    8d85:	48 89 fb             	mov    %rdi,%rbx
    8d88:	41 8b 04 24          	mov    (%r12),%eax
    8d8c:	48 89 c2             	mov    %rax,%rdx
    8d8f:	81 e2 00 00 00 30    	and    $0x30000000,%edx
    8d95:	74 19                	je     8db0 <__pthread_mutex_init+0x50>
    8d97:	48 81 fa 00 00 00 10 	cmp    $0x10000000,%rdx
    8d9e:	0f 84 d4 00 00 00    	je     8e78 <__pthread_mutex_init+0x118>
    8da4:	a9 00 00 00 40       	test   $0x40000000,%eax
    8da9:	0f 85 e1 00 00 00    	jne    8e90 <__pthread_mutex_init+0x130>
    8daf:	90                   	nop
    8db0:	48 c7 43 10 00 00 00 	movq   $0x0,0x10(%rbx)
    8db7:	00 
    8db8:	48 c7 03 00 00 00 00 	movq   $0x0,(%rbx)
    8dbf:	48 c7 43 08 00 00 00 	movq   $0x0,0x8(%rbx)
    8dc6:	00 
    8dc7:	48 c7 43 18 00 00 00 	movq   $0x0,0x18(%rbx)
    8dce:	00 
    8dcf:	48 c7 43 20 00 00 00 	movq   $0x0,0x20(%rbx)
    8dd6:	00 
    8dd7:	41 8b 04 24          	mov    (%r12),%eax
    8ddb:	25 ff 0f 00 0f       	and    $0xf000fff,%eax
    8de0:	89 43 10             	mov    %eax,0x10(%rbx)
    8de3:	41 8b 14 24          	mov    (%r12),%edx
    8de7:	f7 c2 00 00 00 40    	test   $0x40000000,%edx
    8ded:	74 12                	je     8e01 <__pthread_mutex_init+0xa1>
    8def:	85 d2                	test   %edx,%edx
    8df1:	0f 88 b9 00 00 00    	js     8eb0 <__pthread_mutex_init+0x150>
    8df7:	83 c8 10             	or     $0x10,%eax
    8dfa:	89 43 10             	mov    %eax,0x10(%rbx)
    8dfd:	41 8b 14 24          	mov    (%r12),%edx
    8e01:	89 d0                	mov    %edx,%eax
    8e03:	25 00 00 00 30       	and    $0x30000000,%eax
    8e08:	3d 00 00 00 10       	cmp    $0x10000000,%eax
    8e0d:	0f 84 8d 00 00 00    	je     8ea0 <__pthread_mutex_init+0x140>
    8e13:	3d 00 00 00 20       	cmp    $0x20000000,%eax
    8e18:	74 26                	je     8e40 <__pthread_mutex_init+0xe0>
    8e1a:	31 c0                	xor    %eax,%eax
    8e1c:	81 e2 00 00 00 c0    	and    $0xc0000000,%edx
    8e22:	74 07                	je     8e2b <__pthread_mutex_init+0xcb>
    8e24:	81 4b 10 80 00 00 00 	orl    $0x80,0x10(%rbx)
    8e2b:	48 8b 5d e8          	mov    -0x18(%rbp),%rbx
    8e2f:	4c 8b 65 f0          	mov    -0x10(%rbp),%r12
    8e33:	4c 8b 6d f8          	mov    -0x8(%rbp),%r13
    8e37:	c9                   	leaveq 
    8e38:	c3                   	retq   
    8e39:	0f 1f 80 00 00 00 00 	nopl   0x0(%rax)
    8e40:	83 4b 10 40          	orl    $0x40,0x10(%rbx)
    8e44:	45 8b 2c 24          	mov    (%r12),%r13d
    8e48:	41 81 e5 00 f0 ff 00 	and    $0xfff000,%r13d
    8e4f:	41 c1 fd 0c          	sar    $0xc,%r13d
    8e53:	45 85 ed             	test   %r13d,%r13d
    8e56:	75 0f                	jne    8e67 <__pthread_mutex_init+0x107>
    8e58:	8b 05 0a f4 20 00    	mov    0x20f40a(%rip),%eax        # 218268 <__sched_fifo_min_prio>
    8e5e:	83 f8 ff             	cmp    $0xffffffff,%eax
    8e61:	74 5d                	je     8ec0 <__pthread_mutex_init+0x160>
    8e63:	85 c0                	test   %eax,%eax
    8e65:	7f 03                	jg     8e6a <__pthread_mutex_init+0x10a>
    8e67:	44 89 e8             	mov    %r13d,%eax
    8e6a:	c1 e0 13             	shl    $0x13,%eax
    8e6d:	89 03                	mov    %eax,(%rbx)
    8e6f:	41 8b 14 24          	mov    (%r12),%edx
    8e73:	eb a5                	jmp    8e1a <__pthread_mutex_init+0xba>
    8e75:	0f 1f 00             	nopl   (%rax)
    8e78:	8b 05 5e 34 21 00    	mov    0x21345e(%rip),%eax        # 21c2dc <tpi_supported>
    8e7e:	85 c0                	test   %eax,%eax
    8e80:	74 4b                	je     8ecd <__pthread_mutex_init+0x16d>
    8e82:	85 c0                	test   %eax,%eax
    8e84:	0f 89 26 ff ff ff    	jns    8db0 <__pthread_mutex_init+0x50>
    8e8a:	66 0f 1f 44 00 00    	nopw   0x0(%rax,%rax,1)
    8e90:	b8 5f 00 00 00       	mov    $0x5f,%eax
    8e95:	eb 94                	jmp    8e2b <__pthread_mutex_init+0xcb>
    8e97:	66 0f 1f 84 00 00 00 	nopw   0x0(%rax,%rax,1)
    8e9e:	00 00 
    8ea0:	83 4b 10 20          	orl    $0x20,0x10(%rbx)
    8ea4:	41 8b 14 24          	mov    (%r12),%edx
    8ea8:	e9 6d ff ff ff       	jmpq   8e1a <__pthread_mutex_init+0xba>
    8ead:	0f 1f 00             	nopl   (%rax)
    8eb0:	8b 15 82 34 21 00    	mov    0x213482(%rip),%edx        # 21c338 <__set_robust_list_avail>
    8eb6:	85 d2                	test   %edx,%edx
    8eb8:	0f 89 39 ff ff ff    	jns    8df7 <__pthread_mutex_init+0x97>
    8ebe:	eb d0                	jmp    8e90 <__pthread_mutex_init+0x130>
    8ec0:	e8 4b 74 00 00       	callq  10310 <__init_sched_fifo_prio>
    8ec5:	8b 05 9d f3 20 00    	mov    0x20f39d(%rip),%eax        # 218268 <__sched_fifo_min_prio>
    8ecb:	eb 96                	jmp    8e63 <__pthread_mutex_init+0x103>
    8ecd:	c7 45 dc 00 00 00 00 	movl   $0x0,-0x24(%rbp)
    8ed4:	45 31 d2             	xor    %r10d,%r10d
    8ed7:	31 d2                	xor    %edx,%edx
    8ed9:	be 07 00 00 00       	mov    $0x7,%esi
    8ede:	48 8d 7d dc          	lea    -0x24(%rbp),%rdi
    8ee2:	b0 ca                	mov    $0xca,%al
    8ee4:	0f 05                	syscall 
    8ee6:	3d 00 f0 ff ff       	cmp    $0xfffff000,%eax
    8eeb:	76 15                	jbe    8f02 <__pthread_mutex_init+0x1a2>
    8eed:	83 f8 da             	cmp    $0xffffffda,%eax
    8ef0:	0f 95 c0             	setne  %al
    8ef3:	0f b6 c0             	movzbl %al,%eax
    8ef6:	8d 44 00 ff          	lea    -0x1(%rax,%rax,1),%eax
    8efa:	89 05 dc 33 21 00    	mov    %eax,0x2133dc(%rip)        # 21c2dc <tpi_supported>
    8f00:	eb 80                	jmp    8e82 <__pthread_mutex_init+0x122>
    8f02:	48 8d 0d b7 8b 00 00 	lea    0x8bb7(%rip),%rcx        # 11ac0 <__PRETTY_FUNCTION__.7538>
    8f09:	48 8d 35 63 8b 00 00 	lea    0x8b63(%rip),%rsi        # 11a73 <__PRETTY_FUNCTION__.9858+0x13>
    8f10:	48 8d 3d 71 8b 00 00 	lea    0x8b71(%rip),%rdi        # 11a88 <__PRETTY_FUNCTION__.9858+0x28>
    8f17:	b2 43                	mov    $0x43,%dl
    8f19:	e8 c2 c4 ff ff       	callq  53e0 <__assert_fail@plt>
    8f1e:	90                   	nop
    8f1f:	90                   	nop

0000000000008f20 <__pthread_mutex_destroy>:
    8f20:	f6 47 10 10          	testb  $0x10,0x10(%rdi)
    8f24:	55                   	push   %rbp
    8f25:	48 89 e5             	mov    %rsp,%rbp
    8f28:	75 0c                	jne    8f36 <__pthread_mutex_destroy+0x16>
    8f2a:	8b 57 0c             	mov    0xc(%rdi),%edx
    8f2d:	b8 10 00 00 00       	mov    $0x10,%eax
    8f32:	85 d2                	test   %edx,%edx
    8f34:	75 09                	jne    8f3f <__pthread_mutex_destroy+0x1f>
    8f36:	c7 47 10 ff ff ff ff 	movl   $0xffffffff,0x10(%rdi)
    8f3d:	31 c0                	xor    %eax,%eax
    8f3f:	c9                   	leaveq 
    8f40:	c3                   	retq   
    8f41:	90                   	nop
    8f42:	90                   	nop
    8f43:	90                   	nop
    8f44:	90                   	nop
    8f45:	90                   	nop
    8f46:	90                   	nop
    8f47:	90                   	nop
    8f48:	90                   	nop
    8f49:	90                   	nop
    8f4a:	90                   	nop
    8f4b:	90                   	nop
    8f4c:	90                   	nop
    8f4d:	90                   	nop
    8f4e:	90                   	nop
    8f4f:	90                   	nop

0000000000008f50 <__pthread_mutex_lock_full>:
    8f50:	55                   	push   %rbp
    8f51:	48 89 e5             	mov    %rsp,%rbp
    8f54:	41 57                	push   %r15
    8f56:	41 56                	push   %r14
    8f58:	41 55                	push   %r13
    8f5a:	41 54                	push   %r12
    8f5c:	53                   	push   %rbx
    8f5d:	48 89 fb             	mov    %rdi,%rbx
    8f60:	48 83 ec 08          	sub    $0x8,%rsp
    8f64:	64 44 8b 24 25 d0 02 	mov    %fs:0x2d0,%r12d
    8f6b:	00 00 
    8f6d:	44 8b 47 10          	mov    0x10(%rdi),%r8d
    8f71:	44 89 c1             	mov    %r8d,%ecx
    8f74:	83 e1 7f             	and    $0x7f,%ecx
    8f77:	83 e9 10             	sub    $0x10,%ecx
    8f7a:	83 f9 33             	cmp    $0x33,%ecx
    8f7d:	76 14                	jbe    8f93 <__pthread_mutex_lock_full+0x43>
    8f7f:	b8 16 00 00 00       	mov    $0x16,%eax
    8f84:	48 83 c4 08          	add    $0x8,%rsp
    8f88:	5b                   	pop    %rbx
    8f89:	41 5c                	pop    %r12
    8f8b:	41 5d                	pop    %r13
    8f8d:	41 5e                	pop    %r14
    8f8f:	41 5f                	pop    %r15
    8f91:	c9                   	leaveq 
    8f92:	c3                   	retq   
    8f93:	b8 01 00 00 00       	mov    $0x1,%eax
    8f98:	48 ba 00 00 0f 00 0f 	movabs $0xf000f0000,%rdx
    8f9f:	00 00 00 
    8fa2:	48 d3 e0             	shl    %cl,%rax
    8fa5:	48 85 d0             	test   %rdx,%rax
    8fa8:	0f 84 ab 00 00 00    	je     9059 <__pthread_mutex_lock_full+0x109>
    8fae:	45 89 c1             	mov    %r8d,%r9d
    8fb1:	41 83 e1 03          	and    $0x3,%r9d
    8fb5:	41 83 e0 10          	and    $0x10,%r8d
    8fb9:	0f 85 eb 02 00 00    	jne    92aa <__pthread_mutex_lock_full+0x35a>
    8fbf:	8b 03                	mov    (%rbx),%eax
    8fc1:	25 ff ff ff 3f       	and    $0x3fffffff,%eax
    8fc6:	41 39 c4             	cmp    %eax,%r12d
    8fc9:	0f 84 e2 03 00 00    	je     93b1 <__pthread_mutex_lock_full+0x461>
    8fcf:	31 c0                	xor    %eax,%eax
    8fd1:	f0 44 0f b1 23       	lock cmpxchg %r12d,(%rbx)
    8fd6:	85 c0                	test   %eax,%eax
    8fd8:	0f 84 18 02 00 00    	je     91f6 <__pthread_mutex_lock_full+0x2a6>
    8fde:	45 85 c0             	test   %r8d,%r8d
    8fe1:	be 80 00 00 00       	mov    $0x80,%esi
    8fe6:	75 09                	jne    8ff1 <__pthread_mutex_lock_full+0xa1>
    8fe8:	8b 73 10             	mov    0x10(%rbx),%esi
    8feb:	81 e6 80 00 00 00    	and    $0x80,%esi
    8ff1:	40 80 f6 80          	xor    $0x80,%sil
    8ff5:	45 31 d2             	xor    %r10d,%r10d
    8ff8:	ba 01 00 00 00       	mov    $0x1,%edx
    8ffd:	64 23 34 25 48 00 00 	and    %fs:0x48,%esi
    9004:	00 
    9005:	48 89 df             	mov    %rbx,%rdi
    9008:	83 ce 06             	or     $0x6,%esi
    900b:	b8 ca 00 00 00       	mov    $0xca,%eax
    9010:	0f 05                	syscall 
    9012:	3d 00 f0 ff ff       	cmp    $0xfffff000,%eax
    9017:	0f 86 bb 01 00 00    	jbe    91d8 <__pthread_mutex_lock_full+0x288>
    901d:	83 f8 fd             	cmp    $0xfffffffd,%eax
    9020:	0f 94 c2             	sete   %dl
    9023:	83 f8 dd             	cmp    $0xffffffdd,%eax
    9026:	0f 85 46 03 00 00    	jne    9372 <__pthread_mutex_lock_full+0x422>
    902c:	41 83 e9 01          	sub    $0x1,%r9d
    9030:	41 83 f9 01          	cmp    $0x1,%r9d
    9034:	0f 87 40 03 00 00    	ja     937a <__pthread_mutex_lock_full+0x42a>
    903a:	48 8d 0d 9f 8b 00 00 	lea    0x8b9f(%rip),%rcx        # 11be0 <__PRETTY_FUNCTION__.8738>
    9041:	48 8d 35 66 91 00 00 	lea    0x9166(%rip),%rsi        # 121ae <__PRETTY_FUNCTION__.7549+0x3e>
    9048:	48 8d 3d b9 8a 00 00 	lea    0x8ab9(%rip),%rdi        # 11b08 <__PRETTY_FUNCTION__.7538+0x48>
    904f:	ba 3a 01 00 00       	mov    $0x13a,%edx
    9054:	e8 87 c3 ff ff       	callq  53e0 <__assert_fail@plt>
    9059:	48 ba 00 00 00 00 00 	movabs $0xf000000000000,%rdx
    9060:	00 0f 00 
    9063:	48 85 d0             	test   %rdx,%rax
    9066:	0f 85 8e 00 00 00    	jne    90fa <__pthread_mutex_lock_full+0x1aa>
    906c:	a8 0f                	test   $0xf,%al
    906e:	0f 84 0b ff ff ff    	je     8f7f <__pthread_mutex_lock_full+0x2f>
    9074:	4c 8d 4f 20          	lea    0x20(%rdi),%r9
    9078:	64 4c 89 0c 25 f0 02 	mov    %r9,%fs:0x2f0
    907f:	00 00 
    9081:	8b 0f                	mov    (%rdi),%ecx
    9083:	31 d2                	xor    %edx,%edx
    9085:	41 b8 80 00 00 00    	mov    $0x80,%r8d
    908b:	0f 1f 44 00 00       	nopl   0x0(%rax,%rax,1)
    9090:	f7 c1 00 00 00 40    	test   $0x40000000,%ecx
    9096:	75 43                	jne    90db <__pthread_mutex_lock_full+0x18b>
    9098:	81 e1 ff ff ff 3f    	and    $0x3fffffff,%ecx
    909e:	41 39 cc             	cmp    %ecx,%r12d
    90a1:	0f 84 8b 04 00 00    	je     9532 <__pthread_mutex_lock_full+0x5e2>
    90a7:	44 89 e7             	mov    %r12d,%edi
    90aa:	89 d0                	mov    %edx,%eax
    90ac:	44 89 c6             	mov    %r8d,%esi
    90af:	f0 0f b1 3b          	lock cmpxchg %edi,(%rbx)
    90b3:	0f 85 97 06 00 00    	jne    9750 <_L_robust_lock_133>
    90b9:	81 7b 08 fe ff ff 7f 	cmpl   $0x7ffffffe,0x8(%rbx)
    90c0:	0f 84 40 04 00 00    	je     9506 <__pthread_mutex_lock_full+0x5b6>
    90c6:	a9 00 00 00 40       	test   $0x40000000,%eax
    90cb:	0f 84 ef 01 00 00    	je     92c0 <__pthread_mutex_lock_full+0x370>
    90d1:	89 c1                	mov    %eax,%ecx
    90d3:	f7 c1 00 00 00 40    	test   $0x40000000,%ecx
    90d9:	74 bd                	je     9098 <__pthread_mutex_lock_full+0x148>
    90db:	89 ce                	mov    %ecx,%esi
    90dd:	89 c8                	mov    %ecx,%eax
    90df:	81 e6 00 00 00 80    	and    $0x80000000,%esi
    90e5:	44 09 e6             	or     %r12d,%esi
    90e8:	f0 0f b1 33          	lock cmpxchg %esi,(%rbx)
    90ec:	39 c8                	cmp    %ecx,%eax
    90ee:	89 c6                	mov    %eax,%esi
    90f0:	0f 84 1d 02 00 00    	je     9313 <__pthread_mutex_lock_full+0x3c3>
    90f6:	89 f1                	mov    %esi,%ecx
    90f8:	eb 96                	jmp    9090 <__pthread_mutex_lock_full+0x140>
    90fa:	44 3b 67 08          	cmp    0x8(%rdi),%r12d
    90fe:	8b 0f                	mov    (%rdi),%ecx
    9100:	0f 84 6e 01 00 00    	je     9274 <__pthread_mutex_lock_full+0x324>
    9106:	41 bd ff ff ff ff    	mov    $0xffffffff,%r13d
    910c:	41 be ca 00 00 00    	mov    $0xca,%r14d
    9112:	41 89 cf             	mov    %ecx,%r15d
    9115:	41 c1 ef 13          	shr    $0x13,%r15d
    9119:	e8 f2 70 00 00       	callq  10210 <__pthread_current_priority>
    911e:	41 39 c7             	cmp    %eax,%r15d
    9121:	0f 8c 6b 02 00 00    	jl     9392 <__pthread_mutex_lock_full+0x442>
    9127:	44 89 fe             	mov    %r15d,%esi
    912a:	44 89 ef             	mov    %r13d,%edi
    912d:	e8 0e 72 00 00       	callq  10340 <__pthread_tpp_change_priority>
    9132:	85 c0                	test   %eax,%eax
    9134:	0f 85 4a fe ff ff    	jne    8f84 <__pthread_mutex_lock_full+0x34>
    913a:	45 89 f8             	mov    %r15d,%r8d
    913d:	41 c1 e0 13          	shl    $0x13,%r8d
    9141:	45 89 c5             	mov    %r8d,%r13d
    9144:	44 89 c0             	mov    %r8d,%eax
    9147:	41 83 cd 01          	or     $0x1,%r13d
    914b:	f0 44 0f b1 2b       	lock cmpxchg %r13d,(%rbx)
    9150:	44 39 c0             	cmp    %r8d,%eax
    9153:	74 59                	je     91ae <__pthread_mutex_lock_full+0x25e>
    9155:	45 89 c1             	mov    %r8d,%r9d
    9158:	41 83 c9 02          	or     $0x2,%r9d
    915c:	0f 1f 40 00          	nopl   0x0(%rax)
    9160:	44 89 e8             	mov    %r13d,%eax
    9163:	f0 44 0f b1 0b       	lock cmpxchg %r9d,(%rbx)
    9168:	89 c2                	mov    %eax,%edx
    916a:	89 c1                	mov    %eax,%ecx
    916c:	81 e2 00 00 f8 ff    	and    $0xfff80000,%edx
    9172:	41 39 d0             	cmp    %edx,%r8d
    9175:	0f 85 e8 00 00 00    	jne    9263 <__pthread_mutex_lock_full+0x313>
    917b:	44 39 c0             	cmp    %r8d,%eax
    917e:	74 21                	je     91a1 <__pthread_mutex_lock_full+0x251>
    9180:	8b 73 10             	mov    0x10(%rbx),%esi
    9183:	45 31 d2             	xor    %r10d,%r10d
    9186:	44 89 ca             	mov    %r9d,%edx
    9189:	44 89 f0             	mov    %r14d,%eax
    918c:	48 89 df             	mov    %rbx,%rdi
    918f:	f7 d6                	not    %esi
    9191:	81 e6 80 00 00 00    	and    $0x80,%esi
    9197:	64 23 34 25 48 00 00 	and    %fs:0x48,%esi
    919e:	00 
    919f:	0f 05                	syscall 
    91a1:	44 89 c0             	mov    %r8d,%eax
    91a4:	f0 44 0f b1 0b       	lock cmpxchg %r9d,(%rbx)
    91a9:	44 39 c0             	cmp    %r8d,%eax
    91ac:	75 b2                	jne    9160 <__pthread_mutex_lock_full+0x210>
    91ae:	83 7b 08 00          	cmpl   $0x0,0x8(%rbx)
    91b2:	0f 85 31 02 00 00    	jne    93e9 <__pthread_mutex_lock_full+0x499>
    91b8:	c7 43 04 01 00 00 00 	movl   $0x1,0x4(%rbx)
    91bf:	83 43 0c 01          	addl   $0x1,0xc(%rbx)
    91c3:	44 89 63 08          	mov    %r12d,0x8(%rbx)
    91c7:	48 83 c4 08          	add    $0x8,%rsp
    91cb:	5b                   	pop    %rbx
    91cc:	41 5c                	pop    %r12
    91ce:	41 5d                	pop    %r13
    91d0:	41 5e                	pop    %r14
    91d2:	31 c0                	xor    %eax,%eax
    91d4:	41 5f                	pop    %r15
    91d6:	c9                   	leaveq 
    91d7:	c3                   	retq   
    91d8:	45 85 c0             	test   %r8d,%r8d
    91db:	8b 03                	mov    (%rbx),%eax
    91dd:	75 0b                	jne    91ea <__pthread_mutex_lock_full+0x29a>
    91df:	a9 00 00 00 40       	test   $0x40000000,%eax
    91e4:	0f 85 cb 02 00 00    	jne    94b5 <__pthread_mutex_lock_full+0x565>
    91ea:	a9 00 00 00 40       	test   $0x40000000,%eax
    91ef:	90                   	nop
    91f0:	0f 85 51 02 00 00    	jne    9447 <__pthread_mutex_lock_full+0x4f7>
    91f6:	45 85 c0             	test   %r8d,%r8d
    91f9:	74 bd                	je     91b8 <__pthread_mutex_lock_full+0x268>
    91fb:	81 7b 08 fe ff ff 7f 	cmpl   $0x7ffffffe,0x8(%rbx)
    9202:	0f 84 cc 02 00 00    	je     94d4 <__pthread_mutex_lock_full+0x584>
    9208:	c7 43 04 01 00 00 00 	movl   $0x1,0x4(%rbx)
    920f:	64 48 8b 04 25 e0 02 	mov    %fs:0x2e0,%rax
    9216:	00 00 
    9218:	48 8d 53 20          	lea    0x20(%rbx),%rdx
    921c:	48 83 e0 fe          	and    $0xfffffffffffffffe,%rax
    9220:	48 89 50 f8          	mov    %rdx,-0x8(%rax)
    9224:	64 48 8b 04 25 e0 02 	mov    %fs:0x2e0,%rax
    922b:	00 00 
    922d:	48 89 43 20          	mov    %rax,0x20(%rbx)
    9231:	48 83 ca 01          	or     $0x1,%rdx
    9235:	64 48 8b 04 25 10 00 	mov    %fs:0x10,%rax
    923c:	00 00 
    923e:	48 05 e0 02 00 00    	add    $0x2e0,%rax
    9244:	48 89 43 18          	mov    %rax,0x18(%rbx)
    9248:	64 48 89 14 25 e0 02 	mov    %rdx,%fs:0x2e0
    924f:	00 00 
    9251:	64 48 c7 04 25 f0 02 	movq   $0x0,%fs:0x2f0
    9258:	00 00 00 00 00 00 
    925e:	e9 5c ff ff ff       	jmpq   91bf <__pthread_mutex_lock_full+0x26f>
    9263:	44 39 c2             	cmp    %r8d,%edx
    9266:	45 89 fd             	mov    %r15d,%r13d
    9269:	0f 85 a3 fe ff ff    	jne    9112 <__pthread_mutex_lock_full+0x1c2>
    926f:	e9 3a ff ff ff       	jmpq   91ae <__pthread_mutex_lock_full+0x25e>
    9274:	41 83 e0 03          	and    $0x3,%r8d
    9278:	b8 23 00 00 00       	mov    $0x23,%eax
    927d:	41 83 f8 02          	cmp    $0x2,%r8d
    9281:	0f 84 fd fc ff ff    	je     8f84 <__pthread_mutex_lock_full+0x34>
    9287:	41 83 f8 01          	cmp    $0x1,%r8d
    928b:	0f 85 75 fe ff ff    	jne    9106 <__pthread_mutex_lock_full+0x1b6>
    9291:	8b 47 04             	mov    0x4(%rdi),%eax
    9294:	83 f8 ff             	cmp    $0xffffffff,%eax
    9297:	0f 84 42 01 00 00    	je     93df <__pthread_mutex_lock_full+0x48f>
    929d:	83 c0 01             	add    $0x1,%eax
    92a0:	89 43 04             	mov    %eax,0x4(%rbx)
    92a3:	31 c0                	xor    %eax,%eax
    92a5:	e9 da fc ff ff       	jmpq   8f84 <__pthread_mutex_lock_full+0x34>
    92aa:	48 8d 47 20          	lea    0x20(%rdi),%rax
    92ae:	48 83 c8 01          	or     $0x1,%rax
    92b2:	64 48 89 04 25 f0 02 	mov    %rax,%fs:0x2f0
    92b9:	00 00 
    92bb:	e9 ff fc ff ff       	jmpq   8fbf <__pthread_mutex_lock_full+0x6f>
    92c0:	c7 43 04 01 00 00 00 	movl   $0x1,0x4(%rbx)
    92c7:	64 48 8b 04 25 e0 02 	mov    %fs:0x2e0,%rax
    92ce:	00 00 
    92d0:	48 83 e0 fe          	and    $0xfffffffffffffffe,%rax
    92d4:	4c 89 48 f8          	mov    %r9,-0x8(%rax)
    92d8:	64 48 8b 04 25 e0 02 	mov    %fs:0x2e0,%rax
    92df:	00 00 
    92e1:	48 89 43 20          	mov    %rax,0x20(%rbx)
    92e5:	64 48 8b 04 25 10 00 	mov    %fs:0x10,%rax
    92ec:	00 00 
    92ee:	48 05 e0 02 00 00    	add    $0x2e0,%rax
    92f4:	48 89 43 18          	mov    %rax,0x18(%rbx)
    92f8:	64 4c 89 0c 25 e0 02 	mov    %r9,%fs:0x2e0
    92ff:	00 00 
    9301:	64 48 c7 04 25 f0 02 	movq   $0x0,%fs:0x2f0
    9308:	00 00 00 00 00 00 
    930e:	e9 ac fe ff ff       	jmpq   91bf <__pthread_mutex_lock_full+0x26f>
    9313:	c7 43 04 01 00 00 00 	movl   $0x1,0x4(%rbx)
    931a:	c7 43 08 ff ff ff 7f 	movl   $0x7fffffff,0x8(%rbx)
    9321:	64 48 8b 04 25 e0 02 	mov    %fs:0x2e0,%rax
    9328:	00 00 
    932a:	48 83 e0 fe          	and    $0xfffffffffffffffe,%rax
    932e:	4c 89 48 f8          	mov    %r9,-0x8(%rax)
    9332:	64 48 8b 04 25 e0 02 	mov    %fs:0x2e0,%rax
    9339:	00 00 
    933b:	48 89 43 20          	mov    %rax,0x20(%rbx)
    933f:	64 48 8b 04 25 10 00 	mov    %fs:0x10,%rax
    9346:	00 00 
    9348:	48 05 e0 02 00 00    	add    $0x2e0,%rax
    934e:	48 89 43 18          	mov    %rax,0x18(%rbx)
    9352:	64 4c 89 0c 25 e0 02 	mov    %r9,%fs:0x2e0
    9359:	00 00 
    935b:	64 48 c7 04 25 f0 02 	movq   $0x0,%fs:0x2f0
    9362:	00 00 00 00 00 00 
    9368:	b8 82 00 00 00       	mov    $0x82,%eax
    936d:	e9 12 fc ff ff       	jmpq   8f84 <__pthread_mutex_lock_full+0x34>
    9372:	84 d2                	test   %dl,%dl
    9374:	0f 84 5e fe ff ff    	je     91d8 <__pthread_mutex_lock_full+0x288>
    937a:	84 d2                	test   %dl,%dl
    937c:	0f 85 86 00 00 00    	jne    9408 <__pthread_mutex_lock_full+0x4b8>
    9382:	66 0f 1f 44 00 00    	nopw   0x0(%rax,%rax,1)
    9388:	e8 0c 5d 00 00       	callq  f099 <__pause_nocancel>
    938d:	0f 1f 00             	nopl   (%rax)
    9390:	eb f6                	jmp    9388 <__pthread_mutex_lock_full+0x438>
    9392:	41 83 fd ff          	cmp    $0xffffffff,%r13d
    9396:	0f 84 e3 fb ff ff    	je     8f7f <__pthread_mutex_lock_full+0x2f>
    939c:	83 ce ff             	or     $0xffffffff,%esi
    939f:	44 89 ef             	mov    %r13d,%edi
    93a2:	e8 99 6f 00 00       	callq  10340 <__pthread_tpp_change_priority>
    93a7:	b8 16 00 00 00       	mov    $0x16,%eax
    93ac:	e9 d3 fb ff ff       	jmpq   8f84 <__pthread_mutex_lock_full+0x34>
    93b1:	41 83 f9 02          	cmp    $0x2,%r9d
    93b5:	74 79                	je     9430 <__pthread_mutex_lock_full+0x4e0>
    93b7:	41 83 f9 01          	cmp    $0x1,%r9d
    93bb:	0f 1f 44 00 00       	nopl   0x0(%rax,%rax,1)
    93c0:	0f 85 09 fc ff ff    	jne    8fcf <__pthread_mutex_lock_full+0x7f>
    93c6:	64 48 c7 04 25 f0 02 	movq   $0x0,%fs:0x2f0
    93cd:	00 00 00 00 00 00 
    93d3:	8b 43 04             	mov    0x4(%rbx),%eax
    93d6:	83 f8 ff             	cmp    $0xffffffff,%eax
    93d9:	0f 85 be fe ff ff    	jne    929d <__pthread_mutex_lock_full+0x34d>
    93df:	b8 0b 00 00 00       	mov    $0xb,%eax
    93e4:	e9 9b fb ff ff       	jmpq   8f84 <__pthread_mutex_lock_full+0x34>
    93e9:	48 8d 0d f0 87 00 00 	lea    0x87f0(%rip),%rcx        # 11be0 <__PRETTY_FUNCTION__.8738>
    93f0:	48 8d 35 b7 8d 00 00 	lea    0x8db7(%rip),%rsi        # 121ae <__PRETTY_FUNCTION__.7549+0x3e>
    93f7:	48 8d 3d ee 86 00 00 	lea    0x86ee(%rip),%rdi        # 11aec <__PRETTY_FUNCTION__.7538+0x2c>
    93fe:	ba cb 01 00 00       	mov    $0x1cb,%edx
    9403:	e8 d8 bf ff ff       	callq  53e0 <__assert_fail@plt>
    9408:	45 85 c0             	test   %r8d,%r8d
    940b:	0f 84 77 ff ff ff    	je     9388 <__pthread_mutex_lock_full+0x438>
    9411:	48 8d 0d c8 87 00 00 	lea    0x87c8(%rip),%rcx        # 11be0 <__PRETTY_FUNCTION__.8738>
    9418:	48 8d 35 8f 8d 00 00 	lea    0x8d8f(%rip),%rsi        # 121ae <__PRETTY_FUNCTION__.7549+0x3e>
    941f:	48 8d 3d af 86 00 00 	lea    0x86af(%rip),%rdi        # 11ad5 <__PRETTY_FUNCTION__.7538+0x15>
    9426:	ba 3d 01 00 00       	mov    $0x13d,%edx
    942b:	e8 b0 bf ff ff       	callq  53e0 <__assert_fail@plt>
    9430:	64 48 c7 04 25 f0 02 	movq   $0x0,%fs:0x2f0
    9437:	00 00 00 00 00 00 
    943d:	b8 23 00 00 00       	mov    $0x23,%eax
    9442:	e9 3d fb ff ff       	jmpq   8f84 <__pthread_mutex_lock_full+0x34>
    9447:	f0 81 23 ff ff ff bf 	lock andl $0xbfffffff,(%rbx)
    944e:	c7 43 04 01 00 00 00 	movl   $0x1,0x4(%rbx)
    9455:	c7 43 08 ff ff ff 7f 	movl   $0x7fffffff,0x8(%rbx)
    945c:	64 48 8b 04 25 e0 02 	mov    %fs:0x2e0,%rax
    9463:	00 00 
    9465:	48 8d 53 20          	lea    0x20(%rbx),%rdx
    9469:	48 83 e0 fe          	and    $0xfffffffffffffffe,%rax
    946d:	48 89 50 f8          	mov    %rdx,-0x8(%rax)
    9471:	64 48 8b 04 25 e0 02 	mov    %fs:0x2e0,%rax
    9478:	00 00 
    947a:	48 89 43 20          	mov    %rax,0x20(%rbx)
    947e:	48 83 ca 01          	or     $0x1,%rdx
    9482:	64 48 8b 04 25 10 00 	mov    %fs:0x10,%rax
    9489:	00 00 
    948b:	48 05 e0 02 00 00    	add    $0x2e0,%rax
    9491:	48 89 43 18          	mov    %rax,0x18(%rbx)
    9495:	64 48 89 14 25 e0 02 	mov    %rdx,%fs:0x2e0
    949c:	00 00 
    949e:	64 48 c7 04 25 f0 02 	movq   $0x0,%fs:0x2f0
    94a5:	00 00 00 00 00 00 
    94ab:	b8 82 00 00 00       	mov    $0x82,%eax
    94b0:	e9 cf fa ff ff       	jmpq   8f84 <__pthread_mutex_lock_full+0x34>
    94b5:	48 8d 0d 24 87 00 00 	lea    0x8724(%rip),%rcx        # 11be0 <__PRETTY_FUNCTION__.8738>
    94bc:	48 8d 35 eb 8c 00 00 	lea    0x8ceb(%rip),%rsi        # 121ae <__PRETTY_FUNCTION__.7549+0x3e>
    94c3:	48 8d 3d 9e 86 00 00 	lea    0x869e(%rip),%rdi        # 11b68 <__PRETTY_FUNCTION__.7538+0xa8>
    94ca:	ba 46 01 00 00       	mov    $0x146,%edx
    94cf:	e8 0c bf ff ff       	callq  53e0 <__assert_fail@plt>
    94d4:	c7 43 04 00 00 00 00 	movl   $0x0,0x4(%rbx)
    94db:	45 31 d2             	xor    %r10d,%r10d
    94de:	31 d2                	xor    %edx,%edx
    94e0:	be 07 00 00 00       	mov    $0x7,%esi
    94e5:	48 89 df             	mov    %rbx,%rdi
    94e8:	b8 ca 00 00 00       	mov    $0xca,%eax
    94ed:	0f 05                	syscall 
    94ef:	64 48 c7 04 25 f0 02 	movq   $0x0,%fs:0x2f0
    94f6:	00 00 00 00 00 00 
    94fc:	b8 83 00 00 00       	mov    $0x83,%eax
    9501:	e9 7e fa ff ff       	jmpq   8f84 <__pthread_mutex_lock_full+0x34>
    9506:	c7 43 04 00 00 00 00 	movl   $0x0,0x4(%rbx)
    950d:	be 80 00 00 00       	mov    $0x80,%esi
    9512:	f0 ff 0b             	lock decl (%rbx)
    9515:	0f 85 50 02 00 00    	jne    976b <_L_unlock_467>
    951b:	64 48 c7 04 25 f0 02 	movq   $0x0,%fs:0x2f0
    9522:	00 00 00 00 00 00 
    9528:	b8 83 00 00 00       	mov    $0x83,%eax
    952d:	e9 52 fa ff ff       	jmpq   8f84 <__pthread_mutex_lock_full+0x34>
    9532:	8b 43 10             	mov    0x10(%rbx),%eax
    9535:	83 e0 7f             	and    $0x7f,%eax
    9538:	83 f8 12             	cmp    $0x12,%eax
    953b:	74 28                	je     9565 <__pthread_mutex_lock_full+0x615>
    953d:	83 f8 11             	cmp    $0x11,%eax
    9540:	0f 85 61 fb ff ff    	jne    90a7 <__pthread_mutex_lock_full+0x157>
    9546:	64 48 c7 04 25 f0 02 	movq   $0x0,%fs:0x2f0
    954d:	00 00 00 00 00 00 
    9553:	8b 43 04             	mov    0x4(%rbx),%eax
    9556:	83 f8 ff             	cmp    $0xffffffff,%eax
    9559:	0f 85 3e fd ff ff    	jne    929d <__pthread_mutex_lock_full+0x34d>
    955f:	90                   	nop
    9560:	e9 7a fe ff ff       	jmpq   93df <__pthread_mutex_lock_full+0x48f>
    9565:	64 48 c7 04 25 f0 02 	movq   $0x0,%fs:0x2f0
    956c:	00 00 00 00 00 00 
    9572:	b0 23                	mov    $0x23,%al
    9574:	e9 0b fa ff ff       	jmpq   8f84 <__pthread_mutex_lock_full+0x34>
    9579:	0f 1f 80 00 00 00 00 	nopl   0x0(%rax)

0000000000009580 <__pthread_mutex_lock>:
    9580:	55                   	push   %rbp
    9581:	8b 77 10             	mov    0x10(%rdi),%esi
    9584:	49 89 f8             	mov    %rdi,%r8
    9587:	48 89 e5             	mov    %rsp,%rbp
    958a:	89 f7                	mov    %esi,%edi
    958c:	89 f0                	mov    %esi,%eax
    958e:	83 e7 7f             	and    $0x7f,%edi
    9591:	83 e0 7c             	and    $0x7c,%eax
    9594:	75 3a                	jne    95d0 <__pthread_mutex_lock+0x50>
    9596:	64 44 8b 0c 25 d0 02 	mov    %fs:0x2d0,%r9d
    959d:	00 00 
    959f:	85 ff                	test   %edi,%edi
    95a1:	75 55                	jne    95f8 <__pthread_mutex_lock+0x78>
    95a3:	81 e6 80 00 00 00    	and    $0x80,%esi
    95a9:	bf 01 00 00 00       	mov    $0x1,%edi
    95ae:	31 c0                	xor    %eax,%eax
    95b0:	f0 41 0f b1 38       	lock cmpxchg %edi,(%r8)
    95b5:	0f 85 cb 01 00 00    	jne    9786 <_L_lock_520>
    95bb:	41 8b 40 08          	mov    0x8(%r8),%eax
    95bf:	85 c0                	test   %eax,%eax
    95c1:	75 16                	jne    95d9 <__pthread_mutex_lock+0x59>
    95c3:	41 83 40 0c 01       	addl   $0x1,0xc(%r8)
    95c8:	45 89 48 08          	mov    %r9d,0x8(%r8)
    95cc:	31 c0                	xor    %eax,%eax
    95ce:	c9                   	leaveq 
    95cf:	c3                   	retq   
    95d0:	c9                   	leaveq 
    95d1:	4c 89 c7             	mov    %r8,%rdi
    95d4:	e9 77 f9 ff ff       	jmpq   8f50 <__pthread_mutex_lock_full>
    95d9:	48 8d 0d e0 85 00 00 	lea    0x85e0(%rip),%rcx        # 11bc0 <__PRETTY_FUNCTION__.8486>
    95e0:	48 8d 35 c7 8b 00 00 	lea    0x8bc7(%rip),%rsi        # 121ae <__PRETTY_FUNCTION__.7549+0x3e>
    95e7:	48 8d 3d fe 84 00 00 	lea    0x84fe(%rip),%rdi        # 11aec <__PRETTY_FUNCTION__.7538+0x2c>
    95ee:	ba 41 00 00 00       	mov    $0x41,%edx
    95f3:	e8 e8 bd ff ff       	callq  53e0 <__assert_fail@plt>
    95f8:	83 ff 01             	cmp    $0x1,%edi
    95fb:	75 45                	jne    9642 <__pthread_mutex_lock+0xc2>
    95fd:	45 3b 48 08          	cmp    0x8(%r8),%r9d
    9601:	74 26                	je     9629 <__pthread_mutex_lock+0xa9>
    9603:	81 e6 80 00 00 00    	and    $0x80,%esi
    9609:	f0 41 0f b1 38       	lock cmpxchg %edi,(%r8)
    960e:	0f 85 8d 01 00 00    	jne    97a1 <_L_lock_559>
    9614:	41 83 78 08 00       	cmpl   $0x0,0x8(%r8)
    9619:	0f 85 bd 00 00 00    	jne    96dc <__pthread_mutex_lock+0x15c>
    961f:	41 c7 40 04 01 00 00 	movl   $0x1,0x4(%r8)
    9626:	00 
    9627:	eb 9a                	jmp    95c3 <__pthread_mutex_lock+0x43>
    9629:	41 8b 50 04          	mov    0x4(%r8),%edx
    962d:	b8 0b 00 00 00       	mov    $0xb,%eax
    9632:	83 fa ff             	cmp    $0xffffffff,%edx
    9635:	74 97                	je     95ce <__pthread_mutex_lock+0x4e>
    9637:	83 c2 01             	add    $0x1,%edx
    963a:	30 c0                	xor    %al,%al
    963c:	41 89 50 04          	mov    %edx,0x4(%r8)
    9640:	c9                   	leaveq 
    9641:	c3                   	retq   
    9642:	83 ff 03             	cmp    $0x3,%edi
    9645:	0f 85 ce 00 00 00    	jne    9719 <__pthread_mutex_lock+0x199>
    964b:	83 3d 0a 2d 21 00 00 	cmpl   $0x0,0x212d0a(%rip)        # 21c35c <__is_smp>
    9652:	0f 84 4b ff ff ff    	je     95a3 <__pthread_mutex_lock+0x23>
    9658:	ba 01 00 00 00       	mov    $0x1,%edx
    965d:	f0 41 0f b1 10       	lock cmpxchg %edx,(%r8)
    9662:	85 c0                	test   %eax,%eax
    9664:	74 4c                	je     96b2 <__pthread_mutex_lock+0x132>
    9666:	41 8b 48 14          	mov    0x14(%r8),%ecx
    966a:	b8 64 00 00 00       	mov    $0x64,%eax
    966f:	be 01 00 00 00       	mov    $0x1,%esi
    9674:	8d 4c 09 0a          	lea    0xa(%rcx,%rcx,1),%ecx
    9678:	83 f9 64             	cmp    $0x64,%ecx
    967b:	0f 4f c8             	cmovg  %eax,%ecx
    967e:	30 d2                	xor    %dl,%dl
    9680:	40 30 ff             	xor    %dil,%dil
    9683:	83 c2 01             	add    $0x1,%edx
    9686:	8d 42 ff             	lea    -0x1(%rdx),%eax
    9689:	39 c8                	cmp    %ecx,%eax
    968b:	7d 6e                	jge    96fb <__pthread_mutex_lock+0x17b>
    968d:	f3 90                	pause  
    968f:	89 f8                	mov    %edi,%eax
    9691:	f0 41 0f b1 30       	lock cmpxchg %esi,(%r8)
    9696:	85 c0                	test   %eax,%eax
    9698:	75 e9                	jne    9683 <__pthread_mutex_lock+0x103>
    969a:	41 8b 48 14          	mov    0x14(%r8),%ecx
    969e:	be 08 00 00 00       	mov    $0x8,%esi
    96a3:	29 ca                	sub    %ecx,%edx
    96a5:	89 d0                	mov    %edx,%eax
    96a7:	c1 fa 1f             	sar    $0x1f,%edx
    96aa:	f7 fe                	idiv   %esi
    96ac:	01 c8                	add    %ecx,%eax
    96ae:	41 89 40 14          	mov    %eax,0x14(%r8)
    96b2:	41 83 78 08 00       	cmpl   $0x0,0x8(%r8)
    96b7:	0f 84 06 ff ff ff    	je     95c3 <__pthread_mutex_lock+0x43>
    96bd:	48 8d 0d fc 84 00 00 	lea    0x84fc(%rip),%rcx        # 11bc0 <__PRETTY_FUNCTION__.8486>
    96c4:	48 8d 35 e3 8a 00 00 	lea    0x8ae3(%rip),%rsi        # 121ae <__PRETTY_FUNCTION__.7549+0x3e>
    96cb:	48 8d 3d 1a 84 00 00 	lea    0x841a(%rip),%rdi        # 11aec <__PRETTY_FUNCTION__.7538+0x2c>
    96d2:	ba 74 00 00 00       	mov    $0x74,%edx
    96d7:	e8 04 bd ff ff       	callq  53e0 <__assert_fail@plt>
    96dc:	48 8d 0d dd 84 00 00 	lea    0x84dd(%rip),%rcx        # 11bc0 <__PRETTY_FUNCTION__.8486>
    96e3:	48 8d 35 c4 8a 00 00 	lea    0x8ac4(%rip),%rsi        # 121ae <__PRETTY_FUNCTION__.7549+0x3e>
    96ea:	48 8d 3d fb 83 00 00 	lea    0x83fb(%rip),%rdi        # 11aec <__PRETTY_FUNCTION__.7538+0x2c>
    96f1:	ba 57 00 00 00       	mov    $0x57,%edx
    96f6:	e8 e5 bc ff ff       	callq  53e0 <__assert_fail@plt>
    96fb:	41 8b 70 10          	mov    0x10(%r8),%esi
    96ff:	bf 01 00 00 00       	mov    $0x1,%edi
    9704:	31 c0                	xor    %eax,%eax
    9706:	81 e6 80 00 00 00    	and    $0x80,%esi
